 SpeedgoatCANOpen2Buses1ms_sfun

 Timestamp is 62e4e72f (Sat Jul 30 11:09:19 2022)

 Preferred load address is 0000000180000000

 Start         Length     Name                   Class
 0001:00000000 00066080H .text$mn                CODE
 0001:00066080 00000012H .text$mn$00             CODE
 0001:00066092 00000081H .text$x                 CODE
 0002:00000000 00000520H .idata$5                DATA
 0002:00000520 00000010H .00cfg                  DATA
 0002:00000530 00000008H .CRT$XCA                DATA
 0002:00000538 00000008H .CRT$XCZ                DATA
 0002:00000540 00000008H .CRT$XIA                DATA
 0002:00000548 00000008H .CRT$XIZ                DATA
 0002:00000550 00000008H .CRT$XPA                DATA
 0002:00000558 00000008H .CRT$XPZ                DATA
 0002:00000560 00000008H .CRT$XTA                DATA
 0002:00000568 00000008H .CRT$XTZ                DATA
 0002:00000570 00000000H .gfids$y                DATA
 0002:00000570 000003a0H .rdata                  DATA
 0002:00000910 00000218H .rdata$zzzdbg           DATA
 0002:00000b28 00000008H .rtc$IAA                DATA
 0002:00000b30 00000008H .rtc$IZZ                DATA
 0002:00000b38 00000008H .rtc$TAA                DATA
 0002:00000b40 00000008H .rtc$TZZ                DATA
 0002:00000b48 00001b58H .xdata                  DATA
 0002:000026a0 00000088H .edata                  DATA
 0002:00002728 000000dcH .idata$2                DATA
 0002:00002804 00000014H .idata$3                DATA
 0002:00002818 00000520H .idata$4                DATA
 0002:00002d38 00000fb6H .idata$6                DATA
 0003:00000000 0000ca40H .data                   DATA
 0003:0000ca40 00000830H .bss                    DATA
 0004:00000000 00002484H .pdata                  DATA

  Address         Publics by Value              Rva+Base               Lib:Object

 0000:00000000       __guard_iat_count          0000000000000000     <absolute>
 0000:00000000       __guard_iat_table          0000000000000000     <absolute>
 0000:00000000       __volatile_metadata        0000000000000000     <absolute>
 0000:00000000       __dynamic_value_reloc_table 0000000000000000     <absolute>
 0000:00000000       __guard_fids_count         0000000000000000     <absolute>
 0000:00000000       ___safe_se_handler_count   0000000000000000     <absolute>
 0000:00000000       __hybrid_code_map          0000000000000000     <absolute>
 0000:00000000       __hybrid_code_map_count    0000000000000000     <absolute>
 0000:00000000       __guard_longjmp_count      0000000000000000     <absolute>
 0000:00000000       __guard_longjmp_table      0000000000000000     <absolute>
 0000:00000000       ___safe_se_handler_table   0000000000000000     <absolute>
 0000:00000000       __guard_fids_table         0000000000000000     <absolute>
 0000:00000000       __enclave_config           0000000000000000     <absolute>
 0000:00000000       __hybrid_auxiliary_iat     0000000000000000     <absolute>
 0000:00000100       __guard_flags              0000000000000100     <absolute>
 0000:00000000       __ImageBase                0000000180000000     <linker-defined>
 0001:00000000       SpeedgoatCANOpen2Buses1ms_initializer 0000000180001000 f   SpeedgoatCANOpen2Buses1ms_sfun.obj
 0001:00000010       SpeedgoatCANOpen2Buses1ms_terminator 0000000180001010 f   SpeedgoatCANOpen2Buses1ms_sfun.obj
 0001:00000020       load_SpeedgoatCANOpen2Buses1ms_optimization_info 0000000180001020 f   SpeedgoatCANOpen2Buses1ms_sfun.obj
 0001:000000d0       unload_SpeedgoatCANOpen2Buses1ms_optimization_info 00000001800010d0 f   SpeedgoatCANOpen2Buses1ms_sfun.obj
 0001:00000100       sf_SpeedgoatCANOpen2Buses1ms_method_dispatcher 0000000180001100 f   SpeedgoatCANOpen2Buses1ms_sfun.obj
 0001:000002b0       sf_SpeedgoatCANOpen2Buses1ms_process_testpoint_info_call 00000001800012b0 f   SpeedgoatCANOpen2Buses1ms_sfun.obj
 0001:00000640       sf_SpeedgoatCANOpen2Buses1ms_process_check_sum_call 0000000180001640 f   SpeedgoatCANOpen2Buses1ms_sfun.obj
 0001:00000c40       sf_SpeedgoatCANOpen2Buses1ms_autoinheritance_info 0000000180001c40 f   SpeedgoatCANOpen2Buses1ms_sfun.obj
 0001:00001220       sf_SpeedgoatCANOpen2Buses1ms_get_eml_resolved_functions_info 0000000180002220 f   SpeedgoatCANOpen2Buses1ms_sfun.obj
 0001:000017b0       sf_SpeedgoatCANOpen2Buses1ms_third_party_uses_info 00000001800027b0 f   SpeedgoatCANOpen2Buses1ms_sfun.obj
 0001:00001bf0       sf_SpeedgoatCANOpen2Buses1ms_jit_fallback_info 0000000180002bf0 f   SpeedgoatCANOpen2Buses1ms_sfun.obj
 0001:00002030       sf_SpeedgoatCANOpen2Buses1ms_updateBuildInfo_args_info 0000000180003030 f   SpeedgoatCANOpen2Buses1ms_sfun.obj
 0001:00002470       SpeedgoatCANOpen2Buses1ms_debug_initialize 0000000180003470 f   SpeedgoatCANOpen2Buses1ms_sfun.obj
 0001:000024f0       SpeedgoatCANOpen2Buses1ms_register_exported_symbols 00000001800034f0 f   SpeedgoatCANOpen2Buses1ms_sfun.obj
 0001:00002500       sf_c1_SpeedgoatCANOpen2Buses1ms_get_eml_resolved_functions_info 0000000180003500 f   c1_SpeedgoatCANOpen2Buses1ms.obj
 0001:00002580       sf_c1_SpeedgoatCANOpen2Buses1ms_get_check_sum 0000000180003580 f   c1_SpeedgoatCANOpen2Buses1ms.obj
 0001:00002650       c1_SpeedgoatCANOpen2Buses1ms_method_dispatcher 0000000180003650 f   c1_SpeedgoatCANOpen2Buses1ms.obj
 0001:00009ed0       sf_c1_SpeedgoatCANOpen2Buses1ms_get_post_codegen_info 000000018000aed0 f   c1_SpeedgoatCANOpen2Buses1ms.obj
 0001:00009fa0       sf_c1_SpeedgoatCANOpen2Buses1ms_get_autoinheritance_info 000000018000afa0 f   c1_SpeedgoatCANOpen2Buses1ms.obj
 0001:0000ad00       sf_c1_SpeedgoatCANOpen2Buses1ms_third_party_uses_info 000000018000bd00 f   c1_SpeedgoatCANOpen2Buses1ms.obj
 0001:0000ad30       sf_c1_SpeedgoatCANOpen2Buses1ms_jit_fallback_info 000000018000bd30 f   c1_SpeedgoatCANOpen2Buses1ms.obj
 0001:0000aec0       sf_c1_SpeedgoatCANOpen2Buses1ms_updateBuildInfo_args_info 000000018000bec0 f   c1_SpeedgoatCANOpen2Buses1ms.obj
 0001:0000b3e0       sf_c1_SpeedgoatCANOpen2Buses1ms_get_testpoint_info 000000018000c3e0 f   c1_SpeedgoatCANOpen2Buses1ms.obj
 0001:0000be20       sf_c2_SpeedgoatCANOpen2Buses1ms_get_eml_resolved_functions_info 000000018000ce20 f   c2_SpeedgoatCANOpen2Buses1ms.obj
 0001:0000bea0       sf_c2_SpeedgoatCANOpen2Buses1ms_get_check_sum 000000018000cea0 f   c2_SpeedgoatCANOpen2Buses1ms.obj
 0001:0000bf70       c2_SpeedgoatCANOpen2Buses1ms_method_dispatcher 000000018000cf70 f   c2_SpeedgoatCANOpen2Buses1ms.obj
 0001:000137f0       sf_c2_SpeedgoatCANOpen2Buses1ms_get_post_codegen_info 00000001800147f0 f   c2_SpeedgoatCANOpen2Buses1ms.obj
 0001:000138c0       sf_c2_SpeedgoatCANOpen2Buses1ms_get_autoinheritance_info 00000001800148c0 f   c2_SpeedgoatCANOpen2Buses1ms.obj
 0001:00014620       sf_c2_SpeedgoatCANOpen2Buses1ms_third_party_uses_info 0000000180015620 f   c2_SpeedgoatCANOpen2Buses1ms.obj
 0001:00014650       sf_c2_SpeedgoatCANOpen2Buses1ms_jit_fallback_info 0000000180015650 f   c2_SpeedgoatCANOpen2Buses1ms.obj
 0001:000147e0       sf_c2_SpeedgoatCANOpen2Buses1ms_updateBuildInfo_args_info 00000001800157e0 f   c2_SpeedgoatCANOpen2Buses1ms.obj
 0001:00014d00       sf_c2_SpeedgoatCANOpen2Buses1ms_get_testpoint_info 0000000180015d00 f   c2_SpeedgoatCANOpen2Buses1ms.obj
 0001:00015740       sf_c3_SpeedgoatCANOpen2Buses1ms_get_eml_resolved_functions_info 0000000180016740 f   c3_SpeedgoatCANOpen2Buses1ms.obj
 0001:000157c0       sf_c3_SpeedgoatCANOpen2Buses1ms_get_check_sum 00000001800167c0 f   c3_SpeedgoatCANOpen2Buses1ms.obj
 0001:00015890       c3_SpeedgoatCANOpen2Buses1ms_method_dispatcher 0000000180016890 f   c3_SpeedgoatCANOpen2Buses1ms.obj
 0001:0001ebb0       sf_c3_SpeedgoatCANOpen2Buses1ms_get_post_codegen_info 000000018001fbb0 f   c3_SpeedgoatCANOpen2Buses1ms.obj
 0001:0001ec80       sf_c3_SpeedgoatCANOpen2Buses1ms_get_autoinheritance_info 000000018001fc80 f   c3_SpeedgoatCANOpen2Buses1ms.obj
 0001:0001fb20       sf_c3_SpeedgoatCANOpen2Buses1ms_third_party_uses_info 0000000180020b20 f   c3_SpeedgoatCANOpen2Buses1ms.obj
 0001:0001fb50       sf_c3_SpeedgoatCANOpen2Buses1ms_jit_fallback_info 0000000180020b50 f   c3_SpeedgoatCANOpen2Buses1ms.obj
 0001:0001fce0       sf_c3_SpeedgoatCANOpen2Buses1ms_updateBuildInfo_args_info 0000000180020ce0 f   c3_SpeedgoatCANOpen2Buses1ms.obj
 0001:00020210       sf_c3_SpeedgoatCANOpen2Buses1ms_get_testpoint_info 0000000180021210 f   c3_SpeedgoatCANOpen2Buses1ms.obj
 0001:00020c50       sf_c4_SpeedgoatCANOpen2Buses1ms_get_eml_resolved_functions_info 0000000180021c50 f   c4_SpeedgoatCANOpen2Buses1ms.obj
 0001:00020cd0       sf_c4_SpeedgoatCANOpen2Buses1ms_get_check_sum 0000000180021cd0 f   c4_SpeedgoatCANOpen2Buses1ms.obj
 0001:00020da0       c4_SpeedgoatCANOpen2Buses1ms_method_dispatcher 0000000180021da0 f   c4_SpeedgoatCANOpen2Buses1ms.obj
 0001:00024340       sf_c4_SpeedgoatCANOpen2Buses1ms_get_post_codegen_info 0000000180025340 f   c4_SpeedgoatCANOpen2Buses1ms.obj
 0001:00024410       sf_c4_SpeedgoatCANOpen2Buses1ms_get_autoinheritance_info 0000000180025410 f   c4_SpeedgoatCANOpen2Buses1ms.obj
 0001:00024870       sf_c4_SpeedgoatCANOpen2Buses1ms_third_party_uses_info 0000000180025870 f   c4_SpeedgoatCANOpen2Buses1ms.obj
 0001:000248a0       sf_c4_SpeedgoatCANOpen2Buses1ms_jit_fallback_info 00000001800258a0 f   c4_SpeedgoatCANOpen2Buses1ms.obj
 0001:00024a30       sf_c4_SpeedgoatCANOpen2Buses1ms_updateBuildInfo_args_info 0000000180025a30 f   c4_SpeedgoatCANOpen2Buses1ms.obj
 0001:00024f50       sf_c4_SpeedgoatCANOpen2Buses1ms_get_testpoint_info 0000000180025f50 f   c4_SpeedgoatCANOpen2Buses1ms.obj
 0001:00025940       sf_c5_SpeedgoatCANOpen2Buses1ms_get_eml_resolved_functions_info 0000000180026940 f   c5_SpeedgoatCANOpen2Buses1ms.obj
 0001:000259c0       sf_c5_SpeedgoatCANOpen2Buses1ms_get_check_sum 00000001800269c0 f   c5_SpeedgoatCANOpen2Buses1ms.obj
 0001:00025a90       c5_SpeedgoatCANOpen2Buses1ms_method_dispatcher 0000000180026a90 f   c5_SpeedgoatCANOpen2Buses1ms.obj
 0001:000294b0       sf_c5_SpeedgoatCANOpen2Buses1ms_get_post_codegen_info 000000018002a4b0 f   c5_SpeedgoatCANOpen2Buses1ms.obj
 0001:00029580       sf_c5_SpeedgoatCANOpen2Buses1ms_get_autoinheritance_info 000000018002a580 f   c5_SpeedgoatCANOpen2Buses1ms.obj
 0001:00029b10       sf_c5_SpeedgoatCANOpen2Buses1ms_third_party_uses_info 000000018002ab10 f   c5_SpeedgoatCANOpen2Buses1ms.obj
 0001:00029b40       sf_c5_SpeedgoatCANOpen2Buses1ms_jit_fallback_info 000000018002ab40 f   c5_SpeedgoatCANOpen2Buses1ms.obj
 0001:00029cd0       sf_c5_SpeedgoatCANOpen2Buses1ms_updateBuildInfo_args_info 000000018002acd0 f   c5_SpeedgoatCANOpen2Buses1ms.obj
 0001:0002a1f0       sf_c5_SpeedgoatCANOpen2Buses1ms_get_testpoint_info 000000018002b1f0 f   c5_SpeedgoatCANOpen2Buses1ms.obj
 0001:0002ac30       sf_c10_SpeedgoatCANOpen2Buses1ms_get_eml_resolved_functions_info 000000018002bc30 f   c10_SpeedgoatCANOpen2Buses1ms.obj
 0001:0002acb0       sf_c10_SpeedgoatCANOpen2Buses1ms_get_check_sum 000000018002bcb0 f   c10_SpeedgoatCANOpen2Buses1ms.obj
 0001:0002ad80       c10_SpeedgoatCANOpen2Buses1ms_method_dispatcher 000000018002bd80 f   c10_SpeedgoatCANOpen2Buses1ms.obj
 0001:000313f0       sf_c10_SpeedgoatCANOpen2Buses1ms_get_post_codegen_info 00000001800323f0 f   c10_SpeedgoatCANOpen2Buses1ms.obj
 0001:000314c0       sf_c10_SpeedgoatCANOpen2Buses1ms_get_autoinheritance_info 00000001800324c0 f   c10_SpeedgoatCANOpen2Buses1ms.obj
 0001:00031b90       sf_c10_SpeedgoatCANOpen2Buses1ms_third_party_uses_info 0000000180032b90 f   c10_SpeedgoatCANOpen2Buses1ms.obj
 0001:00031bc0       sf_c10_SpeedgoatCANOpen2Buses1ms_jit_fallback_info 0000000180032bc0 f   c10_SpeedgoatCANOpen2Buses1ms.obj
 0001:00031d50       sf_c10_SpeedgoatCANOpen2Buses1ms_updateBuildInfo_args_info 0000000180032d50 f   c10_SpeedgoatCANOpen2Buses1ms.obj
 0001:00032270       sf_c10_SpeedgoatCANOpen2Buses1ms_get_testpoint_info 0000000180033270 f   c10_SpeedgoatCANOpen2Buses1ms.obj
 0001:00032c30       sf_c12_SpeedgoatCANOpen2Buses1ms_get_eml_resolved_functions_info 0000000180033c30 f   c12_SpeedgoatCANOpen2Buses1ms.obj
 0001:00032cb0       sf_c12_SpeedgoatCANOpen2Buses1ms_get_check_sum 0000000180033cb0 f   c12_SpeedgoatCANOpen2Buses1ms.obj
 0001:00032d80       c12_SpeedgoatCANOpen2Buses1ms_method_dispatcher 0000000180033d80 f   c12_SpeedgoatCANOpen2Buses1ms.obj
 0001:0003a600       sf_c12_SpeedgoatCANOpen2Buses1ms_get_post_codegen_info 000000018003b600 f   c12_SpeedgoatCANOpen2Buses1ms.obj
 0001:0003a6d0       sf_c12_SpeedgoatCANOpen2Buses1ms_get_autoinheritance_info 000000018003b6d0 f   c12_SpeedgoatCANOpen2Buses1ms.obj
 0001:0003b430       sf_c12_SpeedgoatCANOpen2Buses1ms_third_party_uses_info 000000018003c430 f   c12_SpeedgoatCANOpen2Buses1ms.obj
 0001:0003b460       sf_c12_SpeedgoatCANOpen2Buses1ms_jit_fallback_info 000000018003c460 f   c12_SpeedgoatCANOpen2Buses1ms.obj
 0001:0003b5f0       sf_c12_SpeedgoatCANOpen2Buses1ms_updateBuildInfo_args_info 000000018003c5f0 f   c12_SpeedgoatCANOpen2Buses1ms.obj
 0001:0003bb10       sf_c12_SpeedgoatCANOpen2Buses1ms_get_testpoint_info 000000018003cb10 f   c12_SpeedgoatCANOpen2Buses1ms.obj
 0001:0003c550       sf_c13_SpeedgoatCANOpen2Buses1ms_get_eml_resolved_functions_info 000000018003d550 f   c13_SpeedgoatCANOpen2Buses1ms.obj
 0001:0003c5d0       sf_c13_SpeedgoatCANOpen2Buses1ms_get_check_sum 000000018003d5d0 f   c13_SpeedgoatCANOpen2Buses1ms.obj
 0001:0003c6a0       c13_SpeedgoatCANOpen2Buses1ms_method_dispatcher 000000018003d6a0 f   c13_SpeedgoatCANOpen2Buses1ms.obj
 0001:000414a0       sf_c13_SpeedgoatCANOpen2Buses1ms_get_post_codegen_info 00000001800424a0 f   c13_SpeedgoatCANOpen2Buses1ms.obj
 0001:00041570       sf_c13_SpeedgoatCANOpen2Buses1ms_get_autoinheritance_info 0000000180042570 f   c13_SpeedgoatCANOpen2Buses1ms.obj
 0001:000422d0       sf_c13_SpeedgoatCANOpen2Buses1ms_third_party_uses_info 00000001800432d0 f   c13_SpeedgoatCANOpen2Buses1ms.obj
 0001:00042300       sf_c13_SpeedgoatCANOpen2Buses1ms_jit_fallback_info 0000000180043300 f   c13_SpeedgoatCANOpen2Buses1ms.obj
 0001:00042490       sf_c13_SpeedgoatCANOpen2Buses1ms_updateBuildInfo_args_info 0000000180043490 f   c13_SpeedgoatCANOpen2Buses1ms.obj
 0001:000429b0       sf_c13_SpeedgoatCANOpen2Buses1ms_get_testpoint_info 00000001800439b0 f   c13_SpeedgoatCANOpen2Buses1ms.obj
 0001:000434f0       sf_c14_SpeedgoatCANOpen2Buses1ms_get_eml_resolved_functions_info 00000001800444f0 f   c14_SpeedgoatCANOpen2Buses1ms.obj
 0001:00043570       sf_c14_SpeedgoatCANOpen2Buses1ms_get_check_sum 0000000180044570 f   c14_SpeedgoatCANOpen2Buses1ms.obj
 0001:00043640       c14_SpeedgoatCANOpen2Buses1ms_method_dispatcher 0000000180044640 f   c14_SpeedgoatCANOpen2Buses1ms.obj
 0001:00049cb0       sf_c14_SpeedgoatCANOpen2Buses1ms_get_post_codegen_info 000000018004acb0 f   c14_SpeedgoatCANOpen2Buses1ms.obj
 0001:00049d80       sf_c14_SpeedgoatCANOpen2Buses1ms_get_autoinheritance_info 000000018004ad80 f   c14_SpeedgoatCANOpen2Buses1ms.obj
 0001:0004a450       sf_c14_SpeedgoatCANOpen2Buses1ms_third_party_uses_info 000000018004b450 f   c14_SpeedgoatCANOpen2Buses1ms.obj
 0001:0004a480       sf_c14_SpeedgoatCANOpen2Buses1ms_jit_fallback_info 000000018004b480 f   c14_SpeedgoatCANOpen2Buses1ms.obj
 0001:0004a610       sf_c14_SpeedgoatCANOpen2Buses1ms_updateBuildInfo_args_info 000000018004b610 f   c14_SpeedgoatCANOpen2Buses1ms.obj
 0001:0004ab30       sf_c14_SpeedgoatCANOpen2Buses1ms_get_testpoint_info 000000018004bb30 f   c14_SpeedgoatCANOpen2Buses1ms.obj
 0001:0004b4f0       sf_c18_SpeedgoatCANOpen2Buses1ms_get_eml_resolved_functions_info 000000018004c4f0 f   c18_SpeedgoatCANOpen2Buses1ms.obj
 0001:0004b570       sf_c18_SpeedgoatCANOpen2Buses1ms_get_check_sum 000000018004c570 f   c18_SpeedgoatCANOpen2Buses1ms.obj
 0001:0004b640       c18_SpeedgoatCANOpen2Buses1ms_method_dispatcher 000000018004c640 f   c18_SpeedgoatCANOpen2Buses1ms.obj
 0001:00051cb0       sf_c18_SpeedgoatCANOpen2Buses1ms_get_post_codegen_info 0000000180052cb0 f   c18_SpeedgoatCANOpen2Buses1ms.obj
 0001:00051d80       sf_c18_SpeedgoatCANOpen2Buses1ms_get_autoinheritance_info 0000000180052d80 f   c18_SpeedgoatCANOpen2Buses1ms.obj
 0001:00052450       sf_c18_SpeedgoatCANOpen2Buses1ms_third_party_uses_info 0000000180053450 f   c18_SpeedgoatCANOpen2Buses1ms.obj
 0001:00052480       sf_c18_SpeedgoatCANOpen2Buses1ms_jit_fallback_info 0000000180053480 f   c18_SpeedgoatCANOpen2Buses1ms.obj
 0001:00052610       sf_c18_SpeedgoatCANOpen2Buses1ms_updateBuildInfo_args_info 0000000180053610 f   c18_SpeedgoatCANOpen2Buses1ms.obj
 0001:00052b30       sf_c18_SpeedgoatCANOpen2Buses1ms_get_testpoint_info 0000000180053b30 f   c18_SpeedgoatCANOpen2Buses1ms.obj
 0001:000534f0       sf_c20_SpeedgoatCANOpen2Buses1ms_get_eml_resolved_functions_info 00000001800544f0 f   c20_SpeedgoatCANOpen2Buses1ms.obj
 0001:00053570       sf_c20_SpeedgoatCANOpen2Buses1ms_get_check_sum 0000000180054570 f   c20_SpeedgoatCANOpen2Buses1ms.obj
 0001:00053640       c20_SpeedgoatCANOpen2Buses1ms_method_dispatcher 0000000180054640 f   c20_SpeedgoatCANOpen2Buses1ms.obj
 0001:00059cb0       sf_c20_SpeedgoatCANOpen2Buses1ms_get_post_codegen_info 000000018005acb0 f   c20_SpeedgoatCANOpen2Buses1ms.obj
 0001:00059d80       sf_c20_SpeedgoatCANOpen2Buses1ms_get_autoinheritance_info 000000018005ad80 f   c20_SpeedgoatCANOpen2Buses1ms.obj
 0001:0005a450       sf_c20_SpeedgoatCANOpen2Buses1ms_third_party_uses_info 000000018005b450 f   c20_SpeedgoatCANOpen2Buses1ms.obj
 0001:0005a480       sf_c20_SpeedgoatCANOpen2Buses1ms_jit_fallback_info 000000018005b480 f   c20_SpeedgoatCANOpen2Buses1ms.obj
 0001:0005a610       sf_c20_SpeedgoatCANOpen2Buses1ms_updateBuildInfo_args_info 000000018005b610 f   c20_SpeedgoatCANOpen2Buses1ms.obj
 0001:0005ab30       sf_c20_SpeedgoatCANOpen2Buses1ms_get_testpoint_info 000000018005bb30 f   c20_SpeedgoatCANOpen2Buses1ms.obj
 0001:0005b4f0       mexFunction                000000018005c4f0 f   SpeedgoatCANOpen2Buses1ms_sfun_registry.obj
 0001:0005dab0       _ssSetInputPortDirectFeedThroughFcn 000000018005eab0 f   SpeedgoatCANOpen2Buses1ms_sfun_registry.obj
 0001:0005dc20       _ssSetRWorkValueFcn        000000018005ec20 f   SpeedgoatCANOpen2Buses1ms_sfun_registry.obj
 0001:0005dca0       _ssGetRWorkValueFcn        000000018005eca0 f   SpeedgoatCANOpen2Buses1ms_sfun_registry.obj
 0001:0005dd10       _ssSetIWorkValueFcn        000000018005ed10 f   SpeedgoatCANOpen2Buses1ms_sfun_registry.obj
 0001:0005dd90       _ssGetIWorkValueFcn        000000018005ed90 f   SpeedgoatCANOpen2Buses1ms_sfun_registry.obj
 0001:0005de00       _ssSetPWorkValueFcn        000000018005ee00 f   SpeedgoatCANOpen2Buses1ms_sfun_registry.obj
 0001:0005de80       _ssGetPWorkValueFcn        000000018005ee80 f   SpeedgoatCANOpen2Buses1ms_sfun_registry.obj
 0001:0005def0       _ssGetInputPortSignalFcn   000000018005eef0 f   SpeedgoatCANOpen2Buses1ms_sfun_registry.obj
 0001:0005e280       _ssGetInputPortBufferDstPortFcn 000000018005f280 f   SpeedgoatCANOpen2Buses1ms_sfun_registry.obj
 0001:0005e300       _ssGetInputPortSignalPtrsFcn 000000018005f300 f   SpeedgoatCANOpen2Buses1ms_sfun_registry.obj
 0001:0005e690       ssGetParameterTuningCompliance 000000018005f690 f   SpeedgoatCANOpen2Buses1ms_sfun_registry.obj
 0001:0005e700       ssGetDTypeIdFromMxArray    000000018005f700 f   SpeedgoatCANOpen2Buses1ms_sfun_registry.obj
 0001:0005e820       ssWriteRTWMx2dMatParam     000000018005f820 f   SpeedgoatCANOpen2Buses1ms_sfun_registry.obj
 0001:0005e8b0       ssWriteRTWMxVectParam      000000018005f8b0 f   SpeedgoatCANOpen2Buses1ms_sfun_registry.obj
 0001:0005e930       ssWriteRTWParameters       000000018005f930 f   SpeedgoatCANOpen2Buses1ms_sfun_registry.obj
 0001:0005eef0       ssWriteRTWParamSettings    000000018005fef0 f   SpeedgoatCANOpen2Buses1ms_sfun_registry.obj
 0001:0005f5e0       ssWriteRTWStr              00000001800605e0 f   SpeedgoatCANOpen2Buses1ms_sfun_registry.obj
 0001:0005f640       ssWriteRTWWorkVect         0000000180060640 f   SpeedgoatCANOpen2Buses1ms_sfun_registry.obj
 0001:0005fba0       ssWarning                  0000000180060ba0 f   SpeedgoatCANOpen2Buses1ms_sfun_registry.obj
 0001:0005fc90       ssWriteRTWNameValuePair    0000000180060c90 f   SpeedgoatCANOpen2Buses1ms_sfun_registry.obj
 0001:00060190       _ssSetInputPortMatrixDimensions 0000000180061190 f   SpeedgoatCANOpen2Buses1ms_sfun_registry.obj
 0001:000602b0       _ssSetOutputPortMatrixDimensions 00000001800612b0 f   SpeedgoatCANOpen2Buses1ms_sfun_registry.obj
 0001:000603d0       _ssSetInputPortVectorDimension 00000001800613d0 f   SpeedgoatCANOpen2Buses1ms_sfun_registry.obj
 0001:00060480       _ssSetOutputPortVectorDimension 0000000180061480 f   SpeedgoatCANOpen2Buses1ms_sfun_registry.obj
 0001:00060530       ssIsRunTimeParamTunable    0000000180061530 f   SpeedgoatCANOpen2Buses1ms_sfun_registry.obj
 0001:000605a0       ssGetSFuncBlockHandle      00000001800615a0 f   SpeedgoatCANOpen2Buses1ms_sfun_registry.obj
 0001:00060610       _ssGetCurrentInputPortWidth 0000000180061610 f   SpeedgoatCANOpen2Buses1ms_sfun_registry.obj
 0001:00060730       _ssGetCurrentOutputPortWidth 0000000180061730 f   SpeedgoatCANOpen2Buses1ms_sfun_registry.obj
 0001:00060850       _ssGetCallSystemNumFcnCallDestinations 0000000180061850 f   SpeedgoatCANOpen2Buses1ms_sfun_registry.obj
 0001:000608c0       ssGetIsZeroCrossControlDisabled 00000001800618c0 f   SpeedgoatCANOpen2Buses1ms_sfun_registry.obj
 0001:00060930       ssSetIsInputPortUsedForContZcSignal 0000000180061930 f   SpeedgoatCANOpen2Buses1ms_sfun_registry.obj
 0001:000609a0       ssSetZcSignalIsZcElementDisc 00000001800619a0 f   SpeedgoatCANOpen2Buses1ms_sfun_registry.obj
 0001:00060a50       ssSetZcSignalName          0000000180061a50 f   SpeedgoatCANOpen2Buses1ms_sfun_registry.obj
 0001:00060ac0       ssSetZcSignalWidth         0000000180061ac0 f   SpeedgoatCANOpen2Buses1ms_sfun_registry.obj
 0001:00060b30       ssSetZcSignalZcEventType   0000000180061b30 f   SpeedgoatCANOpen2Buses1ms_sfun_registry.obj
 0001:00060ba0       ssSetZcSignalType          0000000180061ba0 f   SpeedgoatCANOpen2Buses1ms_sfun_registry.obj
 0001:00060c10       ssSetZcSignalZcTol         0000000180061c10 f   SpeedgoatCANOpen2Buses1ms_sfun_registry.obj
 0001:00060c80       ssSetZcSignalNeedsEventNotification 0000000180061c80 f   SpeedgoatCANOpen2Buses1ms_sfun_registry.obj
 0001:00060cf0       ssCreateAndAddZcSignalInfo 0000000180061cf0 f   SpeedgoatCANOpen2Buses1ms_sfun_registry.obj
 0001:00060d60       ssCloneAndAddZcSignalInfo  0000000180061d60 f   SpeedgoatCANOpen2Buses1ms_sfun_registry.obj
 0001:00060dd0       ssGetNumZcSignals          0000000180061dd0 f   SpeedgoatCANOpen2Buses1ms_sfun_registry.obj
 0001:00060e40       ssGetZcSignalVector        0000000180061e40 f   SpeedgoatCANOpen2Buses1ms_sfun_registry.obj
 0001:00060eb0       ssGetZcSignalName          0000000180061eb0 f   SpeedgoatCANOpen2Buses1ms_sfun_registry.obj
 0001:00060f20       ssGetZcSignalWidth         0000000180061f20 f   SpeedgoatCANOpen2Buses1ms_sfun_registry.obj
 0001:00060f90       ssGetZcSignalZcEventType   0000000180061f90 f   SpeedgoatCANOpen2Buses1ms_sfun_registry.obj
 0001:00061000       ssGetZcSignalZcEvents      0000000180062000 f   SpeedgoatCANOpen2Buses1ms_sfun_registry.obj
 0001:00061070       ssGetZcSignalType          0000000180062070 f   SpeedgoatCANOpen2Buses1ms_sfun_registry.obj
 0001:000610e0       ssGetZcSignalZcTol         00000001800620e0 f   SpeedgoatCANOpen2Buses1ms_sfun_registry.obj
 0001:00061160       ssGetZcSignalNeedsEventNotification 0000000180062160 f   SpeedgoatCANOpen2Buses1ms_sfun_registry.obj
 0001:000611d0       ssGetZcSignalIsZcElementDisc 00000001800621d0 f   SpeedgoatCANOpen2Buses1ms_sfun_registry.obj
 0001:00061270       ssGetIsInputPortElementContinuous 0000000180062270 f   SpeedgoatCANOpen2Buses1ms_sfun_registry.obj
 0001:00061310       _ssGetAbsTol               0000000180062310 f   SpeedgoatCANOpen2Buses1ms_sfun_registry.obj
 0001:00061380       _ssSetStateAbsTol          0000000180062380 f   SpeedgoatCANOpen2Buses1ms_sfun_registry.obj
 0001:00061460       _ssSetInputPortReusableFcn 0000000180062460 f   SpeedgoatCANOpen2Buses1ms_sfun_registry.obj
 0001:00061560       _ssSetOutputPortReusableFcn 0000000180062560 f   SpeedgoatCANOpen2Buses1ms_sfun_registry.obj
 0001:00061660       _ssSetSymbolicDimsSupport  0000000180062660 f   SpeedgoatCANOpen2Buses1ms_sfun_registry.obj
 0001:000616d0       _ssRegisterSymbolicDimsExpr 00000001800626d0 f   SpeedgoatCANOpen2Buses1ms_sfun_registry.obj
 0001:00061750       _ssRegisterSymbolicDims    0000000180062750 f   SpeedgoatCANOpen2Buses1ms_sfun_registry.obj
 0001:000617f0       _ssRegisterSymbolicDimsString 00000001800627f0 f   SpeedgoatCANOpen2Buses1ms_sfun_registry.obj
 0001:00061870       _ssRegisterSymbolicDimsIntValue 0000000180062870 f   SpeedgoatCANOpen2Buses1ms_sfun_registry.obj
 0001:000618e0       _ssRegisterSymbolicDimsPlus 00000001800628e0 f   SpeedgoatCANOpen2Buses1ms_sfun_registry.obj
 0001:00061960       _ssRegisterSymbolicDimsMinus 0000000180062960 f   SpeedgoatCANOpen2Buses1ms_sfun_registry.obj
 0001:000619e0       _ssRegisterSymbolicDimsMultiply 00000001800629e0 f   SpeedgoatCANOpen2Buses1ms_sfun_registry.obj
 0001:00061a60       _ssRegisterSymbolicDimsDivide 0000000180062a60 f   SpeedgoatCANOpen2Buses1ms_sfun_registry.obj
 0001:00061ae0       _ssGetNumSymbolicDims      0000000180062ae0 f   SpeedgoatCANOpen2Buses1ms_sfun_registry.obj
 0001:00061b50       _ssGetSymbolicDim          0000000180062b50 f   SpeedgoatCANOpen2Buses1ms_sfun_registry.obj
 0001:00061bd0       _ssSetInputPortSymbolicDimsId 0000000180062bd0 f   SpeedgoatCANOpen2Buses1ms_sfun_registry.obj
 0001:00061c40       _ssGetCompInputPortSymbolicDimsId 0000000180062c40 f   SpeedgoatCANOpen2Buses1ms_sfun_registry.obj
 0001:00061cb0       _ssSetCompInputPortSymbolicDimsId 0000000180062cb0 f   SpeedgoatCANOpen2Buses1ms_sfun_registry.obj
 0001:00061d20       _ssSetOutputPortSymbolicDimsId 0000000180062d20 f   SpeedgoatCANOpen2Buses1ms_sfun_registry.obj
 0001:00061d90       _ssGetCompOutputPortSymbolicDimsId 0000000180062d90 f   SpeedgoatCANOpen2Buses1ms_sfun_registry.obj
 0001:00061e00       _ssSetCompOutputPortSymbolicDimsId 0000000180062e00 f   SpeedgoatCANOpen2Buses1ms_sfun_registry.obj
 0001:00061e70       _ssSetCompDWorkSymbolicDimsId 0000000180062e70 f   SpeedgoatCANOpen2Buses1ms_sfun_registry.obj
 0001:00061ee0       sf_process_check_sum_call  0000000180062ee0 f   SpeedgoatCANOpen2Buses1ms_sfun_registry.obj
 0001:00061f30       sf_process_testpoint_info_call 0000000180062f30 f   SpeedgoatCANOpen2Buses1ms_sfun_registry.obj
 0001:00061f80       sf_process_autoinheritance_call 0000000180062f80 f   SpeedgoatCANOpen2Buses1ms_sfun_registry.obj
 0001:000621b0       sf_process_get_third_party_uses_info_call 00000001800631b0 f   SpeedgoatCANOpen2Buses1ms_sfun_registry.obj
 0001:000623e0       sf_process_get_jit_fallback_info_call 00000001800633e0 f   SpeedgoatCANOpen2Buses1ms_sfun_registry.obj
 0001:00062610       sf_process_get_updateBuildInfo_args_info_call 0000000180063610 f   SpeedgoatCANOpen2Buses1ms_sfun_registry.obj
 0001:00062840       sf_process_get_eml_resolved_functions_info_call 0000000180063840 f   SpeedgoatCANOpen2Buses1ms_sfun_registry.obj
 0001:00062a70       sf_mex_unlock_call         0000000180063a70 f   SpeedgoatCANOpen2Buses1ms_sfun_registry.obj
 0001:00062d30       sf_machine_global_initializer_called 0000000180063d30 f   SpeedgoatCANOpen2Buses1ms_sfun_registry.obj
 0001:00062d60       sf_machine_global_method_dispatcher 0000000180063d60 f   SpeedgoatCANOpen2Buses1ms_sfun_registry.obj
 0001:00062dc0       sf_machine_global_terminator 0000000180063dc0 f   SpeedgoatCANOpen2Buses1ms_sfun_registry.obj
 0001:00062e20       sf_register_machine_exported_symbols 0000000180063e20 f   SpeedgoatCANOpen2Buses1ms_sfun_registry.obj
 0001:00062e40       callCustomFcn              0000000180063e40 f   SpeedgoatCANOpen2Buses1ms_sfun_registry.obj
 0001:00062e50       sf_machine_global_initializer 0000000180063e50 f   SpeedgoatCANOpen2Buses1ms_sfun_registry.obj
 0001:00062ed0       mdlGetSimState             0000000180063ed0 f   SpeedgoatCANOpen2Buses1ms_sfun_registry.obj
 0001:00062f10       mdlSetSimState             0000000180063f10 f   SpeedgoatCANOpen2Buses1ms_sfun_registry.obj
 0001:00063780       ProcessMexSfunctionEveryCall 0000000180064780 f   SpeedgoatCANOpen2Buses1ms_sfun_registry.obj
 0001:00064890       __local_stdio_printf_options 0000000180065890 f i SpeedgoatCANOpen2Buses1ms_sfun_registry.obj
 0001:000648a0       _vsnprintf_l               00000001800658a0 f i SpeedgoatCANOpen2Buses1ms_sfun_registry.obj
 0001:00064920       _vsprintf_l                0000000180065920 f i SpeedgoatCANOpen2Buses1ms_sfun_registry.obj
 0001:00064970       sprintf                    0000000180065970 f i SpeedgoatCANOpen2Buses1ms_sfun_registry.obj
 0001:000649c0       mexfilerequiredapiversion  00000001800659c0 f   c_mexapi_version.obj
 0001:000649e1       sf_load_rtw_optimization_info 00000001800659e1 f   sf_runtime:sf_runtime.dll
 0001:000649e7       sf_debug_initialize_machine 00000001800659e7 f   sf_runtime:sf_runtime.dll
 0001:000649ed       sf_debug_set_machine_event_thresholds 00000001800659ed f   sf_runtime:sf_runtime.dll
 0001:000649f3       sf_debug_set_machine_data_thresholds 00000001800659f3 f   sf_runtime:sf_runtime.dll
 0001:000649f9       sf_init_ChartRunTimeInfo   00000001800659f9 f   sf_runtime:sf_runtime.dll
 0001:000649ff       sf_free_ChartRunTimeInfo   00000001800659ff f   sf_runtime:sf_runtime.dll
 0001:00064a05       sfrtGetEmlrtCtx            0000000180065a05 f   sf_runtime:sf_runtime.dll
 0001:00064a0b       sf_get_chart_instance_ptr  0000000180065a0b f   sf_runtime:sf_runtime.dll
 0001:00064a11       sf_rtw_info_uint_prop      0000000180065a11 f   sf_runtime:sf_runtime.dll
 0001:00064a17       sf_update_buildInfo        0000000180065a17 f   sf_runtime:sf_runtime.dll
 0001:00064a1d       sf_is_chart_inlinable      0000000180065a1d f   sf_runtime:sf_runtime.dll
 0001:00064a23       sf_mark_chart_reusable_outputs 0000000180065a23 f   sf_runtime:sf_runtime.dll
 0001:00064a29       sf_mark_chart_expressionable_inputs 0000000180065a29 f   sf_runtime:sf_runtime.dll
 0001:00064a2f       sim_mode_is_rtw_gen        0000000180065a2f f   sf_runtime:sf_runtime.dll
 0001:00064a35       sim_mode_is_external       0000000180065a35 f   sf_runtime:sf_runtime.dll
 0001:00064a3b       sim_mode_is_modelref_sim   0000000180065a3b f   sf_runtime:sf_runtime.dll
 0001:00064a41       sf_clear_rtw_identifier    0000000180065a41 f   sf_runtime:sf_runtime.dll
 0001:00064a47       sf_set_rtw_dwork_info      0000000180065a47 f   sf_runtime:sf_runtime.dll
 0001:00064a4d       sf_get_dwork_info_from_mat_file 0000000180065a4d f   sf_runtime:sf_runtime.dll
 0001:00064a53       sf_set_encoded_dwork_info  0000000180065a53 f   sf_runtime:sf_runtime.dll
 0001:00064a59       sf_get_time                0000000180065a59 f   sf_runtime:sf_runtime.dll
 0001:00064a5f       sf_is_first_init_cond      0000000180065a5f f   sf_runtime:sf_runtime.dll
 0001:00064a65       setLegacyDebuggerFlagForRuntime 0000000180065a65 f   sf_runtime:sf_runtime.dll
 0001:00064a6b       sf_set_chart_accesses_machine_info 0000000180065a6b f   sf_runtime:sf_runtime.dll
 0001:00064a71       sf_register_codegen_names_for_scoped_functions_defined_by_chart 0000000180065a71 f   sf_runtime:sf_runtime.dll
 0001:00064a77       ssSetBlockIsPurelyCombinatorial_wrapper 0000000180065a77 f   sf_runtime:sf_runtime.dll
 0001:00064a7d       sf_mex_error_message       0000000180065a7d f   sf_runtime:sf_runtime.dll
 0001:00064a83       sf_mex_create              0000000180065a83 f   sf_runtime:sf_runtime.dll
 0001:00064a89       sf_mex_createcellmatrix    0000000180065a89 f   sf_runtime:sf_runtime.dll
 0001:00064a8f       sf_mex_setcell             0000000180065a8f f   sf_runtime:sf_runtime.dll
 0001:00064a95       sf_mex_getcell             0000000180065a95 f   sf_runtime:sf_runtime.dll
 0001:00064a9b       sf_mex_assign              0000000180065a9b f   sf_runtime:sf_runtime.dll
 0001:00064aa1       sf_mex_dup                 0000000180065aa1 f   sf_runtime:sf_runtime.dll
 0001:00064aa7       sf_mex_destroy             0000000180065aa7 f   sf_runtime:sf_runtime.dll
 0001:00064aad       sf_mex_import              0000000180065aad f   sf_runtime:sf_runtime.dll
 0001:00064ab3       sf_mex_decode_encoded_mx_struct_array 0000000180065ab3 f   sf_runtime:sf_runtime.dll
 0001:00064ab9       sf_mex_duplicatearraysafe  0000000180065ab9 f   sf_runtime:sf_runtime.dll
 0001:00064abf       ssGetDWork_wrapper         0000000180065abf f   sf_runtime:sf_runtime.dll
 0001:00064ac5       ssGetInputPortSignal_wrapper 0000000180065ac5 f   sf_runtime:sf_runtime.dll
 0001:00064acb       ssGetOutputPortSignal_wrapper 0000000180065acb f   sf_runtime:sf_runtime.dll
 0001:00064ad1       sf_read_before_write_error 0000000180065ad1 f   sf_runtime:sf_runtime.dll
 0001:00064ad7       sf_debug_initialize_chart  0000000180065ad7 f   sf_runtime:sf_runtime.dll
 0001:00064add       sf_debug_call              0000000180065add f   sf_runtime:sf_runtime.dll
 0001:00064ae3       cv_eval_point              0000000180065ae3 f   sf_runtime:sf_runtime.dll
 0001:00064ae9       cv_eml_eval                0000000180065ae9 f   sf_runtime:sf_runtime.dll
 0001:00064aef       cv_eval_relational         0000000180065aef f   sf_runtime:sf_runtime.dll
 0001:00064af5       cv_eml_init_script         0000000180065af5 f   sf_runtime:sf_runtime.dll
 0001:00064afb       cv_eml_init_if             0000000180065afb f   sf_runtime:sf_runtime.dll
 0001:00064b01       cv_eml_init_mcdc           0000000180065b01 f   sf_runtime:sf_runtime.dll
 0001:00064b07       cv_eml_init_relational     0000000180065b07 f   sf_runtime:sf_runtime.dll
 0001:00064b0d       sf_debug_reset_current_state_configuration 0000000180065b0d f   sf_runtime:sf_runtime.dll
 0001:00064b13       sf_debug_set_honor_breakpoints 0000000180065b13 f   sf_runtime:sf_runtime.dll
 0001:00064b19       sf_debug_get_animation     0000000180065b19 f   sf_runtime:sf_runtime.dll
 0001:00064b1f       sf_debug_set_animation     0000000180065b1f f   sf_runtime:sf_runtime.dll
 0001:00064b25       sf_debug_animate           0000000180065b25 f   sf_runtime:sf_runtime.dll
 0001:00064b2b       sf_debug_set_chart_data_props 0000000180065b2b f   sf_runtime:sf_runtime.dll
 0001:00064b31       sf_debug_set_chart_data_compiled_props 0000000180065b31 f   sf_runtime:sf_runtime.dll
 0001:00064b37       sf_debug_symbol_scope_push 0000000180065b37 f   sf_runtime:sf_runtime.dll
 0001:00064b3d       sf_debug_symbol_scope_push_eml 0000000180065b3d f   sf_runtime:sf_runtime.dll
 0001:00064b43       sf_debug_symbol_scope_pop  0000000180065b43 f   sf_runtime:sf_runtime.dll
 0001:00064b49       sf_debug_symbol_scope_add_eml_importable 0000000180065b49 f   sf_runtime:sf_runtime.dll
 0001:00064b4f       sf_debug_set_instance_data_value_ptr 0000000180065b4f f   sf_runtime:sf_runtime.dll
 0001:00064b55       sf_debug_set_chart_disable_implicit_casting 0000000180065b55 f   sf_runtime:sf_runtime.dll
 0001:00064b5b       sf_debug_set_chart_event_thresholds 0000000180065b5b f   sf_runtime:sf_runtime.dll
 0001:00064b61       sf_debug_set_chart_state_info 0000000180065b61 f   sf_runtime:sf_runtime.dll
 0001:00064b67       sf_debug_set_chart_decomposition 0000000180065b67 f   sf_runtime:sf_runtime.dll
 0001:00064b6d       sf_debug_set_chart_substate_count 0000000180065b6d f   sf_runtime:sf_runtime.dll
 0001:00064b73       sf_debug_set_chart_substate_index 0000000180065b73 f   sf_runtime:sf_runtime.dll
 0001:00064b79       sf_debug_set_chart_state_substate_count 0000000180065b79 f   sf_runtime:sf_runtime.dll
 0001:00064b7f       sf_debug_data_range_wrapper 0000000180065b7f f   sf_runtime:sf_runtime.dll
 0001:00064b85       sf_debug_cv_init_trans     0000000180065b85 f   sf_runtime:sf_runtime.dll
 0001:00064b8b       sf_debug_cv_init_chart     0000000180065b8b f   sf_runtime:sf_runtime.dll
 0001:00064b91       sf_debug_cv_init_state     0000000180065b91 f   sf_runtime:sf_runtime.dll
 0001:00064b97       sf_debug_data_range_error_wrapper_min_max 0000000180065b97 f   sf_runtime:sf_runtime.dll
 0001:00064b9d       sf_mex_sub                 0000000180065b9d f   sf_runtime:sf_runtime.dll
 0001:00064ba3       sf_get_ChartInfoStruct_CodeGen 0000000180065ba3 f   sf_runtime:sf_runtime.dll
 0001:00064ba9       sf_get_hasSeparateUpdateOutputs 0000000180065ba9 f   sf_runtime:sf_runtime.dll
 0001:00064baf       callMdlMethodAndReportError 0000000180065baf f   sf_runtime:sf_runtime.dll
 0001:00064bb5       call_sf_machine_global_method_dispatcher 0000000180065bb5 f   sf_runtime:sf_runtime.dll
 0001:00064bbb       getRuntimeInstanceInfoAsVoid 0000000180065bbb f   sf_runtime:sf_runtime.dll
 0001:00064bc1       sf_mex_error_direct_call   0000000180065bc1 f   sf_runtime:sf_runtime.dll
 0001:00064bc7       sf_clear_error_manager_info 0000000180065bc7 f   sf_runtime:sf_runtime.dll
 0001:00064bcd       sf_debug_create_debug_instance_struct 0000000180065bcd f   sf_runtime:sf_runtime.dll
 0001:00064bd3       sf_debug_terminate         0000000180065bd3 f   sf_runtime:sf_runtime.dll
 0001:00064bd9       sf_debug_api               0000000180065bd9 f   sf_runtime:sf_runtime.dll
 0001:00064bdf       mxIsChar                   0000000180065bdf f   libmx:libmx.dll
 0001:00064be5       mxGetScalar                0000000180065be5 f   libmx:libmx.dll
 0001:00064beb       mxGetPr                    0000000180065beb f   libmx:libmx.dll
 0001:00064bf1       mxDestroyArray             0000000180065bf1 f   libmx:libmx.dll
 0001:00064bf7       mxCreateDoubleMatrix_730   0000000180065bf7 f   libmx:libmx.dll
 0001:00064bfd       mxGetString_730            0000000180065bfd f   libmx:libmx.dll
 0001:00064c03       mxDuplicateArray           0000000180065c03 f   libmx:libmx.dll
 0001:00064c09       mxSetField_730             0000000180065c09 f   libmx:libmx.dll
 0001:00064c0f       mxCreateDoubleScalar       0000000180065c0f f   libmx:libmx.dll
 0001:00064c15       mxCreateString             0000000180065c15 f   libmx:libmx.dll
 0001:00064c1b       mxCreateCellMatrix_730     0000000180065c1b f   libmx:libmx.dll
 0001:00064c21       mxCreateCellArray_730      0000000180065c21 f   libmx:libmx.dll
 0001:00064c27       mxCreateStructMatrix_730   0000000180065c27 f   libmx:libmx.dll
 0001:00064c2d       mxCreateStructArray_730    0000000180065c2d f   libmx:libmx.dll
 0001:00064c33       mxCalloc                   0000000180065c33 f   libmx:libmx.dll
 0001:00064c39       mxGetM                     0000000180065c39 f   libmx:libmx.dll
 0001:00064c3f       mxGetClassID               0000000180065c3f f   libmx:libmx.dll
 0001:00064c45       mxIsNumeric                0000000180065c45 f   libmx:libmx.dll
 0001:00064c4b       mxIsComplex                0000000180065c4b f   libmx:libmx.dll
 0001:00064c51       mxGetN                     0000000180065c51 f   libmx:libmx.dll
 0001:00064c57       mexMakeArrayPersistent     0000000180065c57 f   libmex:libmex.dll
 0001:00064c5d       mexErrMsgTxt               0000000180065c5d f   libmex:libmex.dll
 0001:00064c63       mexWarnMsgTxt              0000000180065c63 f   libmex:libmex.dll
 0001:00064c69       mexCallMATLABWithObject    0000000180065c69 f   libmex:libmex.dll
 0001:00064c6f       mexLock                    0000000180065c6f f   libmex:libmex.dll
 0001:00064c75       mexUnlock                  0000000180065c75 f   libmex:libmex.dll
 0001:00064c7b       mexIsLocked                0000000180065c7b f   libmex:libmex.dll
 0001:00064c81       utMalloc                   0000000180065c81 f   libut:libut.dll
 0001:00064c87       utFree                     0000000180065c87 f   libut:libut.dll
 0001:00064c8d       slcovUploadCoverageSynthesisById 0000000180065c8d f   libmwsl_sfcn_cov_bridge:libmwsl_sfcn_cov_bridge.dll
 0001:00064c94       __raise_securityfailure    0000000180065c94 f   MSVCRT:gs_report.obj
 0001:00064cc8       __report_gsfailure         0000000180065cc8 f   MSVCRT:gs_report.obj
 0001:00064d9c       __report_rangecheckfailure 0000000180065d9c f   MSVCRT:gs_report.obj
 0001:00064db0       __report_securityfailure   0000000180065db0 f   MSVCRT:gs_report.obj
 0001:00064e4c       __report_securityfailureEx 0000000180065e4c f   MSVCRT:gs_report.obj
 0001:00065040       __GSHandlerCheck           0000000180066040 f   MSVCRT:gshandler.obj
 0001:00065060       __GSHandlerCheckCommon     0000000180066060 f   MSVCRT:gshandler.obj
 0001:000650d0       __security_check_cookie    00000001800660d0 f   MSVCRT:amdsecgs.obj
 0001:00065440       _CRT_INIT                  0000000180066440 f   MSVCRT:dll_dllmain.obj
 0001:00065448       _DllMainCRTStartup         0000000180066448 f   MSVCRT:dll_dllmain.obj
 0001:000654f4       __security_init_cookie     00000001800664f4 f   MSVCRT:gs_support.obj
 0001:000655a0       DllMain                    00000001800665a0 f   MSVCRT:dll_dllmain_stub.obj
 0001:000655c4       ?__scrt_initialize_type_info@@YAXXZ 00000001800665c4 f   MSVCRT:tncleanup.obj
 0001:000655d4       ?__scrt_uninitialize_type_info@@YAXXZ 00000001800665d4 f   MSVCRT:tncleanup.obj
 0001:000655e0       __local_stdio_scanf_options 00000001800665e0 f i MSVCRT:default_local_stdio_options.obj
 0001:000655e8       __scrt_initialize_default_local_stdio_options 00000001800665e8 f   MSVCRT:default_local_stdio_options.obj
 0001:00065604       ??$__crt_fast_decode_pointer@PEAP6AXXZ@@YAPEAP6AXXZQEAP6AXXZ@Z 0000000180066604 f i MSVCRT:utility.obj
 0001:0006561c       ??$__crt_fast_encode_pointer@PEAP6AXXZ@@YAPEAP6AXXZQEAP6AXXZ@Z 000000018006661c f i MSVCRT:utility.obj
 0001:0006563c       ?__crt_rotate_pointer_value@@YA_K_KH@Z 000000018006663c f i MSVCRT:utility.obj
 0001:00065648       ?configure_argv@__scrt_narrow_argv_policy@@SAHXZ 0000000180066648 f i MSVCRT:utility.obj
 0001:000656a8       ?initialize_environment@__scrt_narrow_environment_policy@@SAHXZ 00000001800666a8 f i MSVCRT:utility.obj
 0001:000656e0       NtCurrentTeb               00000001800666e0 f i MSVCRT:utility.obj
 0001:000656ec       __scrt_acquire_startup_lock 00000001800666ec f   MSVCRT:utility.obj
 0001:00065728       __scrt_dllmain_after_initialize_c 0000000180066728 f   MSVCRT:utility.obj
 0001:0006575c       __scrt_dllmain_before_initialize_c 000000018006675c f   MSVCRT:utility.obj
 0001:00065774       __scrt_dllmain_crt_thread_attach 0000000180066774 f   MSVCRT:utility.obj
 0001:0006579c       __scrt_dllmain_crt_thread_detach 000000018006679c f   MSVCRT:utility.obj
 0001:000657b4       __scrt_dllmain_exception_filter 00000001800667b4 f   MSVCRT:utility.obj
 0001:00065814       __scrt_dllmain_uninitialize_c 0000000180066814 f   MSVCRT:utility.obj
 0001:00065844       __scrt_dllmain_uninitialize_critical 0000000180066844 f   MSVCRT:utility.obj
 0001:00065858       __scrt_initialize_crt      0000000180066858 f   MSVCRT:utility.obj
 0001:000658a4       __scrt_initialize_onexit_tables 00000001800668a4 f   MSVCRT:utility.obj
 0001:0006597c       __scrt_is_nonwritable_in_current_image 000000018006697c f   MSVCRT:utility.obj
 0001:00065a18       __scrt_release_startup_lock 0000000180066a18 f   MSVCRT:utility.obj
 0001:00065a3c       __scrt_uninitialize_crt    0000000180066a3c f   MSVCRT:utility.obj
 0001:00065a68       _onexit                    0000000180066a68 f   MSVCRT:utility.obj
 0001:00065ab8       at_quick_exit              0000000180066ab8 f   MSVCRT:utility.obj
 0001:00065af0       atexit                     0000000180066af0 f   MSVCRT:utility.obj
 0001:00065b08       __scrt_get_dyn_tls_init_callback 0000000180066b08 f   MSVCRT:dyn_tls_init.obj
 0001:00065b10       __crt_debugger_hook        0000000180066b10 f   MSVCRT:utility_desktop.obj
 0001:00065b18       __scrt_fastfail            0000000180066b18 f   MSVCRT:utility_desktop.obj
 0001:00065c64       __scrt_get_show_window_mode 0000000180066c64 f   MSVCRT:utility_desktop.obj
 0001:00065ca0       __scrt_initialize_mta      0000000180066ca0 f   MSVCRT:utility_desktop.obj
 0001:00065ca8       __scrt_initialize_winrt    0000000180066ca8 f   MSVCRT:utility_desktop.obj
 0001:00065cac       __scrt_is_managed_app      0000000180066cac f   MSVCRT:utility_desktop.obj
 0001:00065d00       __scrt_set_unhandled_exception_filter 0000000180066d00 f   MSVCRT:utility_desktop.obj
 0001:00065d10       __scrt_stub_for_initialize_mta 0000000180066d10 f   MSVCRT:utility_desktop.obj
 0001:00065d10       __scrt_exe_initialize_mta  0000000180066d10 f   MSVCRT:utility_desktop.obj
 0001:00065d14       __scrt_unhandled_exception_filter 0000000180066d14 f   MSVCRT:utility_desktop.obj
 0001:00065d4c       _RTC_Initialize            0000000180066d4c f   MSVCRT:initsect.obj
 0001:00065d88       _RTC_Terminate             0000000180066d88 f   MSVCRT:initsect.obj
 0001:00065dc4       _guard_check_icall_nop     0000000180066dc4 f i MSVCRT:guard_support.obj
 0001:00065dc8       ReadNoFence64              0000000180066dc8 f i MSVCRT:guard_support.obj
 0001:00065dcc       ReadPointerNoFence         0000000180066dcc f i MSVCRT:guard_support.obj
 0001:00065dd0       _guard_icall_checks_enforced 0000000180066dd0 f i MSVCRT:guard_support.obj
 0001:00065de8       _guard_rf_checks_enforced  0000000180066de8 f i MSVCRT:guard_support.obj
 0001:00065dec       __isa_available_init       0000000180066dec f   MSVCRT:cpu_disp.obj
 0001:00065f68       _get_startup_argv_mode     0000000180066f68 f   MSVCRT:argv_mode.obj
 0001:00065f70       __scrt_is_ucrt_dll_in_use  0000000180066f70 f   MSVCRT:ucrt_detection.obj
 0001:00065f80       RtlCaptureContext          0000000180066f80 f   kernel32:KERNEL32.dll
 0001:00065f86       RtlLookupFunctionEntry     0000000180066f86 f   kernel32:KERNEL32.dll
 0001:00065f8c       RtlVirtualUnwind           0000000180066f8c f   kernel32:KERNEL32.dll
 0001:00065f92       UnhandledExceptionFilter   0000000180066f92 f   kernel32:KERNEL32.dll
 0001:00065f98       SetUnhandledExceptionFilter 0000000180066f98 f   kernel32:KERNEL32.dll
 0001:00065f9e       GetCurrentProcess          0000000180066f9e f   kernel32:KERNEL32.dll
 0001:00065fa4       TerminateProcess           0000000180066fa4 f   kernel32:KERNEL32.dll
 0001:00065faa       IsProcessorFeaturePresent  0000000180066faa f   kernel32:KERNEL32.dll
 0001:00065fb0       QueryPerformanceCounter    0000000180066fb0 f   kernel32:KERNEL32.dll
 0001:00065fb6       GetCurrentProcessId        0000000180066fb6 f   kernel32:KERNEL32.dll
 0001:00065fbc       GetCurrentThreadId         0000000180066fbc f   kernel32:KERNEL32.dll
 0001:00065fc2       GetSystemTimeAsFileTime    0000000180066fc2 f   kernel32:KERNEL32.dll
 0001:00065fc8       DisableThreadLibraryCalls  0000000180066fc8 f   kernel32:KERNEL32.dll
 0001:00065fce       InitializeSListHead        0000000180066fce f   kernel32:KERNEL32.dll
 0001:00065fd4       IsDebuggerPresent          0000000180066fd4 f   kernel32:KERNEL32.dll
 0001:00065fda       GetStartupInfoW            0000000180066fda f   kernel32:KERNEL32.dll
 0001:00065fe0       GetModuleHandleW           0000000180066fe0 f   kernel32:KERNEL32.dll
 0001:00065fe6       memset                     0000000180066fe6 f   vcruntime:VCRUNTIME140.dll
 0001:00065fec       memcpy                     0000000180066fec f   vcruntime:VCRUNTIME140.dll
 0001:00065ff2       __C_specific_handler       0000000180066ff2 f   vcruntime:VCRUNTIME140.dll
 0001:00065ff8       __std_type_info_destroy_list 0000000180066ff8 f   vcruntime:VCRUNTIME140.dll
 0001:00065ffe       strcmp                     0000000180066ffe f   ucrt:api-ms-win-crt-string-l1-1-0.dll
 0001:00066004       __stdio_common_vsprintf    0000000180067004 f   ucrt:api-ms-win-crt-stdio-l1-1-0.dll
 0001:0006600a       free                       000000018006700a f   ucrt:api-ms-win-crt-heap-l1-1-0.dll
 0001:00066010       malloc                     0000000180067010 f   ucrt:api-ms-win-crt-heap-l1-1-0.dll
 0001:00066016       strlen                     0000000180067016 f   ucrt:api-ms-win-crt-string-l1-1-0.dll
 0001:0006601c       _initterm                  000000018006701c f   ucrt:api-ms-win-crt-runtime-l1-1-0.dll
 0001:00066022       _initterm_e                0000000180067022 f   ucrt:api-ms-win-crt-runtime-l1-1-0.dll
 0001:00066028       _seh_filter_dll            0000000180067028 f   ucrt:api-ms-win-crt-runtime-l1-1-0.dll
 0001:0006602e       _configure_narrow_argv     000000018006702e f   ucrt:api-ms-win-crt-runtime-l1-1-0.dll
 0001:00066034       _initialize_narrow_environment 0000000180067034 f   ucrt:api-ms-win-crt-runtime-l1-1-0.dll
 0001:0006603a       _initialize_onexit_table   000000018006703a f   ucrt:api-ms-win-crt-runtime-l1-1-0.dll
 0001:00066040       _register_onexit_function  0000000180067040 f   ucrt:api-ms-win-crt-runtime-l1-1-0.dll
 0001:00066046       _execute_onexit_table      0000000180067046 f   ucrt:api-ms-win-crt-runtime-l1-1-0.dll
 0001:0006604c       _crt_atexit                000000018006704c f   ucrt:api-ms-win-crt-runtime-l1-1-0.dll
 0001:00066052       _crt_at_quick_exit         0000000180067052 f   ucrt:api-ms-win-crt-runtime-l1-1-0.dll
 0001:00066058       _cexit                     0000000180067058 f   ucrt:api-ms-win-crt-runtime-l1-1-0.dll
 0001:0006605e       terminate                  000000018006705e f   ucrt:api-ms-win-crt-runtime-l1-1-0.dll
 0001:00066064       __vcrt_initialize          0000000180067064 f   MSVCRT:ucrt_stubs.obj
 0001:00066064       __scrt_stub_for_acrt_initialize 0000000180067064 f   MSVCRT:ucrt_stubs.obj
 0001:00066064       __acrt_initialize          0000000180067064 f   MSVCRT:ucrt_stubs.obj
 0001:00066068       __acrt_thread_attach       0000000180067068 f   MSVCRT:ucrt_stubs.obj
 0001:00066068       __scrt_stub_for_acrt_thread_attach 0000000180067068 f   MSVCRT:ucrt_stubs.obj
 0001:00066068       __vcrt_thread_attach       0000000180067068 f   MSVCRT:ucrt_stubs.obj
 0001:0006606c       __scrt_stub_for_acrt_thread_detach 000000018006706c f   MSVCRT:ucrt_stubs.obj
 0001:0006606c       __acrt_thread_detach       000000018006706c f   MSVCRT:ucrt_stubs.obj
 0001:0006606c       __vcrt_thread_detach       000000018006706c f   MSVCRT:ucrt_stubs.obj
 0001:00066070       __scrt_stub_for_acrt_uninitialize 0000000180067070 f   MSVCRT:ucrt_stubs.obj
 0001:00066070       __acrt_uninitialize        0000000180067070 f   MSVCRT:ucrt_stubs.obj
 0001:00066070       __vcrt_uninitialize        0000000180067070 f   MSVCRT:ucrt_stubs.obj
 0001:00066074       __vcrt_uninitialize_critical 0000000180067074 f   MSVCRT:ucrt_stubs.obj
 0001:00066074       __scrt_stub_for_acrt_uninitialize_critical 0000000180067074 f   MSVCRT:ucrt_stubs.obj
 0001:00066074       __acrt_uninitialize_critical 0000000180067074 f   MSVCRT:ucrt_stubs.obj
 0001:00066078       __scrt_stub_for_is_c_termination_complete 0000000180067078 f   MSVCRT:ucrt_stubs.obj
 0001:00066078       _is_c_termination_complete 0000000180067078 f   MSVCRT:ucrt_stubs.obj
 0001:00066090       _guard_dispatch_icall_nop  0000000180067090 f   MSVCRT:guard_dispatch.obj
 0002:00000000       __imp_InitializeSListHead  0000000180068000     kernel32:KERNEL32.dll
 0002:00000008       __imp_RtlCaptureContext    0000000180068008     kernel32:KERNEL32.dll
 0002:00000010       __imp_RtlLookupFunctionEntry 0000000180068010     kernel32:KERNEL32.dll
 0002:00000018       __imp_RtlVirtualUnwind     0000000180068018     kernel32:KERNEL32.dll
 0002:00000020       __imp_UnhandledExceptionFilter 0000000180068020     kernel32:KERNEL32.dll
 0002:00000028       __imp_SetUnhandledExceptionFilter 0000000180068028     kernel32:KERNEL32.dll
 0002:00000030       __imp_GetCurrentProcess    0000000180068030     kernel32:KERNEL32.dll
 0002:00000038       __imp_TerminateProcess     0000000180068038     kernel32:KERNEL32.dll
 0002:00000040       __imp_IsProcessorFeaturePresent 0000000180068040     kernel32:KERNEL32.dll
 0002:00000048       __imp_QueryPerformanceCounter 0000000180068048     kernel32:KERNEL32.dll
 0002:00000050       __imp_GetCurrentProcessId  0000000180068050     kernel32:KERNEL32.dll
 0002:00000058       __imp_GetCurrentThreadId   0000000180068058     kernel32:KERNEL32.dll
 0002:00000060       __imp_GetSystemTimeAsFileTime 0000000180068060     kernel32:KERNEL32.dll
 0002:00000068       __imp_GetModuleHandleW     0000000180068068     kernel32:KERNEL32.dll
 0002:00000070       __imp_IsDebuggerPresent    0000000180068070     kernel32:KERNEL32.dll
 0002:00000078       __imp_DisableThreadLibraryCalls 0000000180068078     kernel32:KERNEL32.dll
 0002:00000080       __imp_GetStartupInfoW      0000000180068080     kernel32:KERNEL32.dll
 0002:00000088       \177KERNEL32_NULL_THUNK_DATA 0000000180068088     kernel32:KERNEL32.dll
 0002:00000090       __imp_memcpy               0000000180068090     vcruntime:VCRUNTIME140.dll
 0002:00000098       __imp_memset               0000000180068098     vcruntime:VCRUNTIME140.dll
 0002:000000a0       __imp___C_specific_handler 00000001800680a0     vcruntime:VCRUNTIME140.dll
 0002:000000a8       __imp___std_type_info_destroy_list 00000001800680a8     vcruntime:VCRUNTIME140.dll
 0002:000000b0       \177VCRUNTIME140_NULL_THUNK_DATA 00000001800680b0     vcruntime:VCRUNTIME140.dll
 0002:000000b8       __imp_free                 00000001800680b8     ucrt:api-ms-win-crt-heap-l1-1-0.dll
 0002:000000c0       __imp_malloc               00000001800680c0     ucrt:api-ms-win-crt-heap-l1-1-0.dll
 0002:000000c8       \177api-ms-win-crt-heap-l1-1-0_NULL_THUNK_DATA 00000001800680c8     ucrt:api-ms-win-crt-heap-l1-1-0.dll
 0002:000000d0       __imp__register_onexit_function 00000001800680d0     ucrt:api-ms-win-crt-runtime-l1-1-0.dll
 0002:000000d8       __imp__initterm            00000001800680d8     ucrt:api-ms-win-crt-runtime-l1-1-0.dll
 0002:000000e0       __imp__initterm_e          00000001800680e0     ucrt:api-ms-win-crt-runtime-l1-1-0.dll
 0002:000000e8       __imp__seh_filter_dll      00000001800680e8     ucrt:api-ms-win-crt-runtime-l1-1-0.dll
 0002:000000f0       __imp__configure_narrow_argv 00000001800680f0     ucrt:api-ms-win-crt-runtime-l1-1-0.dll
 0002:000000f8       __imp__initialize_narrow_environment 00000001800680f8     ucrt:api-ms-win-crt-runtime-l1-1-0.dll
 0002:00000100       __imp__initialize_onexit_table 0000000180068100     ucrt:api-ms-win-crt-runtime-l1-1-0.dll
 0002:00000108       __imp__cexit               0000000180068108     ucrt:api-ms-win-crt-runtime-l1-1-0.dll
 0002:00000110       __imp__execute_onexit_table 0000000180068110     ucrt:api-ms-win-crt-runtime-l1-1-0.dll
 0002:00000118       __imp__crt_atexit          0000000180068118     ucrt:api-ms-win-crt-runtime-l1-1-0.dll
 0002:00000120       __imp__crt_at_quick_exit   0000000180068120     ucrt:api-ms-win-crt-runtime-l1-1-0.dll
 0002:00000128       __imp_terminate            0000000180068128     ucrt:api-ms-win-crt-runtime-l1-1-0.dll
 0002:00000130       \177api-ms-win-crt-runtime-l1-1-0_NULL_THUNK_DATA 0000000180068130     ucrt:api-ms-win-crt-runtime-l1-1-0.dll
 0002:00000138       __imp___stdio_common_vsprintf 0000000180068138     ucrt:api-ms-win-crt-stdio-l1-1-0.dll
 0002:00000140       \177api-ms-win-crt-stdio-l1-1-0_NULL_THUNK_DATA 0000000180068140     ucrt:api-ms-win-crt-stdio-l1-1-0.dll
 0002:00000148       __imp_strlen               0000000180068148     ucrt:api-ms-win-crt-string-l1-1-0.dll
 0002:00000150       __imp_strcmp               0000000180068150     ucrt:api-ms-win-crt-string-l1-1-0.dll
 0002:00000158       \177api-ms-win-crt-string-l1-1-0_NULL_THUNK_DATA 0000000180068158     ucrt:api-ms-win-crt-string-l1-1-0.dll
 0002:00000160       __imp_mexErrMsgTxt         0000000180068160     libmex:libmex.dll
 0002:00000168       __imp_mexWarnMsgTxt        0000000180068168     libmex:libmex.dll
 0002:00000170       __imp_mexCallMATLABWithObject 0000000180068170     libmex:libmex.dll
 0002:00000178       __imp_mexIsLocked          0000000180068178     libmex:libmex.dll
 0002:00000180       __imp_mexUnlock            0000000180068180     libmex:libmex.dll
 0002:00000188       __imp_mexLock              0000000180068188     libmex:libmex.dll
 0002:00000190       __imp_mexMakeArrayPersistent 0000000180068190     libmex:libmex.dll
 0002:00000198       \177libmex_NULL_THUNK_DATA 0000000180068198     libmex:libmex.dll
 0002:000001a0       __imp_slcovUploadCoverageSynthesisById 00000001800681a0     libmwsl_sfcn_cov_bridge:libmwsl_sfcn_cov_bridge.dll
 0002:000001a8       \177libmwsl_sfcn_cov_bridge_NULL_THUNK_DATA 00000001800681a8     libmwsl_sfcn_cov_bridge:libmwsl_sfcn_cov_bridge.dll
 0002:000001b0       __imp_mxGetN               00000001800681b0     libmx:libmx.dll
 0002:000001b8       __imp_mxIsComplex          00000001800681b8     libmx:libmx.dll
 0002:000001c0       __imp_mxIsNumeric          00000001800681c0     libmx:libmx.dll
 0002:000001c8       __imp_mxGetClassID         00000001800681c8     libmx:libmx.dll
 0002:000001d0       __imp_mxGetM               00000001800681d0     libmx:libmx.dll
 0002:000001d8       __imp_mxCalloc             00000001800681d8     libmx:libmx.dll
 0002:000001e0       __imp_mxCreateStructArray_730 00000001800681e0     libmx:libmx.dll
 0002:000001e8       __imp_mxCreateStructMatrix_730 00000001800681e8     libmx:libmx.dll
 0002:000001f0       __imp_mxCreateCellArray_730 00000001800681f0     libmx:libmx.dll
 0002:000001f8       __imp_mxCreateCellMatrix_730 00000001800681f8     libmx:libmx.dll
 0002:00000200       __imp_mxCreateString       0000000180068200     libmx:libmx.dll
 0002:00000208       __imp_mxCreateDoubleScalar 0000000180068208     libmx:libmx.dll
 0002:00000210       __imp_mxSetField_730       0000000180068210     libmx:libmx.dll
 0002:00000218       __imp_mxDuplicateArray     0000000180068218     libmx:libmx.dll
 0002:00000220       __imp_mxGetString_730      0000000180068220     libmx:libmx.dll
 0002:00000228       __imp_mxCreateDoubleMatrix_730 0000000180068228     libmx:libmx.dll
 0002:00000230       __imp_mxDestroyArray       0000000180068230     libmx:libmx.dll
 0002:00000238       __imp_mxGetPr              0000000180068238     libmx:libmx.dll
 0002:00000240       __imp_mxGetScalar          0000000180068240     libmx:libmx.dll
 0002:00000248       __imp_mxIsChar             0000000180068248     libmx:libmx.dll
 0002:00000250       \177libmx_NULL_THUNK_DATA  0000000180068250     libmx:libmx.dll
 0002:00000258       __imp_utMalloc             0000000180068258     libut:libut.dll
 0002:00000260       __imp_utFree               0000000180068260     libut:libut.dll
 0002:00000268       \177libut_NULL_THUNK_DATA  0000000180068268     libut:libut.dll
 0002:00000270       __imp_call_sf_machine_global_method_dispatcher 0000000180068270     sf_runtime:sf_runtime.dll
 0002:00000278       __imp_getRuntimeInstanceInfoAsVoid 0000000180068278     sf_runtime:sf_runtime.dll
 0002:00000280       __imp_sf_mex_error_direct_call 0000000180068280     sf_runtime:sf_runtime.dll
 0002:00000288       __imp_sf_read_before_write_error 0000000180068288     sf_runtime:sf_runtime.dll
 0002:00000290       __imp_sf_debug_create_debug_instance_struct 0000000180068290     sf_runtime:sf_runtime.dll
 0002:00000298       __imp_sf_debug_terminate   0000000180068298     sf_runtime:sf_runtime.dll
 0002:000002a0       __imp_sf_debug_api         00000001800682a0     sf_runtime:sf_runtime.dll
 0002:000002a8       __imp_ssGetOutputPortSignal_wrapper 00000001800682a8     sf_runtime:sf_runtime.dll
 0002:000002b0       __imp_sf_debug_data_range_error_wrapper_min_max 00000001800682b0     sf_runtime:sf_runtime.dll
 0002:000002b8       __imp_sf_debug_cv_init_state 00000001800682b8     sf_runtime:sf_runtime.dll
 0002:000002c0       __imp_sf_debug_cv_init_chart 00000001800682c0     sf_runtime:sf_runtime.dll
 0002:000002c8       __imp_sf_debug_cv_init_trans 00000001800682c8     sf_runtime:sf_runtime.dll
 0002:000002d0       __imp_sf_debug_data_range_wrapper 00000001800682d0     sf_runtime:sf_runtime.dll
 0002:000002d8       __imp_sf_debug_set_chart_state_substate_count 00000001800682d8     sf_runtime:sf_runtime.dll
 0002:000002e0       __imp_sf_debug_set_chart_substate_index 00000001800682e0     sf_runtime:sf_runtime.dll
 0002:000002e8       __imp_sf_debug_set_chart_substate_count 00000001800682e8     sf_runtime:sf_runtime.dll
 0002:000002f0       __imp_sf_debug_set_chart_decomposition 00000001800682f0     sf_runtime:sf_runtime.dll
 0002:000002f8       __imp_callMdlMethodAndReportError 00000001800682f8     sf_runtime:sf_runtime.dll
 0002:00000300       __imp_sf_debug_set_chart_event_thresholds 0000000180068300     sf_runtime:sf_runtime.dll
 0002:00000308       __imp_sf_debug_set_chart_disable_implicit_casting 0000000180068308     sf_runtime:sf_runtime.dll
 0002:00000310       __imp_sf_debug_set_instance_data_value_ptr 0000000180068310     sf_runtime:sf_runtime.dll
 0002:00000318       __imp_sf_debug_symbol_scope_add_eml_importable 0000000180068318     sf_runtime:sf_runtime.dll
 0002:00000320       __imp_sf_debug_symbol_scope_pop 0000000180068320     sf_runtime:sf_runtime.dll
 0002:00000328       __imp_sf_debug_symbol_scope_push_eml 0000000180068328     sf_runtime:sf_runtime.dll
 0002:00000330       __imp_sf_debug_symbol_scope_push 0000000180068330     sf_runtime:sf_runtime.dll
 0002:00000338       __imp_sf_debug_set_chart_data_compiled_props 0000000180068338     sf_runtime:sf_runtime.dll
 0002:00000340       __imp_sf_debug_set_chart_data_props 0000000180068340     sf_runtime:sf_runtime.dll
 0002:00000348       __imp_sf_debug_animate     0000000180068348     sf_runtime:sf_runtime.dll
 0002:00000350       __imp_sf_get_hasSeparateUpdateOutputs 0000000180068350     sf_runtime:sf_runtime.dll
 0002:00000358       __imp_sf_debug_set_animation 0000000180068358     sf_runtime:sf_runtime.dll
 0002:00000360       __imp_sf_debug_get_animation 0000000180068360     sf_runtime:sf_runtime.dll
 0002:00000368       __imp_sf_debug_set_honor_breakpoints 0000000180068368     sf_runtime:sf_runtime.dll
 0002:00000370       __imp_sf_debug_reset_current_state_configuration 0000000180068370     sf_runtime:sf_runtime.dll
 0002:00000378       __imp_cv_eml_init_relational 0000000180068378     sf_runtime:sf_runtime.dll
 0002:00000380       __imp_cv_eml_init_mcdc     0000000180068380     sf_runtime:sf_runtime.dll
 0002:00000388       __imp_cv_eml_init_if       0000000180068388     sf_runtime:sf_runtime.dll
 0002:00000390       __imp_cv_eml_init_script   0000000180068390     sf_runtime:sf_runtime.dll
 0002:00000398       __imp_sf_get_ChartInfoStruct_CodeGen 0000000180068398     sf_runtime:sf_runtime.dll
 0002:000003a0       __imp_sf_debug_set_chart_state_info 00000001800683a0     sf_runtime:sf_runtime.dll
 0002:000003a8       __imp_sf_mex_sub           00000001800683a8     sf_runtime:sf_runtime.dll
 0002:000003b0       __imp_cv_eval_relational   00000001800683b0     sf_runtime:sf_runtime.dll
 0002:000003b8       __imp_cv_eml_eval          00000001800683b8     sf_runtime:sf_runtime.dll
 0002:000003c0       __imp_ssGetInputPortSignal_wrapper 00000001800683c0     sf_runtime:sf_runtime.dll
 0002:000003c8       __imp_ssGetDWork_wrapper   00000001800683c8     sf_runtime:sf_runtime.dll
 0002:000003d0       __imp_sf_mex_duplicatearraysafe 00000001800683d0     sf_runtime:sf_runtime.dll
 0002:000003d8       __imp_sf_mex_decode_encoded_mx_struct_array 00000001800683d8     sf_runtime:sf_runtime.dll
 0002:000003e0       __imp_sf_mex_import        00000001800683e0     sf_runtime:sf_runtime.dll
 0002:000003e8       __imp_sf_mex_destroy       00000001800683e8     sf_runtime:sf_runtime.dll
 0002:000003f0       __imp_sf_mex_dup           00000001800683f0     sf_runtime:sf_runtime.dll
 0002:000003f8       __imp_sf_mex_assign        00000001800683f8     sf_runtime:sf_runtime.dll
 0002:00000400       __imp_sf_mex_getcell       0000000180068400     sf_runtime:sf_runtime.dll
 0002:00000408       __imp_sf_mex_setcell       0000000180068408     sf_runtime:sf_runtime.dll
 0002:00000410       __imp_sf_mex_createcellmatrix 0000000180068410     sf_runtime:sf_runtime.dll
 0002:00000418       __imp_sf_mex_create        0000000180068418     sf_runtime:sf_runtime.dll
 0002:00000420       __imp_sf_mex_error_message 0000000180068420     sf_runtime:sf_runtime.dll
 0002:00000428       __imp_ssSetBlockIsPurelyCombinatorial_wrapper 0000000180068428     sf_runtime:sf_runtime.dll
 0002:00000430       __imp_sf_register_codegen_names_for_scoped_functions_defined_by_chart 0000000180068430     sf_runtime:sf_runtime.dll
 0002:00000438       __imp_sf_set_chart_accesses_machine_info 0000000180068438     sf_runtime:sf_runtime.dll
 0002:00000440       __imp_setLegacyDebuggerFlagForRuntime 0000000180068440     sf_runtime:sf_runtime.dll
 0002:00000448       __imp_sf_is_first_init_cond 0000000180068448     sf_runtime:sf_runtime.dll
 0002:00000450       __imp_sf_get_time          0000000180068450     sf_runtime:sf_runtime.dll
 0002:00000458       __imp_sf_set_encoded_dwork_info 0000000180068458     sf_runtime:sf_runtime.dll
 0002:00000460       __imp_sf_get_dwork_info_from_mat_file 0000000180068460     sf_runtime:sf_runtime.dll
 0002:00000468       __imp_sf_set_rtw_dwork_info 0000000180068468     sf_runtime:sf_runtime.dll
 0002:00000470       __imp_sf_clear_rtw_identifier 0000000180068470     sf_runtime:sf_runtime.dll
 0002:00000478       __imp_cv_eval_point        0000000180068478     sf_runtime:sf_runtime.dll
 0002:00000480       __imp_sim_mode_is_modelref_sim 0000000180068480     sf_runtime:sf_runtime.dll
 0002:00000488       __imp_sim_mode_is_external 0000000180068488     sf_runtime:sf_runtime.dll
 0002:00000490       __imp_sim_mode_is_rtw_gen  0000000180068490     sf_runtime:sf_runtime.dll
 0002:00000498       __imp_sf_debug_call        0000000180068498     sf_runtime:sf_runtime.dll
 0002:000004a0       __imp_sf_mark_chart_expressionable_inputs 00000001800684a0     sf_runtime:sf_runtime.dll
 0002:000004a8       __imp_sf_mark_chart_reusable_outputs 00000001800684a8     sf_runtime:sf_runtime.dll
 0002:000004b0       __imp_sf_is_chart_inlinable 00000001800684b0     sf_runtime:sf_runtime.dll
 0002:000004b8       __imp_sf_update_buildInfo  00000001800684b8     sf_runtime:sf_runtime.dll
 0002:000004c0       __imp_sf_rtw_info_uint_prop 00000001800684c0     sf_runtime:sf_runtime.dll
 0002:000004c8       __imp_sf_get_chart_instance_ptr 00000001800684c8     sf_runtime:sf_runtime.dll
 0002:000004d0       __imp_sfrtGetEmlrtCtx      00000001800684d0     sf_runtime:sf_runtime.dll
 0002:000004d8       __imp_sf_free_ChartRunTimeInfo 00000001800684d8     sf_runtime:sf_runtime.dll
 0002:000004e0       __imp_sf_init_ChartRunTimeInfo 00000001800684e0     sf_runtime:sf_runtime.dll
 0002:000004e8       __imp_sf_debug_set_machine_data_thresholds 00000001800684e8     sf_runtime:sf_runtime.dll
 0002:000004f0       __imp_sf_debug_set_machine_event_thresholds 00000001800684f0     sf_runtime:sf_runtime.dll
 0002:000004f8       __imp_sf_debug_initialize_machine 00000001800684f8     sf_runtime:sf_runtime.dll
 0002:00000500       __imp_sf_debug_initialize_chart 0000000180068500     sf_runtime:sf_runtime.dll
 0002:00000508       __imp_sf_clear_error_manager_info 0000000180068508     sf_runtime:sf_runtime.dll
 0002:00000510       __imp_sf_load_rtw_optimization_info 0000000180068510     sf_runtime:sf_runtime.dll
 0002:00000518       \177sf_runtime_NULL_THUNK_DATA 0000000180068518     sf_runtime:sf_runtime.dll
 0002:00000520       __guard_check_icall_fptr   0000000180068520     MSVCRT:guard_support.obj
 0002:00000528       __guard_dispatch_icall_fptr 0000000180068528     MSVCRT:guard_support.obj
 0002:00000530       __xc_a                     0000000180068530     MSVCRT:initializers.obj
 0002:00000538       __xc_z                     0000000180068538     MSVCRT:initializers.obj
 0002:00000540       __xi_a                     0000000180068540     MSVCRT:initializers.obj
 0002:00000548       __xi_z                     0000000180068548     MSVCRT:initializers.obj
 0002:00000550       __xp_a                     0000000180068550     MSVCRT:initializers.obj
 0002:00000558       __xp_z                     0000000180068558     MSVCRT:initializers.obj
 0002:00000560       __xt_a                     0000000180068560     MSVCRT:initializers.obj
 0002:00000568       __xt_z                     0000000180068568     MSVCRT:initializers.obj
 0002:00000570       __real@413f797f00000000    0000000180068570     SpeedgoatCANOpen2Buses1ms_sfun.obj
 0002:00000578       __real@4195474b1c000000    0000000180068578     SpeedgoatCANOpen2Buses1ms_sfun.obj
 0002:00000580       __real@41c5b70c5f000000    0000000180068580     SpeedgoatCANOpen2Buses1ms_sfun.obj
 0002:00000588       __real@41c954d125800000    0000000180068588     SpeedgoatCANOpen2Buses1ms_sfun.obj
 0002:00000590       __real@41d9aa1240c00000    0000000180068590     SpeedgoatCANOpen2Buses1ms_sfun.obj
 0002:00000598       __real@41dd9f4812800000    0000000180068598     SpeedgoatCANOpen2Buses1ms_sfun.obj
 0002:000005a0       __real@41dff01bb8400000    00000001800685a0     SpeedgoatCANOpen2Buses1ms_sfun.obj
 0002:000005a8       __real@41e08e38bae00000    00000001800685a8     SpeedgoatCANOpen2Buses1ms_sfun.obj
 0002:000005b0       __real@41ea1e8465600000    00000001800685b0     SpeedgoatCANOpen2Buses1ms_sfun.obj
 0002:000005b8       __real@41ed51f363200000    00000001800685b8     SpeedgoatCANOpen2Buses1ms_sfun.obj
 0002:000005c0       __real@41eec387a1800000    00000001800685c0     SpeedgoatCANOpen2Buses1ms_sfun.obj
 0002:000005c8       __real@41eefe992e000000    00000001800685c8     SpeedgoatCANOpen2Buses1ms_sfun.obj
 0002:000005d0       __real@3f800000            00000001800685d0     c1_SpeedgoatCANOpen2Buses1ms.obj
 0002:000005d8       __real@3ff0000000000000    00000001800685d8     c1_SpeedgoatCANOpen2Buses1ms.obj
 0002:000005e0       __real@40000000            00000001800685e0     c1_SpeedgoatCANOpen2Buses1ms.obj
 0002:000005e8       __real@4022000000000000    00000001800685e8     c1_SpeedgoatCANOpen2Buses1ms.obj
 0002:000005f0       __real@4034000000000000    00000001800685f0     c1_SpeedgoatCANOpen2Buses1ms.obj
 0002:000005f8       __real@40400000            00000001800685f8     c1_SpeedgoatCANOpen2Buses1ms.obj
 0002:00000600       __real@40af400000000000    0000000180068600     c1_SpeedgoatCANOpen2Buses1ms.obj
 0002:00000608       __real@41a00000            0000000180068608     c1_SpeedgoatCANOpen2Buses1ms.obj
 0002:00000610       __real@41ab7ac600000000    0000000180068610     c1_SpeedgoatCANOpen2Buses1ms.obj
 0002:00000618       __real@41d9558585000000    0000000180068618     c1_SpeedgoatCANOpen2Buses1ms.obj
 0002:00000620       __real@41da6c1cc0800000    0000000180068620     c1_SpeedgoatCANOpen2Buses1ms.obj
 0002:00000628       __real@41e4578891600000    0000000180068628     c1_SpeedgoatCANOpen2Buses1ms.obj
 0002:00000630       __real@457a0000            0000000180068630     c1_SpeedgoatCANOpen2Buses1ms.obj
 0002:00000638       __real@41a45789c0000000    0000000180068638     c2_SpeedgoatCANOpen2Buses1ms.obj
 0002:00000640       __real@41d551980b400000    0000000180068640     c2_SpeedgoatCANOpen2Buses1ms.obj
 0002:00000648       __real@41ed637987c00000    0000000180068648     c2_SpeedgoatCANOpen2Buses1ms.obj
 0002:00000650       __real@41ef6e64f4e00000    0000000180068650     c2_SpeedgoatCANOpen2Buses1ms.obj
 0002:00000658       __real@40c3880000000000    0000000180068658     c3_SpeedgoatCANOpen2Buses1ms.obj
 0002:00000660       __real@40c7700000000000    0000000180068660     c3_SpeedgoatCANOpen2Buses1ms.obj
 0002:00000668       __real@41a18494c0000000    0000000180068668     c3_SpeedgoatCANOpen2Buses1ms.obj
 0002:00000670       __real@41c593d6a9000000    0000000180068670     c3_SpeedgoatCANOpen2Buses1ms.obj
 0002:00000678       __real@41d608dd2b400000    0000000180068678     c3_SpeedgoatCANOpen2Buses1ms.obj
 0002:00000680       __real@41e32d525c600000    0000000180068680     c3_SpeedgoatCANOpen2Buses1ms.obj
 0002:00000688       __real@461c4000            0000000180068688     c3_SpeedgoatCANOpen2Buses1ms.obj
 0002:0000068c       __real@462be000            000000018006868c     c3_SpeedgoatCANOpen2Buses1ms.obj
 0002:00000690       __real@c0c7700000000000    0000000180068690     c3_SpeedgoatCANOpen2Buses1ms.obj
 0002:00000698       __real@4018000000000000    0000000180068698     c4_SpeedgoatCANOpen2Buses1ms.obj
 0002:000006a0       __real@401c000000000000    00000001800686a0     c4_SpeedgoatCANOpen2Buses1ms.obj
 0002:000006a8       __real@40c00000            00000001800686a8     c4_SpeedgoatCANOpen2Buses1ms.obj
 0002:000006ac       __real@40e00000            00000001800686ac     c4_SpeedgoatCANOpen2Buses1ms.obj
 0002:000006b0       __real@41747f04f0000000    00000001800686b0     c4_SpeedgoatCANOpen2Buses1ms.obj
 0002:000006b8       __real@41e9b21e8f800000    00000001800686b8     c4_SpeedgoatCANOpen2Buses1ms.obj
 0002:000006c0       __real@41ec90376da00000    00000001800686c0     c4_SpeedgoatCANOpen2Buses1ms.obj
 0002:000006c8       __real@41ee304932a00000    00000001800686c8     c4_SpeedgoatCANOpen2Buses1ms.obj
 0002:000006d0       __real@0000000000000000    00000001800686d0     c5_SpeedgoatCANOpen2Buses1ms.obj
 0002:000006d8       __real@3fa999999999999a    00000001800686d8     c5_SpeedgoatCANOpen2Buses1ms.obj
 0002:000006e0       __real@4197c0b7a0000000    00000001800686e0     c5_SpeedgoatCANOpen2Buses1ms.obj
 0002:000006e8       __real@41d948d464800000    00000001800686e8     c5_SpeedgoatCANOpen2Buses1ms.obj
 0002:000006f0       __real@41e61bdc94400000    00000001800686f0     c5_SpeedgoatCANOpen2Buses1ms.obj
 0002:000006f8       __real@41ecd22dcb200000    00000001800686f8     c5_SpeedgoatCANOpen2Buses1ms.obj
 0002:00000700       __real@4024000000000000    0000000180068700     c10_SpeedgoatCANOpen2Buses1ms.obj
 0002:00000708       __real@41e60b7451a00000    0000000180068708     c10_SpeedgoatCANOpen2Buses1ms.obj
 0002:00000710       __real@41e8257697800000    0000000180068710     c10_SpeedgoatCANOpen2Buses1ms.obj
 0002:00000718       __real@41eb5f409a800000    0000000180068718     c10_SpeedgoatCANOpen2Buses1ms.obj
 0002:00000720       __real@41ee07c16d200000    0000000180068720     c10_SpeedgoatCANOpen2Buses1ms.obj
 0002:00000730       __xmm@80000000000000008000000000000000 0000000180068730     c10_SpeedgoatCANOpen2Buses1ms.obj
 0002:00000740       __real@41b37ef14d000000    0000000180068740     c12_SpeedgoatCANOpen2Buses1ms.obj
 0002:00000748       __real@41d89b5ea8400000    0000000180068748     c12_SpeedgoatCANOpen2Buses1ms.obj
 0002:00000750       __real@41ed694056400000    0000000180068750     c12_SpeedgoatCANOpen2Buses1ms.obj
 0002:00000758       __real@41ef0476f6e00000    0000000180068758     c12_SpeedgoatCANOpen2Buses1ms.obj
 0002:00000760       __real@4008000000000000    0000000180068760     c13_SpeedgoatCANOpen2Buses1ms.obj
 0002:00000768       __real@4059000000000000    0000000180068768     c13_SpeedgoatCANOpen2Buses1ms.obj
 0002:00000770       __real@41acd22974000000    0000000180068770     c13_SpeedgoatCANOpen2Buses1ms.obj
 0002:00000778       __real@41c436e083800000    0000000180068778     c13_SpeedgoatCANOpen2Buses1ms.obj
 0002:00000780       __real@41e0371e1f800000    0000000180068780     c13_SpeedgoatCANOpen2Buses1ms.obj
 0002:00000788       __real@41e593c0c1600000    0000000180068788     c13_SpeedgoatCANOpen2Buses1ms.obj
 0002:00000790       __real@c024000000000000    0000000180068790     c13_SpeedgoatCANOpen2Buses1ms.obj
 0002:00000798       __real@c059000000000000    0000000180068798     c13_SpeedgoatCANOpen2Buses1ms.obj
 0002:000007a0       __real@c0c3880000000000    00000001800687a0     c13_SpeedgoatCANOpen2Buses1ms.obj
 0002:000007a8       DYNAMIC_DIMENSION_DEF      00000001800687a8     SpeedgoatCANOpen2Buses1ms_sfun_registry.obj
 0002:000007c0       __real@4010000000000000    00000001800687c0     SpeedgoatCANOpen2Buses1ms_sfun_registry.obj
 0002:000007c8       __real@41602cbca0000000    00000001800687c8     SpeedgoatCANOpen2Buses1ms_sfun_registry.obj
 0002:000007d0       __real@bff0000000000000    00000001800687d0     SpeedgoatCANOpen2Buses1ms_sfun_registry.obj
 0002:000007e8       _pDefaultRawDllMain        00000001800687e8     MSVCRT:dll_dllmain.obj
 0002:000007e8       _pRawDllMain               00000001800687e8     MSVCRT:dll_dllmain.obj
 0002:00000810       _load_config_used          0000000180068810     MSVCRT:loadcfg.obj
 0002:00000b28       __rtc_iaa                  0000000180068b28     MSVCRT:initsect.obj
 0002:00000b30       __rtc_izz                  0000000180068b30     MSVCRT:initsect.obj
 0002:00000b38       __rtc_taa                  0000000180068b38     MSVCRT:initsect.obj
 0002:00000b40       __rtc_tzz                  0000000180068b40     MSVCRT:initsect.obj
 0002:00002728       __IMPORT_DESCRIPTOR_sf_runtime 000000018006a728     sf_runtime:sf_runtime.dll
 0002:0000273c       __IMPORT_DESCRIPTOR_libmx  000000018006a73c     libmx:libmx.dll
 0002:00002750       __IMPORT_DESCRIPTOR_libmex 000000018006a750     libmex:libmex.dll
 0002:00002764       __IMPORT_DESCRIPTOR_libut  000000018006a764     libut:libut.dll
 0002:00002778       __IMPORT_DESCRIPTOR_libmwsl_sfcn_cov_bridge 000000018006a778     libmwsl_sfcn_cov_bridge:libmwsl_sfcn_cov_bridge.dll
 0002:0000278c       __IMPORT_DESCRIPTOR_KERNEL32 000000018006a78c     kernel32:KERNEL32.dll
 0002:000027a0       __IMPORT_DESCRIPTOR_VCRUNTIME140 000000018006a7a0     vcruntime:VCRUNTIME140.dll
 0002:000027b4       __IMPORT_DESCRIPTOR_api-ms-win-crt-string-l1-1-0 000000018006a7b4     ucrt:api-ms-win-crt-string-l1-1-0.dll
 0002:000027c8       __IMPORT_DESCRIPTOR_api-ms-win-crt-stdio-l1-1-0 000000018006a7c8     ucrt:api-ms-win-crt-stdio-l1-1-0.dll
 0002:000027dc       __IMPORT_DESCRIPTOR_api-ms-win-crt-heap-l1-1-0 000000018006a7dc     ucrt:api-ms-win-crt-heap-l1-1-0.dll
 0002:000027f0       __IMPORT_DESCRIPTOR_api-ms-win-crt-runtime-l1-1-0 000000018006a7f0     ucrt:api-ms-win-crt-runtime-l1-1-0.dll
 0002:00002804       __NULL_IMPORT_DESCRIPTOR   000000018006a804     sf_runtime:sf_runtime.dll
 0003:0000a590       DYNAMIC_DIMENSION          0000000180076590     SpeedgoatCANOpen2Buses1ms_sfun_registry.obj
 0003:0000ca00       __security_cookie_complement 0000000180078a00     MSVCRT:gs_cookie.obj
 0003:0000ca08       __security_cookie          0000000180078a08     MSVCRT:gs_cookie.obj
 0003:0000ca10       _fltused                   0000000180078a10     MSVCRT:fltused.obj
 0003:0000ca14       __scrt_native_dllmain_reason 0000000180078a14     MSVCRT:utility.obj
 0003:0000ca18       __isa_available            0000000180078a18     MSVCRT:cpu_disp.obj
 0003:0000ca1c       __isa_enabled              0000000180078a1c     MSVCRT:cpu_disp.obj
 0003:0000ca20       __memcpy_nt_iters          0000000180078a20     MSVCRT:cpu_disp.obj
 0003:0000ca30       __scrt_ucrt_dll_is_in_use  0000000180078a30     MSVCRT:ucrt_stubs.obj
 0003:0000cb00       sfGlobalDebugInstanceStruct 0000000180078b00     SpeedgoatCANOpen2Buses1ms_sfun_registry.obj
 0003:0000d090       ?__type_info_root_node@@3U__type_info_node@@A 0000000180079090     MSVCRT:tncleanup.obj
 0003:0000d0a0       ?_OptionsStorage@?1??__local_stdio_printf_options@@9@4_KA 00000001800790a0     MSVCRT:default_local_stdio_options.obj
 0003:0000d0a8       ?_OptionsStorage@?1??__local_stdio_scanf_options@@9@4_KA 00000001800790a8     MSVCRT:default_local_stdio_options.obj
 0003:0000d0b0       __scrt_current_native_startup_state 00000001800790b0     MSVCRT:utility.obj
 0003:0000d0b8       __scrt_native_startup_lock 00000001800790b8     MSVCRT:utility.obj
 0003:0000d0f8       __scrt_debugger_hook_flag  00000001800790f8     MSVCRT:utility_desktop.obj
 0003:0000d0fc       __favor                    00000001800790fc     MSVCRT:cpu_disp.obj
 0003:0000d100       ?_OptionsStorage@?1??__local_stdio_printf_options@@9@9 0000000180079100     <common>
 0003:0000d108       _SpeedgoatCANOpen2Buses1msMachineNumber_ 0000000180079108     <common>
 0003:0000d110       gRxCAN_APT                 0000000180079110     <common>
 0003:0000d120       can_rx_queue_APT           0000000180079120     <common>
 0003:0000d188       gRxCAN                     0000000180079188     <common>
 0003:0000d1a0       can_rx_queue               00000001800791a0     <common>
 0003:0000d268       __dyn_tls_init_callback    0000000180079268     <common>

 entry point at        0001:00065448

 Static symbols

 0000:00000000       .debug$S                   0000000180000000     libmx:libmx.dll
 0000:00000000       .debug$S                   0000000180000000     sf_runtime:sf_runtime.dll
 0000:00000000       .debug$S                   0000000180000000     sf_runtime:sf_runtime.dll
 0000:00000000       .debug$S                   0000000180000000     sf_runtime:sf_runtime.dll
 0000:00000000       .debug$S                   0000000180000000     sf_runtime:sf_runtime.dll
 0000:00000000       .debug$S                   0000000180000000     sf_runtime:sf_runtime.dll
 0000:00000000       .debug$S                   0000000180000000     SpeedgoatCANOpen2Buses1ms_sfun.exp
 0000:00000000       .debug$S                   0000000180000000     sf_runtime:sf_runtime.dll
 0000:00000000       .debug$S                   0000000180000000     sf_runtime:sf_runtime.dll
 0000:00000000       .debug$S                   0000000180000000     sf_runtime:sf_runtime.dll
 0000:00000000       .debug$S                   0000000180000000     sf_runtime:sf_runtime.dll
 0000:00000000       .debug$S                   0000000180000000     sf_runtime:sf_runtime.dll
 0000:00000000       .debug$S                   0000000180000000     ucrt:api-ms-win-crt-runtime-l1-1-0.dll
 0000:00000000       .debug$S                   0000000180000000     ucrt:api-ms-win-crt-runtime-l1-1-0.dll
 0000:00000000       .debug$S                   0000000180000000     ucrt:api-ms-win-crt-runtime-l1-1-0.dll
 0000:00000000       .debug$S                   0000000180000000     ucrt:api-ms-win-crt-runtime-l1-1-0.dll
 0000:00000000       .debug$S                   0000000180000000     ucrt:api-ms-win-crt-runtime-l1-1-0.dll
 0000:00000000       .debug$S                   0000000180000000     ucrt:api-ms-win-crt-runtime-l1-1-0.dll
 0000:00000000       .debug$S                   0000000180000000     ucrt:api-ms-win-crt-runtime-l1-1-0.dll
 0000:00000000       .debug$S                   0000000180000000     ucrt:api-ms-win-crt-runtime-l1-1-0.dll
 0000:00000000       .debug$S                   0000000180000000     ucrt:api-ms-win-crt-runtime-l1-1-0.dll
 0000:00000000       .debug$S                   0000000180000000     ucrt:api-ms-win-crt-runtime-l1-1-0.dll
 0000:00000000       .debug$S                   0000000180000000     ucrt:api-ms-win-crt-runtime-l1-1-0.dll
 0000:00000000       .debug$S                   0000000180000000     ucrt:api-ms-win-crt-runtime-l1-1-0.dll
 0000:00000000       .debug$S                   0000000180000000     ucrt:api-ms-win-crt-string-l1-1-0.dll
 0000:00000000       .debug$S                   0000000180000000     ucrt:api-ms-win-crt-heap-l1-1-0.dll
 0000:00000000       .debug$S                   0000000180000000     ucrt:api-ms-win-crt-heap-l1-1-0.dll
 0000:00000000       .debug$S                   0000000180000000     ucrt:api-ms-win-crt-stdio-l1-1-0.dll
 0000:00000000       .debug$S                   0000000180000000     ucrt:api-ms-win-crt-string-l1-1-0.dll
 0000:00000000       .debug$S                   0000000180000000     sf_runtime:sf_runtime.dll
 0000:00000000       .debug$S                   0000000180000000     vcruntime:VCRUNTIME140.dll
 0000:00000000       .debug$S                   0000000180000000     vcruntime:VCRUNTIME140.dll
 0000:00000000       .debug$S                   0000000180000000     vcruntime:VCRUNTIME140.dll
 0000:00000000       .debug$S                   0000000180000000     vcruntime:VCRUNTIME140.dll
 0000:00000000       .debug$S                   0000000180000000     sf_runtime:sf_runtime.dll
 0000:00000000       .debug$S                   0000000180000000     kernel32:KERNEL32.dll
 0000:00000000       .debug$S                   0000000180000000     kernel32:KERNEL32.dll
 0000:00000000       .debug$S                   0000000180000000     kernel32:KERNEL32.dll
 0000:00000000       .debug$S                   0000000180000000     kernel32:KERNEL32.dll
 0000:00000000       .debug$S                   0000000180000000     kernel32:KERNEL32.dll
 0000:00000000       .debug$S                   0000000180000000     kernel32:KERNEL32.dll
 0000:00000000       .debug$S                   0000000180000000     kernel32:KERNEL32.dll
 0000:00000000       .debug$S                   0000000180000000     kernel32:KERNEL32.dll
 0000:00000000       .debug$S                   0000000180000000     kernel32:KERNEL32.dll
 0000:00000000       .debug$S                   0000000180000000     kernel32:KERNEL32.dll
 0000:00000000       .debug$S                   0000000180000000     kernel32:KERNEL32.dll
 0000:00000000       .debug$S                   0000000180000000     kernel32:KERNEL32.dll
 0000:00000000       .debug$S                   0000000180000000     kernel32:KERNEL32.dll
 0000:00000000       .debug$S                   0000000180000000     kernel32:KERNEL32.dll
 0000:00000000       .debug$S                   0000000180000000     kernel32:KERNEL32.dll
 0000:00000000       .debug$S                   0000000180000000     kernel32:KERNEL32.dll
 0000:00000000       .debug$S                   0000000180000000     kernel32:KERNEL32.dll
 0000:00000000       .debug$S                   0000000180000000     sf_runtime:sf_runtime.dll
 0000:00000000       .debug$S                   0000000180000000     sf_runtime:sf_runtime.dll
 0000:00000000       .debug$S                   0000000180000000     sf_runtime:sf_runtime.dll
 0000:00000000       .debug$S                   0000000180000000     sf_runtime:sf_runtime.dll
 0002:fff98000       __guard_fids__guard_icall_checks_enforced 0000000180000000     MSVCRT:guard_support.obj
 0002:fff98000       __guard_fids__             0000000180000000     MSVCRT:guard_support.obj
 0000:00000000       .debug$S                   0000000180000000     sf_runtime:sf_runtime.dll
 0000:00000000       .debug$S                   0000000180000000     sf_runtime:sf_runtime.dll
 0000:00000000       .debug$S                   0000000180000000     sf_runtime:sf_runtime.dll
 0000:00000000       .debug$S                   0000000180000000     sf_runtime:sf_runtime.dll
 0000:00000000       .debug$S                   0000000180000000     sf_runtime:sf_runtime.dll
 0000:00000000       .debug$S                   0000000180000000     sf_runtime:sf_runtime.dll
 0000:00000000       .debug$S                   0000000180000000     sf_runtime:sf_runtime.dll
 0000:00000000       .debug$S                   0000000180000000     sf_runtime:sf_runtime.dll
 0002:fff98000       __guard_fids___scrt_set_unhandled_exception_filter 0000000180000000     MSVCRT:utility_desktop.obj
 0000:00000000       .debug$S                   0000000180000000     sf_runtime:sf_runtime.dll
 0000:00000000       .debug$S                   0000000180000000     sf_runtime:sf_runtime.dll
 0000:00000000       .debug$S                   0000000180000000     sf_runtime:sf_runtime.dll
 0000:00000000       .debug$S                   0000000180000000     sf_runtime:sf_runtime.dll
 0000:00000000       .debug$S                   0000000180000000     sf_runtime:sf_runtime.dll
 0000:00000000       .debug$S                   0000000180000000     sf_runtime:sf_runtime.dll
 0000:00000000       .debug$S                   0000000180000000     sf_runtime:sf_runtime.dll
 0000:00000000       .debug$S                   0000000180000000     sf_runtime:sf_runtime.dll
 0000:00000000       .debug$S                   0000000180000000     sf_runtime:sf_runtime.dll
 0000:00000000       .debug$S                   0000000180000000     sf_runtime:sf_runtime.dll
 0000:00000000       .debug$S                   0000000180000000     sf_runtime:sf_runtime.dll
 0000:00000000       .debug$S                   0000000180000000     sf_runtime:sf_runtime.dll
 0000:00000000       .debug$S                   0000000180000000     sf_runtime:sf_runtime.dll
 0000:00000000       .debug$S                   0000000180000000     sf_runtime:sf_runtime.dll
 0000:00000000       .debug$S                   0000000180000000     sf_runtime:sf_runtime.dll
 0000:00000000       .debug$S                   0000000180000000     sf_runtime:sf_runtime.dll
 0000:00000000       .debug$S                   0000000180000000     sf_runtime:sf_runtime.dll
 0000:00000000       .debug$S                   0000000180000000     sf_runtime:sf_runtime.dll
 0000:00000000       .debug$S                   0000000180000000     sf_runtime:sf_runtime.dll
 0000:00000000       .debug$S                   0000000180000000     sf_runtime:sf_runtime.dll
 0000:00000000       .debug$S                   0000000180000000     sf_runtime:sf_runtime.dll
 0000:00000000       .debug$S                   0000000180000000     sf_runtime:sf_runtime.dll
 0000:00000000       .debug$S                   0000000180000000     sf_runtime:sf_runtime.dll
 0000:00000000       .debug$S                   0000000180000000     sf_runtime:sf_runtime.dll
 0000:00000000       .debug$S                   0000000180000000     sf_runtime:sf_runtime.dll
 0000:00000000       .debug$S                   0000000180000000     sf_runtime:sf_runtime.dll
 0000:00000000       .debug$S                   0000000180000000     sf_runtime:sf_runtime.dll
 0000:00000000       .debug$S                   0000000180000000     sf_runtime:sf_runtime.dll
 0000:00000000       .debug$S                   0000000180000000     sf_runtime:sf_runtime.dll
 0000:00000000       .debug$S                   0000000180000000     sf_runtime:sf_runtime.dll
 0000:00000000       .debug$S                   0000000180000000     sf_runtime:sf_runtime.dll
 0000:00000000       .debug$S                   0000000180000000     sf_runtime:sf_runtime.dll
 0000:00000000       .debug$S                   0000000180000000     sf_runtime:sf_runtime.dll
 0000:00000000       .debug$S                   0000000180000000     sf_runtime:sf_runtime.dll
 0000:00000000       .debug$S                   0000000180000000     sf_runtime:sf_runtime.dll
 0000:00000000       .debug$S                   0000000180000000     sf_runtime:sf_runtime.dll
 0000:00000000       .debug$S                   0000000180000000     sf_runtime:sf_runtime.dll
 0000:00000000       .debug$S                   0000000180000000     sf_runtime:sf_runtime.dll
 0000:00000000       .debug$S                   0000000180000000     sf_runtime:sf_runtime.dll
 0000:00000000       .debug$S                   0000000180000000     sf_runtime:sf_runtime.dll
 0000:00000000       .debug$S                   0000000180000000     sf_runtime:sf_runtime.dll
 0000:00000000       .debug$S                   0000000180000000     sf_runtime:sf_runtime.dll
 0000:00000000       .debug$S                   0000000180000000     sf_runtime:sf_runtime.dll
 0000:00000000       .debug$S                   0000000180000000     sf_runtime:sf_runtime.dll
 0000:00000000       .debug$S                   0000000180000000     sf_runtime:sf_runtime.dll
 0000:00000000       .debug$S                   0000000180000000     sf_runtime:sf_runtime.dll
 0000:00000000       .debug$S                   0000000180000000     sf_runtime:sf_runtime.dll
 0000:00000000       .debug$S                   0000000180000000     sf_runtime:sf_runtime.dll
 0000:00000000       .debug$S                   0000000180000000     sf_runtime:sf_runtime.dll
 0000:00000000       .debug$S                   0000000180000000     sf_runtime:sf_runtime.dll
 0000:00000000       .debug$S                   0000000180000000     sf_runtime:sf_runtime.dll
 0000:00000000       .debug$S                   0000000180000000     sf_runtime:sf_runtime.dll
 0000:00000000       .debug$S                   0000000180000000     sf_runtime:sf_runtime.dll
 0000:00000000       .debug$S                   0000000180000000     sf_runtime:sf_runtime.dll
 0000:00000000       .debug$S                   0000000180000000     sf_runtime:sf_runtime.dll
 0000:00000000       .debug$S                   0000000180000000     sf_runtime:sf_runtime.dll
 0000:00000000       .debug$S                   0000000180000000     sf_runtime:sf_runtime.dll
 0000:00000000       .debug$S                   0000000180000000     sf_runtime:sf_runtime.dll
 0000:00000000       .debug$S                   0000000180000000     sf_runtime:sf_runtime.dll
 0000:00000000       .debug$S                   0000000180000000     sf_runtime:sf_runtime.dll
 0000:00000000       .debug$S                   0000000180000000     sf_runtime:sf_runtime.dll
 0002:fff98000       __guard_fids_?dllmain_dispatch@@YAHQEAUHINSTANCE__@@KQEAX@Z 0000000180000000     MSVCRT:dll_dllmain.obj
 0000:00000000       .debug$S                   0000000180000000     libmx:libmx.dll
 0000:00000000       .debug$S                   0000000180000000     libmx:libmx.dll
 0000:00000000       .debug$S                   0000000180000000     libmx:libmx.dll
 0000:00000000       .debug$S                   0000000180000000     libmx:libmx.dll
 0000:00000000       .debug$S                   0000000180000000     libmx:libmx.dll
 0000:00000000       .debug$S                   0000000180000000     libmx:libmx.dll
 0000:00000000       .debug$S                   0000000180000000     libmx:libmx.dll
 0000:00000000       .debug$S                   0000000180000000     libmx:libmx.dll
 0000:00000000       .debug$S                   0000000180000000     libmx:libmx.dll
 0000:00000000       .debug$S                   0000000180000000     libmx:libmx.dll
 0000:00000000       .debug$S                   0000000180000000     libut:libut.dll
 0000:00000000       .debug$S                   0000000180000000     libmx:libmx.dll
 0000:00000000       .debug$S                   0000000180000000     libmx:libmx.dll
 0000:00000000       .debug$S                   0000000180000000     libmx:libmx.dll
 0000:00000000       .debug$S                   0000000180000000     libmx:libmx.dll
 0000:00000000       .debug$S                   0000000180000000     libmx:libmx.dll
 0000:00000000       .debug$S                   0000000180000000     libmx:libmx.dll
 0000:00000000       .debug$S                   0000000180000000     libmx:libmx.dll
 0000:00000000       .debug$S                   0000000180000000     libmx:libmx.dll
 0000:00000000       .debug$S                   0000000180000000     libmx:libmx.dll
 0000:00000000       .debug$S                   0000000180000000     libmex:libmex.dll
 0000:00000000       .debug$S                   0000000180000000     libmex:libmex.dll
 0000:00000000       .debug$S                   0000000180000000     libmex:libmex.dll
 0000:00000000       .debug$S                   0000000180000000     libmex:libmex.dll
 0000:00000000       .debug$S                   0000000180000000     libmex:libmex.dll
 0000:00000000       .debug$S                   0000000180000000     libmex:libmex.dll
 0000:00000000       .debug$S                   0000000180000000     libmex:libmex.dll
 0000:00000000       .debug$S                   0000000180000000     libut:libut.dll
 0000:00000000       .debug$S                   0000000180000000     libmwsl_sfcn_cov_bridge:libmwsl_sfcn_cov_bridge.dll
 0001:000005e4       $LN25                      00000001800015e4     SpeedgoatCANOpen2Buses1ms_sfun.obj
 0001:00000be4       $LN32                      0000000180001be4     SpeedgoatCANOpen2Buses1ms_sfun.obj
 0001:000011c8       $LN35                      00000001800021c8     SpeedgoatCANOpen2Buses1ms_sfun.obj
 0001:00001754       $LN35                      0000000180002754     SpeedgoatCANOpen2Buses1ms_sfun.obj
 0001:00001b98       $LN35                      0000000180002b98     SpeedgoatCANOpen2Buses1ms_sfun.obj
 0001:00001fd8       $LN35                      0000000180002fd8     SpeedgoatCANOpen2Buses1ms_sfun.obj
 0001:00002418       $LN35                      0000000180003418     SpeedgoatCANOpen2Buses1ms_sfun.obj
 0001:000026c0       chart_debug_initialization 00000001800036c0 f   c1_SpeedgoatCANOpen2Buses1ms.obj
 0001:00004540       chart_debug_initialize_data_addresses 0000000180005540 f   c1_SpeedgoatCANOpen2Buses1ms.obj
 0001:00004850       sf_opaque_get_hover_data_for_msg 0000000180005850 f   c1_SpeedgoatCANOpen2Buses1ms.obj
 0001:00004880       initialize_c1_SpeedgoatCANOpen2Buses1ms 0000000180005880 f   c1_SpeedgoatCANOpen2Buses1ms.obj
 0001:00004940       initialize_params_c1_SpeedgoatCANOpen2Buses1ms 0000000180005940 f   c1_SpeedgoatCANOpen2Buses1ms.obj
 0001:00004950       enable_c1_SpeedgoatCANOpen2Buses1ms 0000000180005950 f   c1_SpeedgoatCANOpen2Buses1ms.obj
 0001:00004980       disable_c1_SpeedgoatCANOpen2Buses1ms 0000000180005980 f   c1_SpeedgoatCANOpen2Buses1ms.obj
 0001:000049b0       c1_update_debugger_state_c1_SpeedgoatCANOpen2Buses1ms 00000001800059b0 f   c1_SpeedgoatCANOpen2Buses1ms.obj
 0001:00004fd0       ext_mode_exec_c1_SpeedgoatCANOpen2Buses1ms 0000000180005fd0 f   c1_SpeedgoatCANOpen2Buses1ms.obj
 0001:00004ff0       get_sim_state_c1_SpeedgoatCANOpen2Buses1ms 0000000180005ff0 f   c1_SpeedgoatCANOpen2Buses1ms.obj
 0001:000055f0       set_sim_state_c1_SpeedgoatCANOpen2Buses1ms 00000001800065f0 f   c1_SpeedgoatCANOpen2Buses1ms.obj
 0001:00005920       c1_set_sim_state_side_effects_c1_SpeedgoatCANOpen2Buses1ms 0000000180006920 f   c1_SpeedgoatCANOpen2Buses1ms.obj
 0001:00005950       finalize_c1_SpeedgoatCANOpen2Buses1ms 0000000180006950 f   c1_SpeedgoatCANOpen2Buses1ms.obj
 0001:00005980       sf_gateway_c1_SpeedgoatCANOpen2Buses1ms 0000000180006980 f   c1_SpeedgoatCANOpen2Buses1ms.obj
 0001:00005b30       mdl_start_c1_SpeedgoatCANOpen2Buses1ms 0000000180006b30 f   c1_SpeedgoatCANOpen2Buses1ms.obj
 0001:00005b60       c1_chartstep_c1_SpeedgoatCANOpen2Buses1ms 0000000180006b60 f   c1_SpeedgoatCANOpen2Buses1ms.obj
 0001:00008d70       initSimStructsc1_SpeedgoatCANOpen2Buses1ms 0000000180009d70 f   c1_SpeedgoatCANOpen2Buses1ms.obj
 0001:00008d80       c1_enter_atomic_Init       0000000180009d80 f   c1_SpeedgoatCANOpen2Buses1ms.obj
 0001:000090e0       c1_enter_atomic_Wait       000000018000a0e0 f   c1_SpeedgoatCANOpen2Buses1ms.obj
 0001:00009340       init_script_number_translation 000000018000a340 f   c1_SpeedgoatCANOpen2Buses1ms.obj
 0001:00009360       c1_sf_marshallOut          000000018000a360 f   c1_SpeedgoatCANOpen2Buses1ms.obj
 0001:00009410       c1_emlrt_marshallIn        000000018000a410 f   c1_SpeedgoatCANOpen2Buses1ms.obj
 0001:000094a0       c1_sf_marshallIn           000000018000a4a0 f   c1_SpeedgoatCANOpen2Buses1ms.obj
 0001:00009550       c1_b_sf_marshallOut        000000018000a550 f   c1_SpeedgoatCANOpen2Buses1ms.obj
 0001:00009600       c1_b_emlrt_marshallIn      000000018000a600 f   c1_SpeedgoatCANOpen2Buses1ms.obj
 0001:00009690       c1_b_sf_marshallIn         000000018000a690 f   c1_SpeedgoatCANOpen2Buses1ms.obj
 0001:00009740       c1_d_sf_marshallOut        000000018000a740 f   c1_SpeedgoatCANOpen2Buses1ms.obj
 0001:00009800       c1_d_emlrt_marshallIn      000000018000a800 f   c1_SpeedgoatCANOpen2Buses1ms.obj
 0001:00009870       c1_e_emlrt_marshallIn      000000018000a870 f   c1_SpeedgoatCANOpen2Buses1ms.obj
 0001:00009900       c1_d_sf_marshallIn         000000018000a900 f   c1_SpeedgoatCANOpen2Buses1ms.obj
 0001:000099b0       c1_f_emlrt_marshallIn      000000018000a9b0 f   c1_SpeedgoatCANOpen2Buses1ms.obj
 0001:00009a20       c1_g_emlrt_marshallIn      000000018000aa20 f   c1_SpeedgoatCANOpen2Buses1ms.obj
 0001:00009ab0       c1_h_emlrt_marshallIn      000000018000aab0 f   c1_SpeedgoatCANOpen2Buses1ms.obj
 0001:00009b20       c1_i_emlrt_marshallIn      000000018000ab20 f   c1_SpeedgoatCANOpen2Buses1ms.obj
 0001:00009c00       c1_j_emlrt_marshallIn      000000018000ac00 f   c1_SpeedgoatCANOpen2Buses1ms.obj
 0001:00009c90       c1_k_emlrt_marshallIn      000000018000ac90 f   c1_SpeedgoatCANOpen2Buses1ms.obj
 0001:00009cf0       sf_get_hover_data_for_msg  000000018000acf0 f   c1_SpeedgoatCANOpen2Buses1ms.obj
 0001:00009d10       c1_init_sf_message_store_memory 000000018000ad10 f   c1_SpeedgoatCANOpen2Buses1ms.obj
 0001:00009d20       init_dsm_address_info      000000018000ad20 f   c1_SpeedgoatCANOpen2Buses1ms.obj
 0001:00009d30       init_simulink_io_address   000000018000ad30 f   c1_SpeedgoatCANOpen2Buses1ms.obj
 0001:00009ec0       sf_get_sfun_dwork_checksum 000000018000aec0 f   c1_SpeedgoatCANOpen2Buses1ms.obj
 0001:0000aef0       sf_get_sim_state_info_c1_SpeedgoatCANOpen2Buses1ms 000000018000bef0 f   c1_SpeedgoatCANOpen2Buses1ms.obj
 0001:0000afc0       sf_get_instance_specialization 000000018000bfc0 f   c1_SpeedgoatCANOpen2Buses1ms.obj
 0001:0000afd0       sf_check_dwork_consistency 000000018000bfd0 f   c1_SpeedgoatCANOpen2Buses1ms.obj
 0001:0000b150       sf_opaque_initialize_c1_SpeedgoatCANOpen2Buses1ms 000000018000c150 f   c1_SpeedgoatCANOpen2Buses1ms.obj
 0001:0000b1a0       sf_opaque_enable_c1_SpeedgoatCANOpen2Buses1ms 000000018000c1a0 f   c1_SpeedgoatCANOpen2Buses1ms.obj
 0001:0000b1c0       sf_opaque_disable_c1_SpeedgoatCANOpen2Buses1ms 000000018000c1c0 f   c1_SpeedgoatCANOpen2Buses1ms.obj
 0001:0000b1e0       sf_opaque_gateway_c1_SpeedgoatCANOpen2Buses1ms 000000018000c1e0 f   c1_SpeedgoatCANOpen2Buses1ms.obj
 0001:0000b200       sf_opaque_ext_mode_exec_c1_SpeedgoatCANOpen2Buses1ms 000000018000c200 f   c1_SpeedgoatCANOpen2Buses1ms.obj
 0001:0000b220       sf_opaque_get_sim_state_c1_SpeedgoatCANOpen2Buses1ms 000000018000c220 f   c1_SpeedgoatCANOpen2Buses1ms.obj
 0001:0000b250       sf_opaque_set_sim_state_c1_SpeedgoatCANOpen2Buses1ms 000000018000c250 f   c1_SpeedgoatCANOpen2Buses1ms.obj
 0001:0000b280       sf_opaque_terminate_c1_SpeedgoatCANOpen2Buses1ms 000000018000c280 f   c1_SpeedgoatCANOpen2Buses1ms.obj
 0001:0000b320       mdlProcessParameters_c1_SpeedgoatCANOpen2Buses1ms 000000018000c320 f   c1_SpeedgoatCANOpen2Buses1ms.obj
 0001:0000b3f0       sf_set_sfun_dwork_info     000000018000c3f0 f   c1_SpeedgoatCANOpen2Buses1ms.obj
 0001:0000b430       mdlSetWorkWidths_c1_SpeedgoatCANOpen2Buses1ms 000000018000c430 f   c1_SpeedgoatCANOpen2Buses1ms.obj
 0001:0000bb60       mdlRTW_c1_SpeedgoatCANOpen2Buses1ms 000000018000cb60 f   c1_SpeedgoatCANOpen2Buses1ms.obj
 0001:0000bba0       mdlStart_c1_SpeedgoatCANOpen2Buses1ms 000000018000cba0 f   c1_SpeedgoatCANOpen2Buses1ms.obj
 0001:0000bfe0       chart_debug_initialization 000000018000cfe0 f   c2_SpeedgoatCANOpen2Buses1ms.obj
 0001:0000de60       chart_debug_initialize_data_addresses 000000018000ee60 f   c2_SpeedgoatCANOpen2Buses1ms.obj
 0001:0000e170       sf_opaque_get_hover_data_for_msg 000000018000f170 f   c2_SpeedgoatCANOpen2Buses1ms.obj
 0001:0000e1a0       initialize_c2_SpeedgoatCANOpen2Buses1ms 000000018000f1a0 f   c2_SpeedgoatCANOpen2Buses1ms.obj
 0001:0000e260       initialize_params_c2_SpeedgoatCANOpen2Buses1ms 000000018000f260 f   c2_SpeedgoatCANOpen2Buses1ms.obj
 0001:0000e270       enable_c2_SpeedgoatCANOpen2Buses1ms 000000018000f270 f   c2_SpeedgoatCANOpen2Buses1ms.obj
 0001:0000e2a0       disable_c2_SpeedgoatCANOpen2Buses1ms 000000018000f2a0 f   c2_SpeedgoatCANOpen2Buses1ms.obj
 0001:0000e2d0       c2_update_debugger_state_c2_SpeedgoatCANOpen2Buses1ms 000000018000f2d0 f   c2_SpeedgoatCANOpen2Buses1ms.obj
 0001:0000e8f0       ext_mode_exec_c2_SpeedgoatCANOpen2Buses1ms 000000018000f8f0 f   c2_SpeedgoatCANOpen2Buses1ms.obj
 0001:0000e910       get_sim_state_c2_SpeedgoatCANOpen2Buses1ms 000000018000f910 f   c2_SpeedgoatCANOpen2Buses1ms.obj
 0001:0000ef10       set_sim_state_c2_SpeedgoatCANOpen2Buses1ms 000000018000ff10 f   c2_SpeedgoatCANOpen2Buses1ms.obj
 0001:0000f240       c2_set_sim_state_side_effects_c2_SpeedgoatCANOpen2Buses1ms 0000000180010240 f   c2_SpeedgoatCANOpen2Buses1ms.obj
 0001:0000f270       finalize_c2_SpeedgoatCANOpen2Buses1ms 0000000180010270 f   c2_SpeedgoatCANOpen2Buses1ms.obj
 0001:0000f2a0       sf_gateway_c2_SpeedgoatCANOpen2Buses1ms 00000001800102a0 f   c2_SpeedgoatCANOpen2Buses1ms.obj
 0001:0000f450       mdl_start_c2_SpeedgoatCANOpen2Buses1ms 0000000180010450 f   c2_SpeedgoatCANOpen2Buses1ms.obj
 0001:0000f480       c2_chartstep_c2_SpeedgoatCANOpen2Buses1ms 0000000180010480 f   c2_SpeedgoatCANOpen2Buses1ms.obj
 0001:00012690       initSimStructsc2_SpeedgoatCANOpen2Buses1ms 0000000180013690 f   c2_SpeedgoatCANOpen2Buses1ms.obj
 0001:000126a0       c2_enter_atomic_Init       00000001800136a0 f   c2_SpeedgoatCANOpen2Buses1ms.obj
 0001:00012a00       c2_enter_atomic_Wait       0000000180013a00 f   c2_SpeedgoatCANOpen2Buses1ms.obj
 0001:00012c60       init_script_number_translation 0000000180013c60 f   c2_SpeedgoatCANOpen2Buses1ms.obj
 0001:00012c80       c2_sf_marshallOut          0000000180013c80 f   c2_SpeedgoatCANOpen2Buses1ms.obj
 0001:00012d30       c2_emlrt_marshallIn        0000000180013d30 f   c2_SpeedgoatCANOpen2Buses1ms.obj
 0001:00012dc0       c2_sf_marshallIn           0000000180013dc0 f   c2_SpeedgoatCANOpen2Buses1ms.obj
 0001:00012e70       c2_b_sf_marshallOut        0000000180013e70 f   c2_SpeedgoatCANOpen2Buses1ms.obj
 0001:00012f20       c2_b_emlrt_marshallIn      0000000180013f20 f   c2_SpeedgoatCANOpen2Buses1ms.obj
 0001:00012fb0       c2_b_sf_marshallIn         0000000180013fb0 f   c2_SpeedgoatCANOpen2Buses1ms.obj
 0001:00013060       c2_d_sf_marshallOut        0000000180014060 f   c2_SpeedgoatCANOpen2Buses1ms.obj
 0001:00013120       c2_d_emlrt_marshallIn      0000000180014120 f   c2_SpeedgoatCANOpen2Buses1ms.obj
 0001:00013190       c2_e_emlrt_marshallIn      0000000180014190 f   c2_SpeedgoatCANOpen2Buses1ms.obj
 0001:00013220       c2_d_sf_marshallIn         0000000180014220 f   c2_SpeedgoatCANOpen2Buses1ms.obj
 0001:000132d0       c2_f_emlrt_marshallIn      00000001800142d0 f   c2_SpeedgoatCANOpen2Buses1ms.obj
 0001:00013340       c2_g_emlrt_marshallIn      0000000180014340 f   c2_SpeedgoatCANOpen2Buses1ms.obj
 0001:000133d0       c2_h_emlrt_marshallIn      00000001800143d0 f   c2_SpeedgoatCANOpen2Buses1ms.obj
 0001:00013440       c2_i_emlrt_marshallIn      0000000180014440 f   c2_SpeedgoatCANOpen2Buses1ms.obj
 0001:00013520       c2_j_emlrt_marshallIn      0000000180014520 f   c2_SpeedgoatCANOpen2Buses1ms.obj
 0001:000135b0       c2_k_emlrt_marshallIn      00000001800145b0 f   c2_SpeedgoatCANOpen2Buses1ms.obj
 0001:00013610       sf_get_hover_data_for_msg  0000000180014610 f   c2_SpeedgoatCANOpen2Buses1ms.obj
 0001:00013630       c2_init_sf_message_store_memory 0000000180014630 f   c2_SpeedgoatCANOpen2Buses1ms.obj
 0001:00013640       init_dsm_address_info      0000000180014640 f   c2_SpeedgoatCANOpen2Buses1ms.obj
 0001:00013650       init_simulink_io_address   0000000180014650 f   c2_SpeedgoatCANOpen2Buses1ms.obj
 0001:000137e0       sf_get_sfun_dwork_checksum 00000001800147e0 f   c2_SpeedgoatCANOpen2Buses1ms.obj
 0001:00014810       sf_get_sim_state_info_c2_SpeedgoatCANOpen2Buses1ms 0000000180015810 f   c2_SpeedgoatCANOpen2Buses1ms.obj
 0001:000148e0       sf_get_instance_specialization 00000001800158e0 f   c2_SpeedgoatCANOpen2Buses1ms.obj
 0001:000148f0       sf_check_dwork_consistency 00000001800158f0 f   c2_SpeedgoatCANOpen2Buses1ms.obj
 0001:00014a70       sf_opaque_initialize_c2_SpeedgoatCANOpen2Buses1ms 0000000180015a70 f   c2_SpeedgoatCANOpen2Buses1ms.obj
 0001:00014ac0       sf_opaque_enable_c2_SpeedgoatCANOpen2Buses1ms 0000000180015ac0 f   c2_SpeedgoatCANOpen2Buses1ms.obj
 0001:00014ae0       sf_opaque_disable_c2_SpeedgoatCANOpen2Buses1ms 0000000180015ae0 f   c2_SpeedgoatCANOpen2Buses1ms.obj
 0001:00014b00       sf_opaque_gateway_c2_SpeedgoatCANOpen2Buses1ms 0000000180015b00 f   c2_SpeedgoatCANOpen2Buses1ms.obj
 0001:00014b20       sf_opaque_ext_mode_exec_c2_SpeedgoatCANOpen2Buses1ms 0000000180015b20 f   c2_SpeedgoatCANOpen2Buses1ms.obj
 0001:00014b40       sf_opaque_get_sim_state_c2_SpeedgoatCANOpen2Buses1ms 0000000180015b40 f   c2_SpeedgoatCANOpen2Buses1ms.obj
 0001:00014b70       sf_opaque_set_sim_state_c2_SpeedgoatCANOpen2Buses1ms 0000000180015b70 f   c2_SpeedgoatCANOpen2Buses1ms.obj
 0001:00014ba0       sf_opaque_terminate_c2_SpeedgoatCANOpen2Buses1ms 0000000180015ba0 f   c2_SpeedgoatCANOpen2Buses1ms.obj
 0001:00014c40       mdlProcessParameters_c2_SpeedgoatCANOpen2Buses1ms 0000000180015c40 f   c2_SpeedgoatCANOpen2Buses1ms.obj
 0001:00014d10       sf_set_sfun_dwork_info     0000000180015d10 f   c2_SpeedgoatCANOpen2Buses1ms.obj
 0001:00014d50       mdlSetWorkWidths_c2_SpeedgoatCANOpen2Buses1ms 0000000180015d50 f   c2_SpeedgoatCANOpen2Buses1ms.obj
 0001:00015480       mdlRTW_c2_SpeedgoatCANOpen2Buses1ms 0000000180016480 f   c2_SpeedgoatCANOpen2Buses1ms.obj
 0001:000154c0       mdlStart_c2_SpeedgoatCANOpen2Buses1ms 00000001800164c0 f   c2_SpeedgoatCANOpen2Buses1ms.obj
 0001:00015900       chart_debug_initialization 0000000180016900 f   c3_SpeedgoatCANOpen2Buses1ms.obj
 0001:00017df0       chart_debug_initialize_data_addresses 0000000180018df0 f   c3_SpeedgoatCANOpen2Buses1ms.obj
 0001:00018150       sf_opaque_get_hover_data_for_msg 0000000180019150 f   c3_SpeedgoatCANOpen2Buses1ms.obj
 0001:00018180       initialize_c3_SpeedgoatCANOpen2Buses1ms 0000000180019180 f   c3_SpeedgoatCANOpen2Buses1ms.obj
 0001:00018240       initialize_params_c3_SpeedgoatCANOpen2Buses1ms 0000000180019240 f   c3_SpeedgoatCANOpen2Buses1ms.obj
 0001:00018250       enable_c3_SpeedgoatCANOpen2Buses1ms 0000000180019250 f   c3_SpeedgoatCANOpen2Buses1ms.obj
 0001:00018280       disable_c3_SpeedgoatCANOpen2Buses1ms 0000000180019280 f   c3_SpeedgoatCANOpen2Buses1ms.obj
 0001:000182b0       c3_update_debugger_state_c3_SpeedgoatCANOpen2Buses1ms 00000001800192b0 f   c3_SpeedgoatCANOpen2Buses1ms.obj
 0001:00018a10       ext_mode_exec_c3_SpeedgoatCANOpen2Buses1ms 0000000180019a10 f   c3_SpeedgoatCANOpen2Buses1ms.obj
 0001:00018a30       get_sim_state_c3_SpeedgoatCANOpen2Buses1ms 0000000180019a30 f   c3_SpeedgoatCANOpen2Buses1ms.obj
 0001:000190c0       set_sim_state_c3_SpeedgoatCANOpen2Buses1ms 000000018001a0c0 f   c3_SpeedgoatCANOpen2Buses1ms.obj
 0001:00019420       c3_set_sim_state_side_effects_c3_SpeedgoatCANOpen2Buses1ms 000000018001a420 f   c3_SpeedgoatCANOpen2Buses1ms.obj
 0001:00019450       finalize_c3_SpeedgoatCANOpen2Buses1ms 000000018001a450 f   c3_SpeedgoatCANOpen2Buses1ms.obj
 0001:00019480       sf_gateway_c3_SpeedgoatCANOpen2Buses1ms 000000018001a480 f   c3_SpeedgoatCANOpen2Buses1ms.obj
 0001:00019630       mdl_start_c3_SpeedgoatCANOpen2Buses1ms 000000018001a630 f   c3_SpeedgoatCANOpen2Buses1ms.obj
 0001:00019660       c3_chartstep_c3_SpeedgoatCANOpen2Buses1ms 000000018001a660 f   c3_SpeedgoatCANOpen2Buses1ms.obj
 0001:0001cf20       initSimStructsc3_SpeedgoatCANOpen2Buses1ms 000000018001df20 f   c3_SpeedgoatCANOpen2Buses1ms.obj
 0001:0001cf30       c3_enter_atomic_Init       000000018001df30 f   c3_SpeedgoatCANOpen2Buses1ms.obj
 0001:0001d3c0       c3_Clear_Error             000000018001e3c0 f   c3_SpeedgoatCANOpen2Buses1ms.obj
 0001:0001dda0       c3_enter_atomic_Wait       000000018001eda0 f   c3_SpeedgoatCANOpen2Buses1ms.obj
 0001:0001e000       init_script_number_translation 000000018001f000 f   c3_SpeedgoatCANOpen2Buses1ms.obj
 0001:0001e020       c3_sf_marshallOut          000000018001f020 f   c3_SpeedgoatCANOpen2Buses1ms.obj
 0001:0001e0d0       c3_emlrt_marshallIn        000000018001f0d0 f   c3_SpeedgoatCANOpen2Buses1ms.obj
 0001:0001e160       c3_sf_marshallIn           000000018001f160 f   c3_SpeedgoatCANOpen2Buses1ms.obj
 0001:0001e210       c3_b_sf_marshallOut        000000018001f210 f   c3_SpeedgoatCANOpen2Buses1ms.obj
 0001:0001e2c0       c3_b_emlrt_marshallIn      000000018001f2c0 f   c3_SpeedgoatCANOpen2Buses1ms.obj
 0001:0001e350       c3_b_sf_marshallIn         000000018001f350 f   c3_SpeedgoatCANOpen2Buses1ms.obj
 0001:0001e400       c3_d_sf_marshallOut        000000018001f400 f   c3_SpeedgoatCANOpen2Buses1ms.obj
 0001:0001e4c0       c3_d_emlrt_marshallIn      000000018001f4c0 f   c3_SpeedgoatCANOpen2Buses1ms.obj
 0001:0001e530       c3_e_emlrt_marshallIn      000000018001f530 f   c3_SpeedgoatCANOpen2Buses1ms.obj
 0001:0001e5c0       c3_d_sf_marshallIn         000000018001f5c0 f   c3_SpeedgoatCANOpen2Buses1ms.obj
 0001:0001e670       c3_f_emlrt_marshallIn      000000018001f670 f   c3_SpeedgoatCANOpen2Buses1ms.obj
 0001:0001e6e0       c3_g_emlrt_marshallIn      000000018001f6e0 f   c3_SpeedgoatCANOpen2Buses1ms.obj
 0001:0001e770       c3_h_emlrt_marshallIn      000000018001f770 f   c3_SpeedgoatCANOpen2Buses1ms.obj
 0001:0001e7e0       c3_i_emlrt_marshallIn      000000018001f7e0 f   c3_SpeedgoatCANOpen2Buses1ms.obj
 0001:0001e8c0       c3_j_emlrt_marshallIn      000000018001f8c0 f   c3_SpeedgoatCANOpen2Buses1ms.obj
 0001:0001e950       c3_k_emlrt_marshallIn      000000018001f950 f   c3_SpeedgoatCANOpen2Buses1ms.obj
 0001:0001e9b0       sf_get_hover_data_for_msg  000000018001f9b0 f   c3_SpeedgoatCANOpen2Buses1ms.obj
 0001:0001e9d0       c3_init_sf_message_store_memory 000000018001f9d0 f   c3_SpeedgoatCANOpen2Buses1ms.obj
 0001:0001e9e0       init_dsm_address_info      000000018001f9e0 f   c3_SpeedgoatCANOpen2Buses1ms.obj
 0001:0001e9f0       init_simulink_io_address   000000018001f9f0 f   c3_SpeedgoatCANOpen2Buses1ms.obj
 0001:0001eba0       sf_get_sfun_dwork_checksum 000000018001fba0 f   c3_SpeedgoatCANOpen2Buses1ms.obj
 0001:0001fd10       sf_get_sim_state_info_c3_SpeedgoatCANOpen2Buses1ms 0000000180020d10 f   c3_SpeedgoatCANOpen2Buses1ms.obj
 0001:0001fdf0       sf_get_instance_specialization 0000000180020df0 f   c3_SpeedgoatCANOpen2Buses1ms.obj
 0001:0001fe00       sf_check_dwork_consistency 0000000180020e00 f   c3_SpeedgoatCANOpen2Buses1ms.obj
 0001:0001ff80       sf_opaque_initialize_c3_SpeedgoatCANOpen2Buses1ms 0000000180020f80 f   c3_SpeedgoatCANOpen2Buses1ms.obj
 0001:0001ffd0       sf_opaque_enable_c3_SpeedgoatCANOpen2Buses1ms 0000000180020fd0 f   c3_SpeedgoatCANOpen2Buses1ms.obj
 0001:0001fff0       sf_opaque_disable_c3_SpeedgoatCANOpen2Buses1ms 0000000180020ff0 f   c3_SpeedgoatCANOpen2Buses1ms.obj
 0001:00020010       sf_opaque_gateway_c3_SpeedgoatCANOpen2Buses1ms 0000000180021010 f   c3_SpeedgoatCANOpen2Buses1ms.obj
 0001:00020030       sf_opaque_ext_mode_exec_c3_SpeedgoatCANOpen2Buses1ms 0000000180021030 f   c3_SpeedgoatCANOpen2Buses1ms.obj
 0001:00020050       sf_opaque_get_sim_state_c3_SpeedgoatCANOpen2Buses1ms 0000000180021050 f   c3_SpeedgoatCANOpen2Buses1ms.obj
 0001:00020080       sf_opaque_set_sim_state_c3_SpeedgoatCANOpen2Buses1ms 0000000180021080 f   c3_SpeedgoatCANOpen2Buses1ms.obj
 0001:000200b0       sf_opaque_terminate_c3_SpeedgoatCANOpen2Buses1ms 00000001800210b0 f   c3_SpeedgoatCANOpen2Buses1ms.obj
 0001:00020150       mdlProcessParameters_c3_SpeedgoatCANOpen2Buses1ms 0000000180021150 f   c3_SpeedgoatCANOpen2Buses1ms.obj
 0001:00020220       sf_set_sfun_dwork_info     0000000180021220 f   c3_SpeedgoatCANOpen2Buses1ms.obj
 0001:00020260       mdlSetWorkWidths_c3_SpeedgoatCANOpen2Buses1ms 0000000180021260 f   c3_SpeedgoatCANOpen2Buses1ms.obj
 0001:00020990       mdlRTW_c3_SpeedgoatCANOpen2Buses1ms 0000000180021990 f   c3_SpeedgoatCANOpen2Buses1ms.obj
 0001:000209d0       mdlStart_c3_SpeedgoatCANOpen2Buses1ms 00000001800219d0 f   c3_SpeedgoatCANOpen2Buses1ms.obj
 0001:00020e10       chart_debug_initialization 0000000180021e10 f   c4_SpeedgoatCANOpen2Buses1ms.obj
 0001:00021960       chart_debug_initialize_data_addresses 0000000180022960 f   c4_SpeedgoatCANOpen2Buses1ms.obj
 0001:00021a60       sf_opaque_get_hover_data_for_msg 0000000180022a60 f   c4_SpeedgoatCANOpen2Buses1ms.obj
 0001:00021a90       initialize_c4_SpeedgoatCANOpen2Buses1ms 0000000180022a90 f   c4_SpeedgoatCANOpen2Buses1ms.obj
 0001:00021b50       initialize_params_c4_SpeedgoatCANOpen2Buses1ms 0000000180022b50 f   c4_SpeedgoatCANOpen2Buses1ms.obj
 0001:00021b60       enable_c4_SpeedgoatCANOpen2Buses1ms 0000000180022b60 f   c4_SpeedgoatCANOpen2Buses1ms.obj
 0001:00021b90       disable_c4_SpeedgoatCANOpen2Buses1ms 0000000180022b90 f   c4_SpeedgoatCANOpen2Buses1ms.obj
 0001:00021bc0       c4_update_debugger_state_c4_SpeedgoatCANOpen2Buses1ms 0000000180022bc0 f   c4_SpeedgoatCANOpen2Buses1ms.obj
 0001:00021f70       ext_mode_exec_c4_SpeedgoatCANOpen2Buses1ms 0000000180022f70 f   c4_SpeedgoatCANOpen2Buses1ms.obj
 0001:00021f90       get_sim_state_c4_SpeedgoatCANOpen2Buses1ms 0000000180022f90 f   c4_SpeedgoatCANOpen2Buses1ms.obj
 0001:00022210       set_sim_state_c4_SpeedgoatCANOpen2Buses1ms 0000000180023210 f   c4_SpeedgoatCANOpen2Buses1ms.obj
 0001:000223b0       c4_set_sim_state_side_effects_c4_SpeedgoatCANOpen2Buses1ms 00000001800233b0 f   c4_SpeedgoatCANOpen2Buses1ms.obj
 0001:000223e0       finalize_c4_SpeedgoatCANOpen2Buses1ms 00000001800233e0 f   c4_SpeedgoatCANOpen2Buses1ms.obj
 0001:00022410       sf_gateway_c4_SpeedgoatCANOpen2Buses1ms 0000000180023410 f   c4_SpeedgoatCANOpen2Buses1ms.obj
 0001:00023870       mdl_start_c4_SpeedgoatCANOpen2Buses1ms 0000000180024870 f   c4_SpeedgoatCANOpen2Buses1ms.obj
 0001:000238a0       initSimStructsc4_SpeedgoatCANOpen2Buses1ms 00000001800248a0 f   c4_SpeedgoatCANOpen2Buses1ms.obj
 0001:000238b0       init_script_number_translation 00000001800248b0 f   c4_SpeedgoatCANOpen2Buses1ms.obj
 0001:000238d0       c4_sf_marshallOut          00000001800248d0 f   c4_SpeedgoatCANOpen2Buses1ms.obj
 0001:00023980       c4_emlrt_marshallIn        0000000180024980 f   c4_SpeedgoatCANOpen2Buses1ms.obj
 0001:00023a10       c4_sf_marshallIn           0000000180024a10 f   c4_SpeedgoatCANOpen2Buses1ms.obj
 0001:00023ac0       c4_b_sf_marshallOut        0000000180024ac0 f   c4_SpeedgoatCANOpen2Buses1ms.obj
 0001:00023b70       c4_b_emlrt_marshallIn      0000000180024b70 f   c4_SpeedgoatCANOpen2Buses1ms.obj
 0001:00023c00       c4_b_sf_marshallIn         0000000180024c00 f   c4_SpeedgoatCANOpen2Buses1ms.obj
 0001:00023cb0       c4_d_sf_marshallOut        0000000180024cb0 f   c4_SpeedgoatCANOpen2Buses1ms.obj
 0001:00023d70       c4_d_emlrt_marshallIn      0000000180024d70 f   c4_SpeedgoatCANOpen2Buses1ms.obj
 0001:00023de0       c4_e_emlrt_marshallIn      0000000180024de0 f   c4_SpeedgoatCANOpen2Buses1ms.obj
 0001:00023e70       c4_d_sf_marshallIn         0000000180024e70 f   c4_SpeedgoatCANOpen2Buses1ms.obj
 0001:00023f20       c4_f_emlrt_marshallIn      0000000180024f20 f   c4_SpeedgoatCANOpen2Buses1ms.obj
 0001:00023f90       c4_g_emlrt_marshallIn      0000000180024f90 f   c4_SpeedgoatCANOpen2Buses1ms.obj
 0001:00024020       c4_h_emlrt_marshallIn      0000000180025020 f   c4_SpeedgoatCANOpen2Buses1ms.obj
 0001:00024090       c4_i_emlrt_marshallIn      0000000180025090 f   c4_SpeedgoatCANOpen2Buses1ms.obj
 0001:00024140       c4_j_emlrt_marshallIn      0000000180025140 f   c4_SpeedgoatCANOpen2Buses1ms.obj
 0001:000241d0       c4_k_emlrt_marshallIn      00000001800251d0 f   c4_SpeedgoatCANOpen2Buses1ms.obj
 0001:00024230       sf_get_hover_data_for_msg  0000000180025230 f   c4_SpeedgoatCANOpen2Buses1ms.obj
 0001:00024250       c4_init_sf_message_store_memory 0000000180025250 f   c4_SpeedgoatCANOpen2Buses1ms.obj
 0001:00024260       init_dsm_address_info      0000000180025260 f   c4_SpeedgoatCANOpen2Buses1ms.obj
 0001:00024270       init_simulink_io_address   0000000180025270 f   c4_SpeedgoatCANOpen2Buses1ms.obj
 0001:00024330       sf_get_sfun_dwork_checksum 0000000180025330 f   c4_SpeedgoatCANOpen2Buses1ms.obj
 0001:00024a60       sf_get_sim_state_info_c4_SpeedgoatCANOpen2Buses1ms 0000000180025a60 f   c4_SpeedgoatCANOpen2Buses1ms.obj
 0001:00024b30       sf_get_instance_specialization 0000000180025b30 f   c4_SpeedgoatCANOpen2Buses1ms.obj
 0001:00024b40       sf_check_dwork_consistency 0000000180025b40 f   c4_SpeedgoatCANOpen2Buses1ms.obj
 0001:00024cc0       sf_opaque_initialize_c4_SpeedgoatCANOpen2Buses1ms 0000000180025cc0 f   c4_SpeedgoatCANOpen2Buses1ms.obj
 0001:00024d10       sf_opaque_enable_c4_SpeedgoatCANOpen2Buses1ms 0000000180025d10 f   c4_SpeedgoatCANOpen2Buses1ms.obj
 0001:00024d30       sf_opaque_disable_c4_SpeedgoatCANOpen2Buses1ms 0000000180025d30 f   c4_SpeedgoatCANOpen2Buses1ms.obj
 0001:00024d50       sf_opaque_gateway_c4_SpeedgoatCANOpen2Buses1ms 0000000180025d50 f   c4_SpeedgoatCANOpen2Buses1ms.obj
 0001:00024d70       sf_opaque_ext_mode_exec_c4_SpeedgoatCANOpen2Buses1ms 0000000180025d70 f   c4_SpeedgoatCANOpen2Buses1ms.obj
 0001:00024d90       sf_opaque_get_sim_state_c4_SpeedgoatCANOpen2Buses1ms 0000000180025d90 f   c4_SpeedgoatCANOpen2Buses1ms.obj
 0001:00024dc0       sf_opaque_set_sim_state_c4_SpeedgoatCANOpen2Buses1ms 0000000180025dc0 f   c4_SpeedgoatCANOpen2Buses1ms.obj
 0001:00024df0       sf_opaque_terminate_c4_SpeedgoatCANOpen2Buses1ms 0000000180025df0 f   c4_SpeedgoatCANOpen2Buses1ms.obj
 0001:00024e90       mdlProcessParameters_c4_SpeedgoatCANOpen2Buses1ms 0000000180025e90 f   c4_SpeedgoatCANOpen2Buses1ms.obj
 0001:00024f60       sf_set_sfun_dwork_info     0000000180025f60 f   c4_SpeedgoatCANOpen2Buses1ms.obj
 0001:00024fa0       mdlSetWorkWidths_c4_SpeedgoatCANOpen2Buses1ms 0000000180025fa0 f   c4_SpeedgoatCANOpen2Buses1ms.obj
 0001:00025680       mdlRTW_c4_SpeedgoatCANOpen2Buses1ms 0000000180026680 f   c4_SpeedgoatCANOpen2Buses1ms.obj
 0001:000256c0       mdlStart_c4_SpeedgoatCANOpen2Buses1ms 00000001800266c0 f   c4_SpeedgoatCANOpen2Buses1ms.obj
 0001:00025b00       chart_debug_initialization 0000000180026b00 f   c5_SpeedgoatCANOpen2Buses1ms.obj
 0001:000266e0       chart_debug_initialize_data_addresses 00000001800276e0 f   c5_SpeedgoatCANOpen2Buses1ms.obj
 0001:00026820       sf_opaque_get_hover_data_for_msg 0000000180027820 f   c5_SpeedgoatCANOpen2Buses1ms.obj
 0001:00026850       initialize_c5_SpeedgoatCANOpen2Buses1ms 0000000180027850 f   c5_SpeedgoatCANOpen2Buses1ms.obj
 0001:00026920       initialize_params_c5_SpeedgoatCANOpen2Buses1ms 0000000180027920 f   c5_SpeedgoatCANOpen2Buses1ms.obj
 0001:00026930       enable_c5_SpeedgoatCANOpen2Buses1ms 0000000180027930 f   c5_SpeedgoatCANOpen2Buses1ms.obj
 0001:00026960       disable_c5_SpeedgoatCANOpen2Buses1ms 0000000180027960 f   c5_SpeedgoatCANOpen2Buses1ms.obj
 0001:00026990       c5_update_debugger_state_c5_SpeedgoatCANOpen2Buses1ms 0000000180027990 f   c5_SpeedgoatCANOpen2Buses1ms.obj
 0001:00026d40       ext_mode_exec_c5_SpeedgoatCANOpen2Buses1ms 0000000180027d40 f   c5_SpeedgoatCANOpen2Buses1ms.obj
 0001:00026d60       get_sim_state_c5_SpeedgoatCANOpen2Buses1ms 0000000180027d60 f   c5_SpeedgoatCANOpen2Buses1ms.obj
 0001:00027070       set_sim_state_c5_SpeedgoatCANOpen2Buses1ms 0000000180028070 f   c5_SpeedgoatCANOpen2Buses1ms.obj
 0001:00027240       c5_set_sim_state_side_effects_c5_SpeedgoatCANOpen2Buses1ms 0000000180028240 f   c5_SpeedgoatCANOpen2Buses1ms.obj
 0001:000272d0       finalize_c5_SpeedgoatCANOpen2Buses1ms 00000001800282d0 f   c5_SpeedgoatCANOpen2Buses1ms.obj
 0001:00027300       sf_gateway_c5_SpeedgoatCANOpen2Buses1ms 0000000180028300 f   c5_SpeedgoatCANOpen2Buses1ms.obj
 0001:000288a0       mdl_start_c5_SpeedgoatCANOpen2Buses1ms 00000001800298a0 f   c5_SpeedgoatCANOpen2Buses1ms.obj
 0001:000288d0       initSimStructsc5_SpeedgoatCANOpen2Buses1ms 00000001800298d0 f   c5_SpeedgoatCANOpen2Buses1ms.obj
 0001:000288e0       init_script_number_translation 00000001800298e0 f   c5_SpeedgoatCANOpen2Buses1ms.obj
 0001:00028900       c5_sf_marshallOut          0000000180029900 f   c5_SpeedgoatCANOpen2Buses1ms.obj
 0001:000289b0       c5_emlrt_marshallIn        00000001800299b0 f   c5_SpeedgoatCANOpen2Buses1ms.obj
 0001:00028a40       c5_sf_marshallIn           0000000180029a40 f   c5_SpeedgoatCANOpen2Buses1ms.obj
 0001:00028af0       c5_b_sf_marshallOut        0000000180029af0 f   c5_SpeedgoatCANOpen2Buses1ms.obj
 0001:00028ba0       c5_b_emlrt_marshallIn      0000000180029ba0 f   c5_SpeedgoatCANOpen2Buses1ms.obj
 0001:00028c30       c5_b_sf_marshallIn         0000000180029c30 f   c5_SpeedgoatCANOpen2Buses1ms.obj
 0001:00028ce0       c5_d_sf_marshallOut        0000000180029ce0 f   c5_SpeedgoatCANOpen2Buses1ms.obj
 0001:00028da0       c5_d_emlrt_marshallIn      0000000180029da0 f   c5_SpeedgoatCANOpen2Buses1ms.obj
 0001:00028e10       c5_e_emlrt_marshallIn      0000000180029e10 f   c5_SpeedgoatCANOpen2Buses1ms.obj
 0001:00028ea0       c5_d_sf_marshallIn         0000000180029ea0 f   c5_SpeedgoatCANOpen2Buses1ms.obj
 0001:00028f50       c5_f_emlrt_marshallIn      0000000180029f50 f   c5_SpeedgoatCANOpen2Buses1ms.obj
 0001:00028fc0       c5_g_emlrt_marshallIn      0000000180029fc0 f   c5_SpeedgoatCANOpen2Buses1ms.obj
 0001:00029050       c5_h_emlrt_marshallIn      000000018002a050 f   c5_SpeedgoatCANOpen2Buses1ms.obj
 0001:000290c0       c5_i_emlrt_marshallIn      000000018002a0c0 f   c5_SpeedgoatCANOpen2Buses1ms.obj
 0001:00029150       c5_j_emlrt_marshallIn      000000018002a150 f   c5_SpeedgoatCANOpen2Buses1ms.obj
 0001:000291c0       c5_k_emlrt_marshallIn      000000018002a1c0 f   c5_SpeedgoatCANOpen2Buses1ms.obj
 0001:00029270       c5_l_emlrt_marshallIn      000000018002a270 f   c5_SpeedgoatCANOpen2Buses1ms.obj
 0001:00029300       c5_m_emlrt_marshallIn      000000018002a300 f   c5_SpeedgoatCANOpen2Buses1ms.obj
 0001:00029360       sf_get_hover_data_for_msg  000000018002a360 f   c5_SpeedgoatCANOpen2Buses1ms.obj
 0001:00029380       c5_init_sf_message_store_memory 000000018002a380 f   c5_SpeedgoatCANOpen2Buses1ms.obj
 0001:00029390       init_dsm_address_info      000000018002a390 f   c5_SpeedgoatCANOpen2Buses1ms.obj
 0001:000293a0       init_simulink_io_address   000000018002a3a0 f   c5_SpeedgoatCANOpen2Buses1ms.obj
 0001:000294a0       sf_get_sfun_dwork_checksum 000000018002a4a0 f   c5_SpeedgoatCANOpen2Buses1ms.obj
 0001:00029d00       sf_get_sim_state_info_c5_SpeedgoatCANOpen2Buses1ms 000000018002ad00 f   c5_SpeedgoatCANOpen2Buses1ms.obj
 0001:00029dd0       sf_get_instance_specialization 000000018002add0 f   c5_SpeedgoatCANOpen2Buses1ms.obj
 0001:00029de0       sf_check_dwork_consistency 000000018002ade0 f   c5_SpeedgoatCANOpen2Buses1ms.obj
 0001:00029f60       sf_opaque_initialize_c5_SpeedgoatCANOpen2Buses1ms 000000018002af60 f   c5_SpeedgoatCANOpen2Buses1ms.obj
 0001:00029fb0       sf_opaque_enable_c5_SpeedgoatCANOpen2Buses1ms 000000018002afb0 f   c5_SpeedgoatCANOpen2Buses1ms.obj
 0001:00029fd0       sf_opaque_disable_c5_SpeedgoatCANOpen2Buses1ms 000000018002afd0 f   c5_SpeedgoatCANOpen2Buses1ms.obj
 0001:00029ff0       sf_opaque_gateway_c5_SpeedgoatCANOpen2Buses1ms 000000018002aff0 f   c5_SpeedgoatCANOpen2Buses1ms.obj
 0001:0002a010       sf_opaque_ext_mode_exec_c5_SpeedgoatCANOpen2Buses1ms 000000018002b010 f   c5_SpeedgoatCANOpen2Buses1ms.obj
 0001:0002a030       sf_opaque_get_sim_state_c5_SpeedgoatCANOpen2Buses1ms 000000018002b030 f   c5_SpeedgoatCANOpen2Buses1ms.obj
 0001:0002a060       sf_opaque_set_sim_state_c5_SpeedgoatCANOpen2Buses1ms 000000018002b060 f   c5_SpeedgoatCANOpen2Buses1ms.obj
 0001:0002a090       sf_opaque_terminate_c5_SpeedgoatCANOpen2Buses1ms 000000018002b090 f   c5_SpeedgoatCANOpen2Buses1ms.obj
 0001:0002a130       mdlProcessParameters_c5_SpeedgoatCANOpen2Buses1ms 000000018002b130 f   c5_SpeedgoatCANOpen2Buses1ms.obj
 0001:0002a200       sf_set_sfun_dwork_info     000000018002b200 f   c5_SpeedgoatCANOpen2Buses1ms.obj
 0001:0002a240       mdlSetWorkWidths_c5_SpeedgoatCANOpen2Buses1ms 000000018002b240 f   c5_SpeedgoatCANOpen2Buses1ms.obj
 0001:0002a970       mdlRTW_c5_SpeedgoatCANOpen2Buses1ms 000000018002b970 f   c5_SpeedgoatCANOpen2Buses1ms.obj
 0001:0002a9b0       mdlStart_c5_SpeedgoatCANOpen2Buses1ms 000000018002b9b0 f   c5_SpeedgoatCANOpen2Buses1ms.obj
 0001:0002adf0       chart_debug_initialization 000000018002bdf0 f   c10_SpeedgoatCANOpen2Buses1ms.obj
 0001:0002c550       chart_debug_initialize_data_addresses 000000018002d550 f   c10_SpeedgoatCANOpen2Buses1ms.obj
 0001:0002c6e0       sf_opaque_get_hover_data_for_msg 000000018002d6e0 f   c10_SpeedgoatCANOpen2Buses1ms.obj
 0001:0002c710       initialize_c10_SpeedgoatCANOpen2Buses1ms 000000018002d710 f   c10_SpeedgoatCANOpen2Buses1ms.obj
 0001:0002c7e0       initialize_params_c10_SpeedgoatCANOpen2Buses1ms 000000018002d7e0 f   c10_SpeedgoatCANOpen2Buses1ms.obj
 0001:0002c7f0       enable_c10_SpeedgoatCANOpen2Buses1ms 000000018002d7f0 f   c10_SpeedgoatCANOpen2Buses1ms.obj
 0001:0002c820       disable_c10_SpeedgoatCANOpen2Buses1ms 000000018002d820 f   c10_SpeedgoatCANOpen2Buses1ms.obj
 0001:0002c850       c10_update_debugger_state_c10_SpeedgoatCANOpen2Buses1ms 000000018002d850 f   c10_SpeedgoatCANOpen2Buses1ms.obj
 0001:0002cd40       ext_mode_exec_c10_SpeedgoatCANOpen2Buses1ms 000000018002dd40 f   c10_SpeedgoatCANOpen2Buses1ms.obj
 0001:0002cd60       get_sim_state_c10_SpeedgoatCANOpen2Buses1ms 000000018002dd60 f   c10_SpeedgoatCANOpen2Buses1ms.obj
 0001:0002d0f0       set_sim_state_c10_SpeedgoatCANOpen2Buses1ms 000000018002e0f0 f   c10_SpeedgoatCANOpen2Buses1ms.obj
 0001:0002d310       c10_set_sim_state_side_effects_c10_SpeedgoatCANOpen2Buses1ms 000000018002e310 f   c10_SpeedgoatCANOpen2Buses1ms.obj
 0001:0002d3a0       finalize_c10_SpeedgoatCANOpen2Buses1ms 000000018002e3a0 f   c10_SpeedgoatCANOpen2Buses1ms.obj
 0001:0002d3d0       sf_gateway_c10_SpeedgoatCANOpen2Buses1ms 000000018002e3d0 f   c10_SpeedgoatCANOpen2Buses1ms.obj
 0001:0002d5c0       mdl_start_c10_SpeedgoatCANOpen2Buses1ms 000000018002e5c0 f   c10_SpeedgoatCANOpen2Buses1ms.obj
 0001:0002d5f0       c10_chartstep_c10_SpeedgoatCANOpen2Buses1ms 000000018002e5f0 f   c10_SpeedgoatCANOpen2Buses1ms.obj
 0001:00030ae0       initSimStructsc10_SpeedgoatCANOpen2Buses1ms 0000000180031ae0 f   c10_SpeedgoatCANOpen2Buses1ms.obj
 0001:00030af0       init_script_number_translation 0000000180031af0 f   c10_SpeedgoatCANOpen2Buses1ms.obj
 0001:00030b10       c10_sf_marshallOut         0000000180031b10 f   c10_SpeedgoatCANOpen2Buses1ms.obj
 0001:00030bc0       c10_emlrt_marshallIn       0000000180031bc0 f   c10_SpeedgoatCANOpen2Buses1ms.obj
 0001:00030c30       c10_b_emlrt_marshallIn     0000000180031c30 f   c10_SpeedgoatCANOpen2Buses1ms.obj
 0001:00030cc0       c10_sf_marshallIn          0000000180031cc0 f   c10_SpeedgoatCANOpen2Buses1ms.obj
 0001:00030d70       c10_b_sf_marshallOut       0000000180031d70 f   c10_SpeedgoatCANOpen2Buses1ms.obj
 0001:00030e20       c10_c_emlrt_marshallIn     0000000180031e20 f   c10_SpeedgoatCANOpen2Buses1ms.obj
 0001:00030eb0       c10_b_sf_marshallIn        0000000180031eb0 f   c10_SpeedgoatCANOpen2Buses1ms.obj
 0001:00030f60       c10_e_emlrt_marshallIn     0000000180031f60 f   c10_SpeedgoatCANOpen2Buses1ms.obj
 0001:00030fd0       c10_f_emlrt_marshallIn     0000000180031fd0 f   c10_SpeedgoatCANOpen2Buses1ms.obj
 0001:00031060       c10_g_emlrt_marshallIn     0000000180032060 f   c10_SpeedgoatCANOpen2Buses1ms.obj
 0001:000310d0       c10_h_emlrt_marshallIn     00000001800320d0 f   c10_SpeedgoatCANOpen2Buses1ms.obj
 0001:00031190       c10_i_emlrt_marshallIn     0000000180032190 f   c10_SpeedgoatCANOpen2Buses1ms.obj
 0001:00031220       c10_j_emlrt_marshallIn     0000000180032220 f   c10_SpeedgoatCANOpen2Buses1ms.obj
 0001:00031280       sf_get_hover_data_for_msg  0000000180032280 f   c10_SpeedgoatCANOpen2Buses1ms.obj
 0001:000312a0       c10_init_sf_message_store_memory 00000001800322a0 f   c10_SpeedgoatCANOpen2Buses1ms.obj
 0001:000312b0       init_dsm_address_info      00000001800322b0 f   c10_SpeedgoatCANOpen2Buses1ms.obj
 0001:000312c0       init_simulink_io_address   00000001800322c0 f   c10_SpeedgoatCANOpen2Buses1ms.obj
 0001:000313e0       sf_get_sfun_dwork_checksum 00000001800323e0 f   c10_SpeedgoatCANOpen2Buses1ms.obj
 0001:00031d80       sf_get_sim_state_info_c10_SpeedgoatCANOpen2Buses1ms 0000000180032d80 f   c10_SpeedgoatCANOpen2Buses1ms.obj
 0001:00031e50       sf_get_instance_specialization 0000000180032e50 f   c10_SpeedgoatCANOpen2Buses1ms.obj
 0001:00031e60       sf_check_dwork_consistency 0000000180032e60 f   c10_SpeedgoatCANOpen2Buses1ms.obj
 0001:00031fe0       sf_opaque_initialize_c10_SpeedgoatCANOpen2Buses1ms 0000000180032fe0 f   c10_SpeedgoatCANOpen2Buses1ms.obj
 0001:00032030       sf_opaque_enable_c10_SpeedgoatCANOpen2Buses1ms 0000000180033030 f   c10_SpeedgoatCANOpen2Buses1ms.obj
 0001:00032050       sf_opaque_disable_c10_SpeedgoatCANOpen2Buses1ms 0000000180033050 f   c10_SpeedgoatCANOpen2Buses1ms.obj
 0001:00032070       sf_opaque_gateway_c10_SpeedgoatCANOpen2Buses1ms 0000000180033070 f   c10_SpeedgoatCANOpen2Buses1ms.obj
 0001:00032090       sf_opaque_ext_mode_exec_c10_SpeedgoatCANOpen2Buses1ms 0000000180033090 f   c10_SpeedgoatCANOpen2Buses1ms.obj
 0001:000320b0       sf_opaque_get_sim_state_c10_SpeedgoatCANOpen2Buses1ms 00000001800330b0 f   c10_SpeedgoatCANOpen2Buses1ms.obj
 0001:000320e0       sf_opaque_set_sim_state_c10_SpeedgoatCANOpen2Buses1ms 00000001800330e0 f   c10_SpeedgoatCANOpen2Buses1ms.obj
 0001:00032110       sf_opaque_terminate_c10_SpeedgoatCANOpen2Buses1ms 0000000180033110 f   c10_SpeedgoatCANOpen2Buses1ms.obj
 0001:000321b0       mdlProcessParameters_c10_SpeedgoatCANOpen2Buses1ms 00000001800331b0 f   c10_SpeedgoatCANOpen2Buses1ms.obj
 0001:00032280       sf_set_sfun_dwork_info     0000000180033280 f   c10_SpeedgoatCANOpen2Buses1ms.obj
 0001:000322c0       mdlSetWorkWidths_c10_SpeedgoatCANOpen2Buses1ms 00000001800332c0 f   c10_SpeedgoatCANOpen2Buses1ms.obj
 0001:00032970       mdlRTW_c10_SpeedgoatCANOpen2Buses1ms 0000000180033970 f   c10_SpeedgoatCANOpen2Buses1ms.obj
 0001:000329b0       mdlStart_c10_SpeedgoatCANOpen2Buses1ms 00000001800339b0 f   c10_SpeedgoatCANOpen2Buses1ms.obj
 0001:00032df0       chart_debug_initialization 0000000180033df0 f   c12_SpeedgoatCANOpen2Buses1ms.obj
 0001:00034c70       chart_debug_initialize_data_addresses 0000000180035c70 f   c12_SpeedgoatCANOpen2Buses1ms.obj
 0001:00034f80       sf_opaque_get_hover_data_for_msg 0000000180035f80 f   c12_SpeedgoatCANOpen2Buses1ms.obj
 0001:00034fb0       initialize_c12_SpeedgoatCANOpen2Buses1ms 0000000180035fb0 f   c12_SpeedgoatCANOpen2Buses1ms.obj
 0001:00035070       initialize_params_c12_SpeedgoatCANOpen2Buses1ms 0000000180036070 f   c12_SpeedgoatCANOpen2Buses1ms.obj
 0001:00035080       enable_c12_SpeedgoatCANOpen2Buses1ms 0000000180036080 f   c12_SpeedgoatCANOpen2Buses1ms.obj
 0001:000350b0       disable_c12_SpeedgoatCANOpen2Buses1ms 00000001800360b0 f   c12_SpeedgoatCANOpen2Buses1ms.obj
 0001:000350e0       c12_update_debugger_state_c12_SpeedgoatCANOpen2Buses1ms 00000001800360e0 f   c12_SpeedgoatCANOpen2Buses1ms.obj
 0001:00035700       ext_mode_exec_c12_SpeedgoatCANOpen2Buses1ms 0000000180036700 f   c12_SpeedgoatCANOpen2Buses1ms.obj
 0001:00035720       get_sim_state_c12_SpeedgoatCANOpen2Buses1ms 0000000180036720 f   c12_SpeedgoatCANOpen2Buses1ms.obj
 0001:00035d20       set_sim_state_c12_SpeedgoatCANOpen2Buses1ms 0000000180036d20 f   c12_SpeedgoatCANOpen2Buses1ms.obj
 0001:00036050       c12_set_sim_state_side_effects_c12_SpeedgoatCANOpen2Buses1ms 0000000180037050 f   c12_SpeedgoatCANOpen2Buses1ms.obj
 0001:00036080       finalize_c12_SpeedgoatCANOpen2Buses1ms 0000000180037080 f   c12_SpeedgoatCANOpen2Buses1ms.obj
 0001:000360b0       sf_gateway_c12_SpeedgoatCANOpen2Buses1ms 00000001800370b0 f   c12_SpeedgoatCANOpen2Buses1ms.obj
 0001:00036260       mdl_start_c12_SpeedgoatCANOpen2Buses1ms 0000000180037260 f   c12_SpeedgoatCANOpen2Buses1ms.obj
 0001:00036290       c12_chartstep_c12_SpeedgoatCANOpen2Buses1ms 0000000180037290 f   c12_SpeedgoatCANOpen2Buses1ms.obj
 0001:000394a0       initSimStructsc12_SpeedgoatCANOpen2Buses1ms 000000018003a4a0 f   c12_SpeedgoatCANOpen2Buses1ms.obj
 0001:000394b0       c12_enter_atomic_Init      000000018003a4b0 f   c12_SpeedgoatCANOpen2Buses1ms.obj
 0001:00039810       c12_enter_atomic_Wait      000000018003a810 f   c12_SpeedgoatCANOpen2Buses1ms.obj
 0001:00039a70       init_script_number_translation 000000018003aa70 f   c12_SpeedgoatCANOpen2Buses1ms.obj
 0001:00039a90       c12_sf_marshallOut         000000018003aa90 f   c12_SpeedgoatCANOpen2Buses1ms.obj
 0001:00039b40       c12_emlrt_marshallIn       000000018003ab40 f   c12_SpeedgoatCANOpen2Buses1ms.obj
 0001:00039bd0       c12_sf_marshallIn          000000018003abd0 f   c12_SpeedgoatCANOpen2Buses1ms.obj
 0001:00039c80       c12_b_sf_marshallOut       000000018003ac80 f   c12_SpeedgoatCANOpen2Buses1ms.obj
 0001:00039d30       c12_b_emlrt_marshallIn     000000018003ad30 f   c12_SpeedgoatCANOpen2Buses1ms.obj
 0001:00039dc0       c12_b_sf_marshallIn        000000018003adc0 f   c12_SpeedgoatCANOpen2Buses1ms.obj
 0001:00039e70       c12_d_sf_marshallOut       000000018003ae70 f   c12_SpeedgoatCANOpen2Buses1ms.obj
 0001:00039f30       c12_d_emlrt_marshallIn     000000018003af30 f   c12_SpeedgoatCANOpen2Buses1ms.obj
 0001:00039fa0       c12_e_emlrt_marshallIn     000000018003afa0 f   c12_SpeedgoatCANOpen2Buses1ms.obj
 0001:0003a030       c12_d_sf_marshallIn        000000018003b030 f   c12_SpeedgoatCANOpen2Buses1ms.obj
 0001:0003a0e0       c12_f_emlrt_marshallIn     000000018003b0e0 f   c12_SpeedgoatCANOpen2Buses1ms.obj
 0001:0003a150       c12_g_emlrt_marshallIn     000000018003b150 f   c12_SpeedgoatCANOpen2Buses1ms.obj
 0001:0003a1e0       c12_h_emlrt_marshallIn     000000018003b1e0 f   c12_SpeedgoatCANOpen2Buses1ms.obj
 0001:0003a250       c12_i_emlrt_marshallIn     000000018003b250 f   c12_SpeedgoatCANOpen2Buses1ms.obj
 0001:0003a330       c12_j_emlrt_marshallIn     000000018003b330 f   c12_SpeedgoatCANOpen2Buses1ms.obj
 0001:0003a3c0       c12_k_emlrt_marshallIn     000000018003b3c0 f   c12_SpeedgoatCANOpen2Buses1ms.obj
 0001:0003a420       sf_get_hover_data_for_msg  000000018003b420 f   c12_SpeedgoatCANOpen2Buses1ms.obj
 0001:0003a440       c12_init_sf_message_store_memory 000000018003b440 f   c12_SpeedgoatCANOpen2Buses1ms.obj
 0001:0003a450       init_dsm_address_info      000000018003b450 f   c12_SpeedgoatCANOpen2Buses1ms.obj
 0001:0003a460       init_simulink_io_address   000000018003b460 f   c12_SpeedgoatCANOpen2Buses1ms.obj
 0001:0003a5f0       sf_get_sfun_dwork_checksum 000000018003b5f0 f   c12_SpeedgoatCANOpen2Buses1ms.obj
 0001:0003b620       sf_get_sim_state_info_c12_SpeedgoatCANOpen2Buses1ms 000000018003c620 f   c12_SpeedgoatCANOpen2Buses1ms.obj
 0001:0003b6f0       sf_get_instance_specialization 000000018003c6f0 f   c12_SpeedgoatCANOpen2Buses1ms.obj
 0001:0003b700       sf_check_dwork_consistency 000000018003c700 f   c12_SpeedgoatCANOpen2Buses1ms.obj
 0001:0003b880       sf_opaque_initialize_c12_SpeedgoatCANOpen2Buses1ms 000000018003c880 f   c12_SpeedgoatCANOpen2Buses1ms.obj
 0001:0003b8d0       sf_opaque_enable_c12_SpeedgoatCANOpen2Buses1ms 000000018003c8d0 f   c12_SpeedgoatCANOpen2Buses1ms.obj
 0001:0003b8f0       sf_opaque_disable_c12_SpeedgoatCANOpen2Buses1ms 000000018003c8f0 f   c12_SpeedgoatCANOpen2Buses1ms.obj
 0001:0003b910       sf_opaque_gateway_c12_SpeedgoatCANOpen2Buses1ms 000000018003c910 f   c12_SpeedgoatCANOpen2Buses1ms.obj
 0001:0003b930       sf_opaque_ext_mode_exec_c12_SpeedgoatCANOpen2Buses1ms 000000018003c930 f   c12_SpeedgoatCANOpen2Buses1ms.obj
 0001:0003b950       sf_opaque_get_sim_state_c12_SpeedgoatCANOpen2Buses1ms 000000018003c950 f   c12_SpeedgoatCANOpen2Buses1ms.obj
 0001:0003b980       sf_opaque_set_sim_state_c12_SpeedgoatCANOpen2Buses1ms 000000018003c980 f   c12_SpeedgoatCANOpen2Buses1ms.obj
 0001:0003b9b0       sf_opaque_terminate_c12_SpeedgoatCANOpen2Buses1ms 000000018003c9b0 f   c12_SpeedgoatCANOpen2Buses1ms.obj
 0001:0003ba50       mdlProcessParameters_c12_SpeedgoatCANOpen2Buses1ms 000000018003ca50 f   c12_SpeedgoatCANOpen2Buses1ms.obj
 0001:0003bb20       sf_set_sfun_dwork_info     000000018003cb20 f   c12_SpeedgoatCANOpen2Buses1ms.obj
 0001:0003bb60       mdlSetWorkWidths_c12_SpeedgoatCANOpen2Buses1ms 000000018003cb60 f   c12_SpeedgoatCANOpen2Buses1ms.obj
 0001:0003c290       mdlRTW_c12_SpeedgoatCANOpen2Buses1ms 000000018003d290 f   c12_SpeedgoatCANOpen2Buses1ms.obj
 0001:0003c2d0       mdlStart_c12_SpeedgoatCANOpen2Buses1ms 000000018003d2d0 f   c12_SpeedgoatCANOpen2Buses1ms.obj
 0001:0003c710       chart_debug_initialization 000000018003d710 f   c13_SpeedgoatCANOpen2Buses1ms.obj
 0001:0003db60       chart_debug_initialize_data_addresses 000000018003eb60 f   c13_SpeedgoatCANOpen2Buses1ms.obj
 0001:0003de70       sf_opaque_get_hover_data_for_msg 000000018003ee70 f   c13_SpeedgoatCANOpen2Buses1ms.obj
 0001:0003dea0       initialize_c13_SpeedgoatCANOpen2Buses1ms 000000018003eea0 f   c13_SpeedgoatCANOpen2Buses1ms.obj
 0001:0003df60       initialize_params_c13_SpeedgoatCANOpen2Buses1ms 000000018003ef60 f   c13_SpeedgoatCANOpen2Buses1ms.obj
 0001:0003df70       enable_c13_SpeedgoatCANOpen2Buses1ms 000000018003ef70 f   c13_SpeedgoatCANOpen2Buses1ms.obj
 0001:0003dfa0       disable_c13_SpeedgoatCANOpen2Buses1ms 000000018003efa0 f   c13_SpeedgoatCANOpen2Buses1ms.obj
 0001:0003dfd0       c13_update_debugger_state_c13_SpeedgoatCANOpen2Buses1ms 000000018003efd0 f   c13_SpeedgoatCANOpen2Buses1ms.obj
 0001:0003e380       ext_mode_exec_c13_SpeedgoatCANOpen2Buses1ms 000000018003f380 f   c13_SpeedgoatCANOpen2Buses1ms.obj
 0001:0003e3a0       get_sim_state_c13_SpeedgoatCANOpen2Buses1ms 000000018003f3a0 f   c13_SpeedgoatCANOpen2Buses1ms.obj
 0001:0003e7c0       set_sim_state_c13_SpeedgoatCANOpen2Buses1ms 000000018003f7c0 f   c13_SpeedgoatCANOpen2Buses1ms.obj
 0001:0003ea20       c13_set_sim_state_side_effects_c13_SpeedgoatCANOpen2Buses1ms 000000018003fa20 f   c13_SpeedgoatCANOpen2Buses1ms.obj
 0001:0003ea50       finalize_c13_SpeedgoatCANOpen2Buses1ms 000000018003fa50 f   c13_SpeedgoatCANOpen2Buses1ms.obj
 0001:0003ea80       sf_gateway_c13_SpeedgoatCANOpen2Buses1ms 000000018003fa80 f   c13_SpeedgoatCANOpen2Buses1ms.obj
 0001:00040640       mdl_start_c13_SpeedgoatCANOpen2Buses1ms 0000000180041640 f   c13_SpeedgoatCANOpen2Buses1ms.obj
 0001:00040670       initSimStructsc13_SpeedgoatCANOpen2Buses1ms 0000000180041670 f   c13_SpeedgoatCANOpen2Buses1ms.obj
 0001:00040680       c13_enter_atomic_Init      0000000180041680 f   c13_SpeedgoatCANOpen2Buses1ms.obj
 0001:00040910       init_script_number_translation 0000000180041910 f   c13_SpeedgoatCANOpen2Buses1ms.obj
 0001:00040930       c13_sf_marshallOut         0000000180041930 f   c13_SpeedgoatCANOpen2Buses1ms.obj
 0001:000409e0       c13_emlrt_marshallIn       00000001800419e0 f   c13_SpeedgoatCANOpen2Buses1ms.obj
 0001:00040a50       c13_b_emlrt_marshallIn     0000000180041a50 f   c13_SpeedgoatCANOpen2Buses1ms.obj
 0001:00040ae0       c13_sf_marshallIn          0000000180041ae0 f   c13_SpeedgoatCANOpen2Buses1ms.obj
 0001:00040b90       c13_b_sf_marshallOut       0000000180041b90 f   c13_SpeedgoatCANOpen2Buses1ms.obj
 0001:00040c40       c13_c_emlrt_marshallIn     0000000180041c40 f   c13_SpeedgoatCANOpen2Buses1ms.obj
 0001:00040cd0       c13_b_sf_marshallIn        0000000180041cd0 f   c13_SpeedgoatCANOpen2Buses1ms.obj
 0001:00040d80       c13_d_sf_marshallOut       0000000180041d80 f   c13_SpeedgoatCANOpen2Buses1ms.obj
 0001:00040e30       c13_e_emlrt_marshallIn     0000000180041e30 f   c13_SpeedgoatCANOpen2Buses1ms.obj
 0001:00040ea0       c13_f_emlrt_marshallIn     0000000180041ea0 f   c13_SpeedgoatCANOpen2Buses1ms.obj
 0001:00040f30       c13_d_sf_marshallIn        0000000180041f30 f   c13_SpeedgoatCANOpen2Buses1ms.obj
 0001:00040fe0       c13_e_sf_marshallOut       0000000180041fe0 f   c13_SpeedgoatCANOpen2Buses1ms.obj
 0001:000410a0       c13_g_emlrt_marshallIn     00000001800420a0 f   c13_SpeedgoatCANOpen2Buses1ms.obj
 0001:00041110       c13_h_emlrt_marshallIn     0000000180042110 f   c13_SpeedgoatCANOpen2Buses1ms.obj
 0001:000411d0       c13_i_emlrt_marshallIn     00000001800421d0 f   c13_SpeedgoatCANOpen2Buses1ms.obj
 0001:00041260       c13_j_emlrt_marshallIn     0000000180042260 f   c13_SpeedgoatCANOpen2Buses1ms.obj
 0001:000412c0       sf_get_hover_data_for_msg  00000001800422c0 f   c13_SpeedgoatCANOpen2Buses1ms.obj
 0001:000412e0       c13_init_sf_message_store_memory 00000001800422e0 f   c13_SpeedgoatCANOpen2Buses1ms.obj
 0001:000412f0       init_dsm_address_info      00000001800422f0 f   c13_SpeedgoatCANOpen2Buses1ms.obj
 0001:00041300       init_simulink_io_address   0000000180042300 f   c13_SpeedgoatCANOpen2Buses1ms.obj
 0001:00041490       sf_get_sfun_dwork_checksum 0000000180042490 f   c13_SpeedgoatCANOpen2Buses1ms.obj
 0001:000424c0       sf_get_sim_state_info_c13_SpeedgoatCANOpen2Buses1ms 00000001800434c0 f   c13_SpeedgoatCANOpen2Buses1ms.obj
 0001:00042590       sf_get_instance_specialization 0000000180043590 f   c13_SpeedgoatCANOpen2Buses1ms.obj
 0001:000425a0       sf_check_dwork_consistency 00000001800435a0 f   c13_SpeedgoatCANOpen2Buses1ms.obj
 0001:00042720       sf_opaque_initialize_c13_SpeedgoatCANOpen2Buses1ms 0000000180043720 f   c13_SpeedgoatCANOpen2Buses1ms.obj
 0001:00042770       sf_opaque_enable_c13_SpeedgoatCANOpen2Buses1ms 0000000180043770 f   c13_SpeedgoatCANOpen2Buses1ms.obj
 0001:00042790       sf_opaque_disable_c13_SpeedgoatCANOpen2Buses1ms 0000000180043790 f   c13_SpeedgoatCANOpen2Buses1ms.obj
 0001:000427b0       sf_opaque_gateway_c13_SpeedgoatCANOpen2Buses1ms 00000001800437b0 f   c13_SpeedgoatCANOpen2Buses1ms.obj
 0001:000427d0       sf_opaque_ext_mode_exec_c13_SpeedgoatCANOpen2Buses1ms 00000001800437d0 f   c13_SpeedgoatCANOpen2Buses1ms.obj
 0001:000427f0       sf_opaque_get_sim_state_c13_SpeedgoatCANOpen2Buses1ms 00000001800437f0 f   c13_SpeedgoatCANOpen2Buses1ms.obj
 0001:00042820       sf_opaque_set_sim_state_c13_SpeedgoatCANOpen2Buses1ms 0000000180043820 f   c13_SpeedgoatCANOpen2Buses1ms.obj
 0001:00042850       sf_opaque_terminate_c13_SpeedgoatCANOpen2Buses1ms 0000000180043850 f   c13_SpeedgoatCANOpen2Buses1ms.obj
 0001:000428f0       mdlProcessParameters_c13_SpeedgoatCANOpen2Buses1ms 00000001800438f0 f   c13_SpeedgoatCANOpen2Buses1ms.obj
 0001:000429c0       sf_set_sfun_dwork_info     00000001800439c0 f   c13_SpeedgoatCANOpen2Buses1ms.obj
 0001:00042a00       mdlSetWorkWidths_c13_SpeedgoatCANOpen2Buses1ms 0000000180043a00 f   c13_SpeedgoatCANOpen2Buses1ms.obj
 0001:00043230       mdlRTW_c13_SpeedgoatCANOpen2Buses1ms 0000000180044230 f   c13_SpeedgoatCANOpen2Buses1ms.obj
 0001:00043270       mdlStart_c13_SpeedgoatCANOpen2Buses1ms 0000000180044270 f   c13_SpeedgoatCANOpen2Buses1ms.obj
 0001:000436b0       chart_debug_initialization 00000001800446b0 f   c14_SpeedgoatCANOpen2Buses1ms.obj
 0001:00044e10       chart_debug_initialize_data_addresses 0000000180045e10 f   c14_SpeedgoatCANOpen2Buses1ms.obj
 0001:00044fa0       sf_opaque_get_hover_data_for_msg 0000000180045fa0 f   c14_SpeedgoatCANOpen2Buses1ms.obj
 0001:00044fd0       initialize_c14_SpeedgoatCANOpen2Buses1ms 0000000180045fd0 f   c14_SpeedgoatCANOpen2Buses1ms.obj
 0001:000450a0       initialize_params_c14_SpeedgoatCANOpen2Buses1ms 00000001800460a0 f   c14_SpeedgoatCANOpen2Buses1ms.obj
 0001:000450b0       enable_c14_SpeedgoatCANOpen2Buses1ms 00000001800460b0 f   c14_SpeedgoatCANOpen2Buses1ms.obj
 0001:000450e0       disable_c14_SpeedgoatCANOpen2Buses1ms 00000001800460e0 f   c14_SpeedgoatCANOpen2Buses1ms.obj
 0001:00045110       c14_update_debugger_state_c14_SpeedgoatCANOpen2Buses1ms 0000000180046110 f   c14_SpeedgoatCANOpen2Buses1ms.obj
 0001:00045600       ext_mode_exec_c14_SpeedgoatCANOpen2Buses1ms 0000000180046600 f   c14_SpeedgoatCANOpen2Buses1ms.obj
 0001:00045620       get_sim_state_c14_SpeedgoatCANOpen2Buses1ms 0000000180046620 f   c14_SpeedgoatCANOpen2Buses1ms.obj
 0001:000459b0       set_sim_state_c14_SpeedgoatCANOpen2Buses1ms 00000001800469b0 f   c14_SpeedgoatCANOpen2Buses1ms.obj
 0001:00045bd0       c14_set_sim_state_side_effects_c14_SpeedgoatCANOpen2Buses1ms 0000000180046bd0 f   c14_SpeedgoatCANOpen2Buses1ms.obj
 0001:00045c60       finalize_c14_SpeedgoatCANOpen2Buses1ms 0000000180046c60 f   c14_SpeedgoatCANOpen2Buses1ms.obj
 0001:00045c90       sf_gateway_c14_SpeedgoatCANOpen2Buses1ms 0000000180046c90 f   c14_SpeedgoatCANOpen2Buses1ms.obj
 0001:00045e80       mdl_start_c14_SpeedgoatCANOpen2Buses1ms 0000000180046e80 f   c14_SpeedgoatCANOpen2Buses1ms.obj
 0001:00045eb0       c14_chartstep_c14_SpeedgoatCANOpen2Buses1ms 0000000180046eb0 f   c14_SpeedgoatCANOpen2Buses1ms.obj
 0001:000493a0       initSimStructsc14_SpeedgoatCANOpen2Buses1ms 000000018004a3a0 f   c14_SpeedgoatCANOpen2Buses1ms.obj
 0001:000493b0       init_script_number_translation 000000018004a3b0 f   c14_SpeedgoatCANOpen2Buses1ms.obj
 0001:000493d0       c14_sf_marshallOut         000000018004a3d0 f   c14_SpeedgoatCANOpen2Buses1ms.obj
 0001:00049480       c14_emlrt_marshallIn       000000018004a480 f   c14_SpeedgoatCANOpen2Buses1ms.obj
 0001:000494f0       c14_b_emlrt_marshallIn     000000018004a4f0 f   c14_SpeedgoatCANOpen2Buses1ms.obj
 0001:00049580       c14_sf_marshallIn          000000018004a580 f   c14_SpeedgoatCANOpen2Buses1ms.obj
 0001:00049630       c14_b_sf_marshallOut       000000018004a630 f   c14_SpeedgoatCANOpen2Buses1ms.obj
 0001:000496e0       c14_c_emlrt_marshallIn     000000018004a6e0 f   c14_SpeedgoatCANOpen2Buses1ms.obj
 0001:00049770       c14_b_sf_marshallIn        000000018004a770 f   c14_SpeedgoatCANOpen2Buses1ms.obj
 0001:00049820       c14_e_emlrt_marshallIn     000000018004a820 f   c14_SpeedgoatCANOpen2Buses1ms.obj
 0001:00049890       c14_f_emlrt_marshallIn     000000018004a890 f   c14_SpeedgoatCANOpen2Buses1ms.obj
 0001:00049920       c14_g_emlrt_marshallIn     000000018004a920 f   c14_SpeedgoatCANOpen2Buses1ms.obj
 0001:00049990       c14_h_emlrt_marshallIn     000000018004a990 f   c14_SpeedgoatCANOpen2Buses1ms.obj
 0001:00049a50       c14_i_emlrt_marshallIn     000000018004aa50 f   c14_SpeedgoatCANOpen2Buses1ms.obj
 0001:00049ae0       c14_j_emlrt_marshallIn     000000018004aae0 f   c14_SpeedgoatCANOpen2Buses1ms.obj
 0001:00049b40       sf_get_hover_data_for_msg  000000018004ab40 f   c14_SpeedgoatCANOpen2Buses1ms.obj
 0001:00049b60       c14_init_sf_message_store_memory 000000018004ab60 f   c14_SpeedgoatCANOpen2Buses1ms.obj
 0001:00049b70       init_dsm_address_info      000000018004ab70 f   c14_SpeedgoatCANOpen2Buses1ms.obj
 0001:00049b80       init_simulink_io_address   000000018004ab80 f   c14_SpeedgoatCANOpen2Buses1ms.obj
 0001:00049ca0       sf_get_sfun_dwork_checksum 000000018004aca0 f   c14_SpeedgoatCANOpen2Buses1ms.obj
 0001:0004a640       sf_get_sim_state_info_c14_SpeedgoatCANOpen2Buses1ms 000000018004b640 f   c14_SpeedgoatCANOpen2Buses1ms.obj
 0001:0004a710       sf_get_instance_specialization 000000018004b710 f   c14_SpeedgoatCANOpen2Buses1ms.obj
 0001:0004a720       sf_check_dwork_consistency 000000018004b720 f   c14_SpeedgoatCANOpen2Buses1ms.obj
 0001:0004a8a0       sf_opaque_initialize_c14_SpeedgoatCANOpen2Buses1ms 000000018004b8a0 f   c14_SpeedgoatCANOpen2Buses1ms.obj
 0001:0004a8f0       sf_opaque_enable_c14_SpeedgoatCANOpen2Buses1ms 000000018004b8f0 f   c14_SpeedgoatCANOpen2Buses1ms.obj
 0001:0004a910       sf_opaque_disable_c14_SpeedgoatCANOpen2Buses1ms 000000018004b910 f   c14_SpeedgoatCANOpen2Buses1ms.obj
 0001:0004a930       sf_opaque_gateway_c14_SpeedgoatCANOpen2Buses1ms 000000018004b930 f   c14_SpeedgoatCANOpen2Buses1ms.obj
 0001:0004a950       sf_opaque_ext_mode_exec_c14_SpeedgoatCANOpen2Buses1ms 000000018004b950 f   c14_SpeedgoatCANOpen2Buses1ms.obj
 0001:0004a970       sf_opaque_get_sim_state_c14_SpeedgoatCANOpen2Buses1ms 000000018004b970 f   c14_SpeedgoatCANOpen2Buses1ms.obj
 0001:0004a9a0       sf_opaque_set_sim_state_c14_SpeedgoatCANOpen2Buses1ms 000000018004b9a0 f   c14_SpeedgoatCANOpen2Buses1ms.obj
 0001:0004a9d0       sf_opaque_terminate_c14_SpeedgoatCANOpen2Buses1ms 000000018004b9d0 f   c14_SpeedgoatCANOpen2Buses1ms.obj
 0001:0004aa70       mdlProcessParameters_c14_SpeedgoatCANOpen2Buses1ms 000000018004ba70 f   c14_SpeedgoatCANOpen2Buses1ms.obj
 0001:0004ab40       sf_set_sfun_dwork_info     000000018004bb40 f   c14_SpeedgoatCANOpen2Buses1ms.obj
 0001:0004ab80       mdlSetWorkWidths_c14_SpeedgoatCANOpen2Buses1ms 000000018004bb80 f   c14_SpeedgoatCANOpen2Buses1ms.obj
 0001:0004b230       mdlRTW_c14_SpeedgoatCANOpen2Buses1ms 000000018004c230 f   c14_SpeedgoatCANOpen2Buses1ms.obj
 0001:0004b270       mdlStart_c14_SpeedgoatCANOpen2Buses1ms 000000018004c270 f   c14_SpeedgoatCANOpen2Buses1ms.obj
 0001:0004b6b0       chart_debug_initialization 000000018004c6b0 f   c18_SpeedgoatCANOpen2Buses1ms.obj
 0001:0004ce10       chart_debug_initialize_data_addresses 000000018004de10 f   c18_SpeedgoatCANOpen2Buses1ms.obj
 0001:0004cfa0       sf_opaque_get_hover_data_for_msg 000000018004dfa0 f   c18_SpeedgoatCANOpen2Buses1ms.obj
 0001:0004cfd0       initialize_c18_SpeedgoatCANOpen2Buses1ms 000000018004dfd0 f   c18_SpeedgoatCANOpen2Buses1ms.obj
 0001:0004d0a0       initialize_params_c18_SpeedgoatCANOpen2Buses1ms 000000018004e0a0 f   c18_SpeedgoatCANOpen2Buses1ms.obj
 0001:0004d0b0       enable_c18_SpeedgoatCANOpen2Buses1ms 000000018004e0b0 f   c18_SpeedgoatCANOpen2Buses1ms.obj
 0001:0004d0e0       disable_c18_SpeedgoatCANOpen2Buses1ms 000000018004e0e0 f   c18_SpeedgoatCANOpen2Buses1ms.obj
 0001:0004d110       c18_update_debugger_state_c18_SpeedgoatCANOpen2Buses1ms 000000018004e110 f   c18_SpeedgoatCANOpen2Buses1ms.obj
 0001:0004d600       ext_mode_exec_c18_SpeedgoatCANOpen2Buses1ms 000000018004e600 f   c18_SpeedgoatCANOpen2Buses1ms.obj
 0001:0004d620       get_sim_state_c18_SpeedgoatCANOpen2Buses1ms 000000018004e620 f   c18_SpeedgoatCANOpen2Buses1ms.obj
 0001:0004d9b0       set_sim_state_c18_SpeedgoatCANOpen2Buses1ms 000000018004e9b0 f   c18_SpeedgoatCANOpen2Buses1ms.obj
 0001:0004dbd0       c18_set_sim_state_side_effects_c18_SpeedgoatCANOpen2Buses1ms 000000018004ebd0 f   c18_SpeedgoatCANOpen2Buses1ms.obj
 0001:0004dc60       finalize_c18_SpeedgoatCANOpen2Buses1ms 000000018004ec60 f   c18_SpeedgoatCANOpen2Buses1ms.obj
 0001:0004dc90       sf_gateway_c18_SpeedgoatCANOpen2Buses1ms 000000018004ec90 f   c18_SpeedgoatCANOpen2Buses1ms.obj
 0001:0004de80       mdl_start_c18_SpeedgoatCANOpen2Buses1ms 000000018004ee80 f   c18_SpeedgoatCANOpen2Buses1ms.obj
 0001:0004deb0       c18_chartstep_c18_SpeedgoatCANOpen2Buses1ms 000000018004eeb0 f   c18_SpeedgoatCANOpen2Buses1ms.obj
 0001:000513a0       initSimStructsc18_SpeedgoatCANOpen2Buses1ms 00000001800523a0 f   c18_SpeedgoatCANOpen2Buses1ms.obj
 0001:000513b0       init_script_number_translation 00000001800523b0 f   c18_SpeedgoatCANOpen2Buses1ms.obj
 0001:000513d0       c18_sf_marshallOut         00000001800523d0 f   c18_SpeedgoatCANOpen2Buses1ms.obj
 0001:00051480       c18_emlrt_marshallIn       0000000180052480 f   c18_SpeedgoatCANOpen2Buses1ms.obj
 0001:000514f0       c18_b_emlrt_marshallIn     00000001800524f0 f   c18_SpeedgoatCANOpen2Buses1ms.obj
 0001:00051580       c18_sf_marshallIn          0000000180052580 f   c18_SpeedgoatCANOpen2Buses1ms.obj
 0001:00051630       c18_b_sf_marshallOut       0000000180052630 f   c18_SpeedgoatCANOpen2Buses1ms.obj
 0001:000516e0       c18_c_emlrt_marshallIn     00000001800526e0 f   c18_SpeedgoatCANOpen2Buses1ms.obj
 0001:00051770       c18_b_sf_marshallIn        0000000180052770 f   c18_SpeedgoatCANOpen2Buses1ms.obj
 0001:00051820       c18_e_emlrt_marshallIn     0000000180052820 f   c18_SpeedgoatCANOpen2Buses1ms.obj
 0001:00051890       c18_f_emlrt_marshallIn     0000000180052890 f   c18_SpeedgoatCANOpen2Buses1ms.obj
 0001:00051920       c18_g_emlrt_marshallIn     0000000180052920 f   c18_SpeedgoatCANOpen2Buses1ms.obj
 0001:00051990       c18_h_emlrt_marshallIn     0000000180052990 f   c18_SpeedgoatCANOpen2Buses1ms.obj
 0001:00051a50       c18_i_emlrt_marshallIn     0000000180052a50 f   c18_SpeedgoatCANOpen2Buses1ms.obj
 0001:00051ae0       c18_j_emlrt_marshallIn     0000000180052ae0 f   c18_SpeedgoatCANOpen2Buses1ms.obj
 0001:00051b40       sf_get_hover_data_for_msg  0000000180052b40 f   c18_SpeedgoatCANOpen2Buses1ms.obj
 0001:00051b60       c18_init_sf_message_store_memory 0000000180052b60 f   c18_SpeedgoatCANOpen2Buses1ms.obj
 0001:00051b70       init_dsm_address_info      0000000180052b70 f   c18_SpeedgoatCANOpen2Buses1ms.obj
 0001:00051b80       init_simulink_io_address   0000000180052b80 f   c18_SpeedgoatCANOpen2Buses1ms.obj
 0001:00051ca0       sf_get_sfun_dwork_checksum 0000000180052ca0 f   c18_SpeedgoatCANOpen2Buses1ms.obj
 0001:00052640       sf_get_sim_state_info_c18_SpeedgoatCANOpen2Buses1ms 0000000180053640 f   c18_SpeedgoatCANOpen2Buses1ms.obj
 0001:00052710       sf_get_instance_specialization 0000000180053710 f   c18_SpeedgoatCANOpen2Buses1ms.obj
 0001:00052720       sf_check_dwork_consistency 0000000180053720 f   c18_SpeedgoatCANOpen2Buses1ms.obj
 0001:000528a0       sf_opaque_initialize_c18_SpeedgoatCANOpen2Buses1ms 00000001800538a0 f   c18_SpeedgoatCANOpen2Buses1ms.obj
 0001:000528f0       sf_opaque_enable_c18_SpeedgoatCANOpen2Buses1ms 00000001800538f0 f   c18_SpeedgoatCANOpen2Buses1ms.obj
 0001:00052910       sf_opaque_disable_c18_SpeedgoatCANOpen2Buses1ms 0000000180053910 f   c18_SpeedgoatCANOpen2Buses1ms.obj
 0001:00052930       sf_opaque_gateway_c18_SpeedgoatCANOpen2Buses1ms 0000000180053930 f   c18_SpeedgoatCANOpen2Buses1ms.obj
 0001:00052950       sf_opaque_ext_mode_exec_c18_SpeedgoatCANOpen2Buses1ms 0000000180053950 f   c18_SpeedgoatCANOpen2Buses1ms.obj
 0001:00052970       sf_opaque_get_sim_state_c18_SpeedgoatCANOpen2Buses1ms 0000000180053970 f   c18_SpeedgoatCANOpen2Buses1ms.obj
 0001:000529a0       sf_opaque_set_sim_state_c18_SpeedgoatCANOpen2Buses1ms 00000001800539a0 f   c18_SpeedgoatCANOpen2Buses1ms.obj
 0001:000529d0       sf_opaque_terminate_c18_SpeedgoatCANOpen2Buses1ms 00000001800539d0 f   c18_SpeedgoatCANOpen2Buses1ms.obj
 0001:00052a70       mdlProcessParameters_c18_SpeedgoatCANOpen2Buses1ms 0000000180053a70 f   c18_SpeedgoatCANOpen2Buses1ms.obj
 0001:00052b40       sf_set_sfun_dwork_info     0000000180053b40 f   c18_SpeedgoatCANOpen2Buses1ms.obj
 0001:00052b80       mdlSetWorkWidths_c18_SpeedgoatCANOpen2Buses1ms 0000000180053b80 f   c18_SpeedgoatCANOpen2Buses1ms.obj
 0001:00053230       mdlRTW_c18_SpeedgoatCANOpen2Buses1ms 0000000180054230 f   c18_SpeedgoatCANOpen2Buses1ms.obj
 0001:00053270       mdlStart_c18_SpeedgoatCANOpen2Buses1ms 0000000180054270 f   c18_SpeedgoatCANOpen2Buses1ms.obj
 0001:000536b0       chart_debug_initialization 00000001800546b0 f   c20_SpeedgoatCANOpen2Buses1ms.obj
 0001:00054e10       chart_debug_initialize_data_addresses 0000000180055e10 f   c20_SpeedgoatCANOpen2Buses1ms.obj
 0001:00054fa0       sf_opaque_get_hover_data_for_msg 0000000180055fa0 f   c20_SpeedgoatCANOpen2Buses1ms.obj
 0001:00054fd0       initialize_c20_SpeedgoatCANOpen2Buses1ms 0000000180055fd0 f   c20_SpeedgoatCANOpen2Buses1ms.obj
 0001:000550a0       initialize_params_c20_SpeedgoatCANOpen2Buses1ms 00000001800560a0 f   c20_SpeedgoatCANOpen2Buses1ms.obj
 0001:000550b0       enable_c20_SpeedgoatCANOpen2Buses1ms 00000001800560b0 f   c20_SpeedgoatCANOpen2Buses1ms.obj
 0001:000550e0       disable_c20_SpeedgoatCANOpen2Buses1ms 00000001800560e0 f   c20_SpeedgoatCANOpen2Buses1ms.obj
 0001:00055110       c20_update_debugger_state_c20_SpeedgoatCANOpen2Buses1ms 0000000180056110 f   c20_SpeedgoatCANOpen2Buses1ms.obj
 0001:00055600       ext_mode_exec_c20_SpeedgoatCANOpen2Buses1ms 0000000180056600 f   c20_SpeedgoatCANOpen2Buses1ms.obj
 0001:00055620       get_sim_state_c20_SpeedgoatCANOpen2Buses1ms 0000000180056620 f   c20_SpeedgoatCANOpen2Buses1ms.obj
 0001:000559b0       set_sim_state_c20_SpeedgoatCANOpen2Buses1ms 00000001800569b0 f   c20_SpeedgoatCANOpen2Buses1ms.obj
 0001:00055bd0       c20_set_sim_state_side_effects_c20_SpeedgoatCANOpen2Buses1ms 0000000180056bd0 f   c20_SpeedgoatCANOpen2Buses1ms.obj
 0001:00055c60       finalize_c20_SpeedgoatCANOpen2Buses1ms 0000000180056c60 f   c20_SpeedgoatCANOpen2Buses1ms.obj
 0001:00055c90       sf_gateway_c20_SpeedgoatCANOpen2Buses1ms 0000000180056c90 f   c20_SpeedgoatCANOpen2Buses1ms.obj
 0001:00055e80       mdl_start_c20_SpeedgoatCANOpen2Buses1ms 0000000180056e80 f   c20_SpeedgoatCANOpen2Buses1ms.obj
 0001:00055eb0       c20_chartstep_c20_SpeedgoatCANOpen2Buses1ms 0000000180056eb0 f   c20_SpeedgoatCANOpen2Buses1ms.obj
 0001:000593a0       initSimStructsc20_SpeedgoatCANOpen2Buses1ms 000000018005a3a0 f   c20_SpeedgoatCANOpen2Buses1ms.obj
 0001:000593b0       init_script_number_translation 000000018005a3b0 f   c20_SpeedgoatCANOpen2Buses1ms.obj
 0001:000593d0       c20_sf_marshallOut         000000018005a3d0 f   c20_SpeedgoatCANOpen2Buses1ms.obj
 0001:00059480       c20_emlrt_marshallIn       000000018005a480 f   c20_SpeedgoatCANOpen2Buses1ms.obj
 0001:000594f0       c20_b_emlrt_marshallIn     000000018005a4f0 f   c20_SpeedgoatCANOpen2Buses1ms.obj
 0001:00059580       c20_sf_marshallIn          000000018005a580 f   c20_SpeedgoatCANOpen2Buses1ms.obj
 0001:00059630       c20_b_sf_marshallOut       000000018005a630 f   c20_SpeedgoatCANOpen2Buses1ms.obj
 0001:000596e0       c20_c_emlrt_marshallIn     000000018005a6e0 f   c20_SpeedgoatCANOpen2Buses1ms.obj
 0001:00059770       c20_b_sf_marshallIn        000000018005a770 f   c20_SpeedgoatCANOpen2Buses1ms.obj
 0001:00059820       c20_e_emlrt_marshallIn     000000018005a820 f   c20_SpeedgoatCANOpen2Buses1ms.obj
 0001:00059890       c20_f_emlrt_marshallIn     000000018005a890 f   c20_SpeedgoatCANOpen2Buses1ms.obj
 0001:00059920       c20_g_emlrt_marshallIn     000000018005a920 f   c20_SpeedgoatCANOpen2Buses1ms.obj
 0001:00059990       c20_h_emlrt_marshallIn     000000018005a990 f   c20_SpeedgoatCANOpen2Buses1ms.obj
 0001:00059a50       c20_i_emlrt_marshallIn     000000018005aa50 f   c20_SpeedgoatCANOpen2Buses1ms.obj
 0001:00059ae0       c20_j_emlrt_marshallIn     000000018005aae0 f   c20_SpeedgoatCANOpen2Buses1ms.obj
 0001:00059b40       sf_get_hover_data_for_msg  000000018005ab40 f   c20_SpeedgoatCANOpen2Buses1ms.obj
 0001:00059b60       c20_init_sf_message_store_memory 000000018005ab60 f   c20_SpeedgoatCANOpen2Buses1ms.obj
 0001:00059b70       init_dsm_address_info      000000018005ab70 f   c20_SpeedgoatCANOpen2Buses1ms.obj
 0001:00059b80       init_simulink_io_address   000000018005ab80 f   c20_SpeedgoatCANOpen2Buses1ms.obj
 0001:00059ca0       sf_get_sfun_dwork_checksum 000000018005aca0 f   c20_SpeedgoatCANOpen2Buses1ms.obj
 0001:0005a640       sf_get_sim_state_info_c20_SpeedgoatCANOpen2Buses1ms 000000018005b640 f   c20_SpeedgoatCANOpen2Buses1ms.obj
 0001:0005a710       sf_get_instance_specialization 000000018005b710 f   c20_SpeedgoatCANOpen2Buses1ms.obj
 0001:0005a720       sf_check_dwork_consistency 000000018005b720 f   c20_SpeedgoatCANOpen2Buses1ms.obj
 0001:0005a8a0       sf_opaque_initialize_c20_SpeedgoatCANOpen2Buses1ms 000000018005b8a0 f   c20_SpeedgoatCANOpen2Buses1ms.obj
 0001:0005a8f0       sf_opaque_enable_c20_SpeedgoatCANOpen2Buses1ms 000000018005b8f0 f   c20_SpeedgoatCANOpen2Buses1ms.obj
 0001:0005a910       sf_opaque_disable_c20_SpeedgoatCANOpen2Buses1ms 000000018005b910 f   c20_SpeedgoatCANOpen2Buses1ms.obj
 0001:0005a930       sf_opaque_gateway_c20_SpeedgoatCANOpen2Buses1ms 000000018005b930 f   c20_SpeedgoatCANOpen2Buses1ms.obj
 0001:0005a950       sf_opaque_ext_mode_exec_c20_SpeedgoatCANOpen2Buses1ms 000000018005b950 f   c20_SpeedgoatCANOpen2Buses1ms.obj
 0001:0005a970       sf_opaque_get_sim_state_c20_SpeedgoatCANOpen2Buses1ms 000000018005b970 f   c20_SpeedgoatCANOpen2Buses1ms.obj
 0001:0005a9a0       sf_opaque_set_sim_state_c20_SpeedgoatCANOpen2Buses1ms 000000018005b9a0 f   c20_SpeedgoatCANOpen2Buses1ms.obj
 0001:0005a9d0       sf_opaque_terminate_c20_SpeedgoatCANOpen2Buses1ms 000000018005b9d0 f   c20_SpeedgoatCANOpen2Buses1ms.obj
 0001:0005aa70       mdlProcessParameters_c20_SpeedgoatCANOpen2Buses1ms 000000018005ba70 f   c20_SpeedgoatCANOpen2Buses1ms.obj
 0001:0005ab40       sf_set_sfun_dwork_info     000000018005bb40 f   c20_SpeedgoatCANOpen2Buses1ms.obj
 0001:0005ab80       mdlSetWorkWidths_c20_SpeedgoatCANOpen2Buses1ms 000000018005bb80 f   c20_SpeedgoatCANOpen2Buses1ms.obj
 0001:0005b230       mdlRTW_c20_SpeedgoatCANOpen2Buses1ms 000000018005c230 f   c20_SpeedgoatCANOpen2Buses1ms.obj
 0001:0005b270       mdlStart_c20_SpeedgoatCANOpen2Buses1ms 000000018005c270 f   c20_SpeedgoatCANOpen2Buses1ms.obj
 0001:0005d9dc       $LN180                     000000018005e9dc     SpeedgoatCANOpen2Buses1ms_sfun_registry.obj
 0001:0005e7c4       $LN17                      000000018005f7c4     SpeedgoatCANOpen2Buses1ms_sfun_registry.obj
 0001:0005eec4       $LN26                      000000018005fec4     SpeedgoatCANOpen2Buses1ms_sfun_registry.obj
 0001:0005f5a4       $LN23                      00000001800605a4     SpeedgoatCANOpen2Buses1ms_sfun_registry.obj
 0001:0006015c       $LN26                      000000018006115c     SpeedgoatCANOpen2Buses1ms_sfun_registry.obj
 0001:00062b60       sf_debug_api_wrapper       0000000180063b60 f   SpeedgoatCANOpen2Buses1ms_sfun_registry.obj
 0001:00062bb0       ProcessMexSfunctionCmdLineCall 0000000180063bb0 f   SpeedgoatCANOpen2Buses1ms_sfun_registry.obj
 0001:00062f50       mdlSetWorkWidths           0000000180063f50 f   SpeedgoatCANOpen2Buses1ms_sfun_registry.obj
 0001:00062fa0       mdlProcessParameters       0000000180063fa0 f   SpeedgoatCANOpen2Buses1ms_sfun_registry.obj
 0001:00062fd0       mdl_start_processing       0000000180063fd0 f   SpeedgoatCANOpen2Buses1ms_sfun_registry.obj
 0001:00063030       mdl_terminate_processing   0000000180064030 f   SpeedgoatCANOpen2Buses1ms_sfun_registry.obj
 0001:000630f0       mdlStart                   00000001800640f0 f   SpeedgoatCANOpen2Buses1ms_sfun_registry.obj
 0001:00063120       mdlTerminate               0000000180064120 f   SpeedgoatCANOpen2Buses1ms_sfun_registry.obj
 0001:00063150       mdlInitializeSizes         0000000180064150 f   SpeedgoatCANOpen2Buses1ms_sfun_registry.obj
 0001:00063180       mdlInitializeSampleTimes   0000000180064180 f   SpeedgoatCANOpen2Buses1ms_sfun_registry.obj
 0001:000631b0       mdl_outputs_continuous_legacy 00000001800641b0 f   SpeedgoatCANOpen2Buses1ms_sfun_registry.obj
 0001:000632b0       mdl_outputs_processing     00000001800642b0 f   SpeedgoatCANOpen2Buses1ms_sfun_registry.obj
 0001:000633d0       mdl_zeroCrossings_processing 00000001800643d0 f   SpeedgoatCANOpen2Buses1ms_sfun_registry.obj
 0001:00063410       mdlZeroCrossings           0000000180064410 f   SpeedgoatCANOpen2Buses1ms_sfun_registry.obj
 0001:00063440       mdl_derivatives_processing 0000000180064440 f   SpeedgoatCANOpen2Buses1ms_sfun_registry.obj
 0001:00063490       mdlDerivatives             0000000180064490 f   SpeedgoatCANOpen2Buses1ms_sfun_registry.obj
 0001:000634c0       mdl_initialize_conditions_processing 00000001800644c0 f   SpeedgoatCANOpen2Buses1ms_sfun_registry.obj
 0001:00063510       mdlInitializeConditions    0000000180064510 f   SpeedgoatCANOpen2Buses1ms_sfun_registry.obj
 0001:00063540       mdl_ext_mode_exec_processing 0000000180064540 f   SpeedgoatCANOpen2Buses1ms_sfun_registry.obj
 0001:00063580       mdlExtModeExec             0000000180064580 f   SpeedgoatCANOpen2Buses1ms_sfun_registry.obj
 0001:000635b0       mdlRTW                     00000001800645b0 f   SpeedgoatCANOpen2Buses1ms_sfun_registry.obj
 0001:000635f0       mdl_enable_processing      00000001800645f0 f   SpeedgoatCANOpen2Buses1ms_sfun_registry.obj
 0001:00063630       mdlEnable                  0000000180064630 f   SpeedgoatCANOpen2Buses1ms_sfun_registry.obj
 0001:00063660       mdl_disable_processing     0000000180064660 f   SpeedgoatCANOpen2Buses1ms_sfun_registry.obj
 0001:000636a0       mdlDisable                 00000001800646a0 f   SpeedgoatCANOpen2Buses1ms_sfun_registry.obj
 0001:000636d0       mdlOutputs                 00000001800646d0 f   SpeedgoatCANOpen2Buses1ms_sfun_registry.obj
 0001:00063700       mdl_update_processing      0000000180064700 f   SpeedgoatCANOpen2Buses1ms_sfun_registry.obj
 0001:00063750       mdlUpdate                  0000000180064750 f   SpeedgoatCANOpen2Buses1ms_sfun_registry.obj
 0001:00063930       mdlGetTimeOfNextVarHit     0000000180064930 f   SpeedgoatCANOpen2Buses1ms_sfun_registry.obj
 0001:00063980       _RegNumInputPortsCB        0000000180064980 f   SpeedgoatCANOpen2Buses1ms_sfun_registry.obj
 0001:00063a00       _RegNumOutputPortsCB       0000000180064a00 f   SpeedgoatCANOpen2Buses1ms_sfun_registry.obj
 0001:00063a80       _CreateSimStruct           0000000180064a80 f   SpeedgoatCANOpen2Buses1ms_sfun_registry.obj
 0001:00063c80       _ProcessMexSfunctionCmdLineCall 0000000180064c80 f   SpeedgoatCANOpen2Buses1ms_sfun_registry.obj
 0001:000646c0       ReportIndexOutOfBoundsError 00000001800656c0 f   SpeedgoatCANOpen2Buses1ms_sfun_registry.obj
 0001:00064f5c       capture_current_context    0000000180065f5c f   MSVCRT:gs_report.obj
 0001:00064fcc       capture_previous_context   0000000180065fcc f   MSVCRT:gs_report.obj
 0001:000650c0       $$000000                   00000001800660c0     MSVCRT:amdsecgs.obj
 0001:000650f4       ?dllmain_crt_dispatch@@YAHQEAUHINSTANCE__@@KQEAX@Z 00000001800660f4 f   MSVCRT:dll_dllmain.obj
 0001:00065144       ?dllmain_crt_process_attach@@YAHQEAUHINSTANCE__@@QEAX@Z 0000000180066144 f   MSVCRT:dll_dllmain.obj
 0001:00065260       ?dllmain_crt_process_detach@@YAH_N@Z 0000000180066260 f   MSVCRT:dll_dllmain.obj
 0001:000652f0       ?dllmain_dispatch@@YAHQEAUHINSTANCE__@@KQEAX@Z 00000001800662f0 f   MSVCRT:dll_dllmain.obj
 0001:00065424       ?dllmain_raw@@YAHQEAUHINSTANCE__@@KQEAX@Z 0000000180066424 f   MSVCRT:dll_dllmain.obj
 0001:00065488       __get_entropy              0000000180066488 f   MSVCRT:gs_support.obj
 0001:0006565c       ?find_pe_section@@YAPEAU_IMAGE_SECTION_HEADER@@QEAE_K@Z 000000018006665c f   MSVCRT:utility.obj
 0001:000656b0       ?is_potentially_valid_image_base@@YA_NQEAX@Z 00000001800666b0 f   MSVCRT:utility.obj
 0001:00066080       $$000000                   0000000180067080     MSVCRT:guard_dispatch.obj
 0001:00066092       ?fin$0@?0??dllmain_crt_process_attach@@YAHQEAUHINSTANCE__@@QEAX@Z@4HA 0000000180067092 f   MSVCRT:dll_dllmain.obj
 0001:000660a9       ?fin$0@?0??dllmain_crt_process_detach@@YAH_N@Z@4HA 00000001800670a9 f   MSVCRT:dll_dllmain.obj
 0001:000660c5       ?filt$0@?0??dllmain_dispatch@@YAHQEAUHINSTANCE__@@KQEAX@Z@4HA 00000001800670c5 f   MSVCRT:dll_dllmain.obj
 0001:000660fb       __scrt_is_nonwritable_in_current_image$filt$0 00000001800670fb f   MSVCRT:utility.obj
 0002:000007d8       GS_ExceptionPointers       00000001800687d8     MSVCRT:gs_report.obj
 0002:00000b48       $unwind$load_SpeedgoatCANOpen2Buses1ms_optimization_info 0000000180068b48     SpeedgoatCANOpen2Buses1ms_sfun.obj
 0002:00000b50       $unwind$unload_SpeedgoatCANOpen2Buses1ms_optimization_info 0000000180068b50     SpeedgoatCANOpen2Buses1ms_sfun.obj
 0002:00000b58       $unwind$sf_SpeedgoatCANOpen2Buses1ms_method_dispatcher 0000000180068b58     SpeedgoatCANOpen2Buses1ms_sfun.obj
 0002:00000b60       $unwind$sf_SpeedgoatCANOpen2Buses1ms_process_testpoint_info_call 0000000180068b60     SpeedgoatCANOpen2Buses1ms_sfun.obj
 0002:00000b70       $unwind$sf_SpeedgoatCANOpen2Buses1ms_process_check_sum_call 0000000180068b70     SpeedgoatCANOpen2Buses1ms_sfun.obj
 0002:00000b80       $unwind$sf_SpeedgoatCANOpen2Buses1ms_autoinheritance_info 0000000180068b80     SpeedgoatCANOpen2Buses1ms_sfun.obj
 0002:00000b90       $unwind$sf_SpeedgoatCANOpen2Buses1ms_get_eml_resolved_functions_info 0000000180068b90     SpeedgoatCANOpen2Buses1ms_sfun.obj
 0002:00000ba0       $unwind$sf_SpeedgoatCANOpen2Buses1ms_third_party_uses_info 0000000180068ba0     SpeedgoatCANOpen2Buses1ms_sfun.obj
 0002:00000bb0       $unwind$sf_SpeedgoatCANOpen2Buses1ms_jit_fallback_info 0000000180068bb0     SpeedgoatCANOpen2Buses1ms_sfun.obj
 0002:00000bc0       $unwind$sf_SpeedgoatCANOpen2Buses1ms_updateBuildInfo_args_info 0000000180068bc0     SpeedgoatCANOpen2Buses1ms_sfun.obj
 0002:00000bd0       $unwind$SpeedgoatCANOpen2Buses1ms_debug_initialize 0000000180068bd0     SpeedgoatCANOpen2Buses1ms_sfun.obj
 0002:00000bd8       $unwind$sf_c1_SpeedgoatCANOpen2Buses1ms_get_eml_resolved_functions_info 0000000180068bd8     c1_SpeedgoatCANOpen2Buses1ms.obj
 0002:00000be0       $unwind$sf_c1_SpeedgoatCANOpen2Buses1ms_get_check_sum 0000000180068be0     c1_SpeedgoatCANOpen2Buses1ms.obj
 0002:00000be8       $unwind$c1_SpeedgoatCANOpen2Buses1ms_method_dispatcher 0000000180068be8     c1_SpeedgoatCANOpen2Buses1ms.obj
 0002:00000bf0       $unwind$chart_debug_initialization 0000000180068bf0     c1_SpeedgoatCANOpen2Buses1ms.obj
 0002:00000bf8       $unwind$chart_debug_initialize_data_addresses 0000000180068bf8     c1_SpeedgoatCANOpen2Buses1ms.obj
 0002:00000c00       $unwind$sf_opaque_get_hover_data_for_msg 0000000180068c00     c1_SpeedgoatCANOpen2Buses1ms.obj
 0002:00000c08       $unwind$initialize_c1_SpeedgoatCANOpen2Buses1ms 0000000180068c08     c1_SpeedgoatCANOpen2Buses1ms.obj
 0002:00000c10       $unwind$enable_c1_SpeedgoatCANOpen2Buses1ms 0000000180068c10     c1_SpeedgoatCANOpen2Buses1ms.obj
 0002:00000c18       $unwind$disable_c1_SpeedgoatCANOpen2Buses1ms 0000000180068c18     c1_SpeedgoatCANOpen2Buses1ms.obj
 0002:00000c20       $unwind$c1_update_debugger_state_c1_SpeedgoatCANOpen2Buses1ms 0000000180068c20     c1_SpeedgoatCANOpen2Buses1ms.obj
 0002:00000c28       $unwind$ext_mode_exec_c1_SpeedgoatCANOpen2Buses1ms 0000000180068c28     c1_SpeedgoatCANOpen2Buses1ms.obj
 0002:00000c30       $unwind$get_sim_state_c1_SpeedgoatCANOpen2Buses1ms 0000000180068c30     c1_SpeedgoatCANOpen2Buses1ms.obj
 0002:00000c38       $unwind$set_sim_state_c1_SpeedgoatCANOpen2Buses1ms 0000000180068c38     c1_SpeedgoatCANOpen2Buses1ms.obj
 0002:00000c48       $unwind$finalize_c1_SpeedgoatCANOpen2Buses1ms 0000000180068c48     c1_SpeedgoatCANOpen2Buses1ms.obj
 0002:00000c50       $unwind$sf_gateway_c1_SpeedgoatCANOpen2Buses1ms 0000000180068c50     c1_SpeedgoatCANOpen2Buses1ms.obj
 0002:00000c58       $unwind$mdl_start_c1_SpeedgoatCANOpen2Buses1ms 0000000180068c58     c1_SpeedgoatCANOpen2Buses1ms.obj
 0002:00000c60       $unwind$c1_chartstep_c1_SpeedgoatCANOpen2Buses1ms 0000000180068c60     c1_SpeedgoatCANOpen2Buses1ms.obj
 0002:00000c70       $unwind$c1_enter_atomic_Init 0000000180068c70     c1_SpeedgoatCANOpen2Buses1ms.obj
 0002:00000c78       $unwind$c1_enter_atomic_Wait 0000000180068c78     c1_SpeedgoatCANOpen2Buses1ms.obj
 0002:00000c80       $unwind$c1_sf_marshallOut  0000000180068c80     c1_SpeedgoatCANOpen2Buses1ms.obj
 0002:00000c88       $unwind$c1_emlrt_marshallIn 0000000180068c88     c1_SpeedgoatCANOpen2Buses1ms.obj
 0002:00000c90       $unwind$c1_sf_marshallIn   0000000180068c90     c1_SpeedgoatCANOpen2Buses1ms.obj
 0002:00000c98       $unwind$c1_b_sf_marshallOut 0000000180068c98     c1_SpeedgoatCANOpen2Buses1ms.obj
 0002:00000ca0       $unwind$c1_b_emlrt_marshallIn 0000000180068ca0     c1_SpeedgoatCANOpen2Buses1ms.obj
 0002:00000ca8       $unwind$c1_b_sf_marshallIn 0000000180068ca8     c1_SpeedgoatCANOpen2Buses1ms.obj
 0002:00000cb0       $unwind$c1_d_sf_marshallOut 0000000180068cb0     c1_SpeedgoatCANOpen2Buses1ms.obj
 0002:00000cb8       $unwind$c1_d_emlrt_marshallIn 0000000180068cb8     c1_SpeedgoatCANOpen2Buses1ms.obj
 0002:00000cc0       $unwind$c1_e_emlrt_marshallIn 0000000180068cc0     c1_SpeedgoatCANOpen2Buses1ms.obj
 0002:00000cc8       $unwind$c1_d_sf_marshallIn 0000000180068cc8     c1_SpeedgoatCANOpen2Buses1ms.obj
 0002:00000cd0       $unwind$c1_f_emlrt_marshallIn 0000000180068cd0     c1_SpeedgoatCANOpen2Buses1ms.obj
 0002:00000cd8       $unwind$c1_g_emlrt_marshallIn 0000000180068cd8     c1_SpeedgoatCANOpen2Buses1ms.obj
 0002:00000ce0       $unwind$c1_h_emlrt_marshallIn 0000000180068ce0     c1_SpeedgoatCANOpen2Buses1ms.obj
 0002:00000ce8       $unwind$c1_i_emlrt_marshallIn 0000000180068ce8     c1_SpeedgoatCANOpen2Buses1ms.obj
 0002:00000cf8       $unwind$c1_j_emlrt_marshallIn 0000000180068cf8     c1_SpeedgoatCANOpen2Buses1ms.obj
 0002:00000d00       $unwind$c1_k_emlrt_marshallIn 0000000180068d00     c1_SpeedgoatCANOpen2Buses1ms.obj
 0002:00000d08       $unwind$init_simulink_io_address 0000000180068d08     c1_SpeedgoatCANOpen2Buses1ms.obj
 0002:00000d10       $unwind$sf_c1_SpeedgoatCANOpen2Buses1ms_get_post_codegen_info 0000000180068d10     c1_SpeedgoatCANOpen2Buses1ms.obj
 0002:00000d18       $unwind$sf_c1_SpeedgoatCANOpen2Buses1ms_get_autoinheritance_info 0000000180068d18     c1_SpeedgoatCANOpen2Buses1ms.obj
 0002:00000d28       $unwind$sf_c1_SpeedgoatCANOpen2Buses1ms_third_party_uses_info 0000000180068d28     c1_SpeedgoatCANOpen2Buses1ms.obj
 0002:00000d30       $unwind$sf_c1_SpeedgoatCANOpen2Buses1ms_jit_fallback_info 0000000180068d30     c1_SpeedgoatCANOpen2Buses1ms.obj
 0002:00000d40       $unwind$sf_c1_SpeedgoatCANOpen2Buses1ms_updateBuildInfo_args_info 0000000180068d40     c1_SpeedgoatCANOpen2Buses1ms.obj
 0002:00000d48       $unwind$sf_get_sim_state_info_c1_SpeedgoatCANOpen2Buses1ms 0000000180068d48     c1_SpeedgoatCANOpen2Buses1ms.obj
 0002:00000d50       $unwind$sf_check_dwork_consistency 0000000180068d50     c1_SpeedgoatCANOpen2Buses1ms.obj
 0002:00000d58       $unwind$sf_opaque_initialize_c1_SpeedgoatCANOpen2Buses1ms 0000000180068d58     c1_SpeedgoatCANOpen2Buses1ms.obj
 0002:00000d60       $unwind$sf_opaque_enable_c1_SpeedgoatCANOpen2Buses1ms 0000000180068d60     c1_SpeedgoatCANOpen2Buses1ms.obj
 0002:00000d68       $unwind$sf_opaque_disable_c1_SpeedgoatCANOpen2Buses1ms 0000000180068d68     c1_SpeedgoatCANOpen2Buses1ms.obj
 0002:00000d70       $unwind$sf_opaque_gateway_c1_SpeedgoatCANOpen2Buses1ms 0000000180068d70     c1_SpeedgoatCANOpen2Buses1ms.obj
 0002:00000d78       $unwind$sf_opaque_ext_mode_exec_c1_SpeedgoatCANOpen2Buses1ms 0000000180068d78     c1_SpeedgoatCANOpen2Buses1ms.obj
 0002:00000d80       $unwind$sf_opaque_get_sim_state_c1_SpeedgoatCANOpen2Buses1ms 0000000180068d80     c1_SpeedgoatCANOpen2Buses1ms.obj
 0002:00000d88       $unwind$sf_opaque_set_sim_state_c1_SpeedgoatCANOpen2Buses1ms 0000000180068d88     c1_SpeedgoatCANOpen2Buses1ms.obj
 0002:00000d90       $unwind$sf_opaque_terminate_c1_SpeedgoatCANOpen2Buses1ms 0000000180068d90     c1_SpeedgoatCANOpen2Buses1ms.obj
 0002:00000d98       $unwind$mdlProcessParameters_c1_SpeedgoatCANOpen2Buses1ms 0000000180068d98     c1_SpeedgoatCANOpen2Buses1ms.obj
 0002:00000da0       $unwind$sf_set_sfun_dwork_info 0000000180068da0     c1_SpeedgoatCANOpen2Buses1ms.obj
 0002:00000da8       $unwind$mdlSetWorkWidths_c1_SpeedgoatCANOpen2Buses1ms 0000000180068da8     c1_SpeedgoatCANOpen2Buses1ms.obj
 0002:00000db0       $unwind$mdlRTW_c1_SpeedgoatCANOpen2Buses1ms 0000000180068db0     c1_SpeedgoatCANOpen2Buses1ms.obj
 0002:00000db8       $unwind$mdlStart_c1_SpeedgoatCANOpen2Buses1ms 0000000180068db8     c1_SpeedgoatCANOpen2Buses1ms.obj
 0002:00000dc0       $unwind$sf_c2_SpeedgoatCANOpen2Buses1ms_get_eml_resolved_functions_info 0000000180068dc0     c2_SpeedgoatCANOpen2Buses1ms.obj
 0002:00000dc8       $unwind$sf_c2_SpeedgoatCANOpen2Buses1ms_get_check_sum 0000000180068dc8     c2_SpeedgoatCANOpen2Buses1ms.obj
 0002:00000dd0       $unwind$c2_SpeedgoatCANOpen2Buses1ms_method_dispatcher 0000000180068dd0     c2_SpeedgoatCANOpen2Buses1ms.obj
 0002:00000dd8       $unwind$chart_debug_initialization 0000000180068dd8     c2_SpeedgoatCANOpen2Buses1ms.obj
 0002:00000de0       $unwind$chart_debug_initialize_data_addresses 0000000180068de0     c2_SpeedgoatCANOpen2Buses1ms.obj
 0002:00000de8       $unwind$sf_opaque_get_hover_data_for_msg 0000000180068de8     c2_SpeedgoatCANOpen2Buses1ms.obj
 0002:00000df0       $unwind$initialize_c2_SpeedgoatCANOpen2Buses1ms 0000000180068df0     c2_SpeedgoatCANOpen2Buses1ms.obj
 0002:00000df8       $unwind$enable_c2_SpeedgoatCANOpen2Buses1ms 0000000180068df8     c2_SpeedgoatCANOpen2Buses1ms.obj
 0002:00000e00       $unwind$disable_c2_SpeedgoatCANOpen2Buses1ms 0000000180068e00     c2_SpeedgoatCANOpen2Buses1ms.obj
 0002:00000e08       $unwind$c2_update_debugger_state_c2_SpeedgoatCANOpen2Buses1ms 0000000180068e08     c2_SpeedgoatCANOpen2Buses1ms.obj
 0002:00000e10       $unwind$ext_mode_exec_c2_SpeedgoatCANOpen2Buses1ms 0000000180068e10     c2_SpeedgoatCANOpen2Buses1ms.obj
 0002:00000e18       $unwind$get_sim_state_c2_SpeedgoatCANOpen2Buses1ms 0000000180068e18     c2_SpeedgoatCANOpen2Buses1ms.obj
 0002:00000e20       $unwind$set_sim_state_c2_SpeedgoatCANOpen2Buses1ms 0000000180068e20     c2_SpeedgoatCANOpen2Buses1ms.obj
 0002:00000e30       $unwind$finalize_c2_SpeedgoatCANOpen2Buses1ms 0000000180068e30     c2_SpeedgoatCANOpen2Buses1ms.obj
 0002:00000e38       $unwind$sf_gateway_c2_SpeedgoatCANOpen2Buses1ms 0000000180068e38     c2_SpeedgoatCANOpen2Buses1ms.obj
 0002:00000e40       $unwind$mdl_start_c2_SpeedgoatCANOpen2Buses1ms 0000000180068e40     c2_SpeedgoatCANOpen2Buses1ms.obj
 0002:00000e48       $unwind$c2_chartstep_c2_SpeedgoatCANOpen2Buses1ms 0000000180068e48     c2_SpeedgoatCANOpen2Buses1ms.obj
 0002:00000e58       $unwind$c2_enter_atomic_Init 0000000180068e58     c2_SpeedgoatCANOpen2Buses1ms.obj
 0002:00000e60       $unwind$c2_enter_atomic_Wait 0000000180068e60     c2_SpeedgoatCANOpen2Buses1ms.obj
 0002:00000e68       $unwind$c2_sf_marshallOut  0000000180068e68     c2_SpeedgoatCANOpen2Buses1ms.obj
 0002:00000e70       $unwind$c2_emlrt_marshallIn 0000000180068e70     c2_SpeedgoatCANOpen2Buses1ms.obj
 0002:00000e78       $unwind$c2_sf_marshallIn   0000000180068e78     c2_SpeedgoatCANOpen2Buses1ms.obj
 0002:00000e80       $unwind$c2_b_sf_marshallOut 0000000180068e80     c2_SpeedgoatCANOpen2Buses1ms.obj
 0002:00000e88       $unwind$c2_b_emlrt_marshallIn 0000000180068e88     c2_SpeedgoatCANOpen2Buses1ms.obj
 0002:00000e90       $unwind$c2_b_sf_marshallIn 0000000180068e90     c2_SpeedgoatCANOpen2Buses1ms.obj
 0002:00000e98       $unwind$c2_d_sf_marshallOut 0000000180068e98     c2_SpeedgoatCANOpen2Buses1ms.obj
 0002:00000ea0       $unwind$c2_d_emlrt_marshallIn 0000000180068ea0     c2_SpeedgoatCANOpen2Buses1ms.obj
 0002:00000ea8       $unwind$c2_e_emlrt_marshallIn 0000000180068ea8     c2_SpeedgoatCANOpen2Buses1ms.obj
 0002:00000eb0       $unwind$c2_d_sf_marshallIn 0000000180068eb0     c2_SpeedgoatCANOpen2Buses1ms.obj
 0002:00000eb8       $unwind$c2_f_emlrt_marshallIn 0000000180068eb8     c2_SpeedgoatCANOpen2Buses1ms.obj
 0002:00000ec0       $unwind$c2_g_emlrt_marshallIn 0000000180068ec0     c2_SpeedgoatCANOpen2Buses1ms.obj
 0002:00000ec8       $unwind$c2_h_emlrt_marshallIn 0000000180068ec8     c2_SpeedgoatCANOpen2Buses1ms.obj
 0002:00000ed0       $unwind$c2_i_emlrt_marshallIn 0000000180068ed0     c2_SpeedgoatCANOpen2Buses1ms.obj
 0002:00000ee0       $unwind$c2_j_emlrt_marshallIn 0000000180068ee0     c2_SpeedgoatCANOpen2Buses1ms.obj
 0002:00000ee8       $unwind$c2_k_emlrt_marshallIn 0000000180068ee8     c2_SpeedgoatCANOpen2Buses1ms.obj
 0002:00000ef0       $unwind$init_simulink_io_address 0000000180068ef0     c2_SpeedgoatCANOpen2Buses1ms.obj
 0002:00000ef8       $unwind$sf_c2_SpeedgoatCANOpen2Buses1ms_get_post_codegen_info 0000000180068ef8     c2_SpeedgoatCANOpen2Buses1ms.obj
 0002:00000f00       $unwind$sf_c2_SpeedgoatCANOpen2Buses1ms_get_autoinheritance_info 0000000180068f00     c2_SpeedgoatCANOpen2Buses1ms.obj
 0002:00000f10       $unwind$sf_c2_SpeedgoatCANOpen2Buses1ms_third_party_uses_info 0000000180068f10     c2_SpeedgoatCANOpen2Buses1ms.obj
 0002:00000f18       $unwind$sf_c2_SpeedgoatCANOpen2Buses1ms_jit_fallback_info 0000000180068f18     c2_SpeedgoatCANOpen2Buses1ms.obj
 0002:00000f28       $unwind$sf_c2_SpeedgoatCANOpen2Buses1ms_updateBuildInfo_args_info 0000000180068f28     c2_SpeedgoatCANOpen2Buses1ms.obj
 0002:00000f30       $unwind$sf_get_sim_state_info_c2_SpeedgoatCANOpen2Buses1ms 0000000180068f30     c2_SpeedgoatCANOpen2Buses1ms.obj
 0002:00000f38       $unwind$sf_check_dwork_consistency 0000000180068f38     c2_SpeedgoatCANOpen2Buses1ms.obj
 0002:00000f40       $unwind$sf_opaque_initialize_c2_SpeedgoatCANOpen2Buses1ms 0000000180068f40     c2_SpeedgoatCANOpen2Buses1ms.obj
 0002:00000f48       $unwind$sf_opaque_enable_c2_SpeedgoatCANOpen2Buses1ms 0000000180068f48     c2_SpeedgoatCANOpen2Buses1ms.obj
 0002:00000f50       $unwind$sf_opaque_disable_c2_SpeedgoatCANOpen2Buses1ms 0000000180068f50     c2_SpeedgoatCANOpen2Buses1ms.obj
 0002:00000f58       $unwind$sf_opaque_gateway_c2_SpeedgoatCANOpen2Buses1ms 0000000180068f58     c2_SpeedgoatCANOpen2Buses1ms.obj
 0002:00000f60       $unwind$sf_opaque_ext_mode_exec_c2_SpeedgoatCANOpen2Buses1ms 0000000180068f60     c2_SpeedgoatCANOpen2Buses1ms.obj
 0002:00000f68       $unwind$sf_opaque_get_sim_state_c2_SpeedgoatCANOpen2Buses1ms 0000000180068f68     c2_SpeedgoatCANOpen2Buses1ms.obj
 0002:00000f70       $unwind$sf_opaque_set_sim_state_c2_SpeedgoatCANOpen2Buses1ms 0000000180068f70     c2_SpeedgoatCANOpen2Buses1ms.obj
 0002:00000f78       $unwind$sf_opaque_terminate_c2_SpeedgoatCANOpen2Buses1ms 0000000180068f78     c2_SpeedgoatCANOpen2Buses1ms.obj
 0002:00000f80       $unwind$mdlProcessParameters_c2_SpeedgoatCANOpen2Buses1ms 0000000180068f80     c2_SpeedgoatCANOpen2Buses1ms.obj
 0002:00000f88       $unwind$sf_set_sfun_dwork_info 0000000180068f88     c2_SpeedgoatCANOpen2Buses1ms.obj
 0002:00000f90       $unwind$mdlSetWorkWidths_c2_SpeedgoatCANOpen2Buses1ms 0000000180068f90     c2_SpeedgoatCANOpen2Buses1ms.obj
 0002:00000f98       $unwind$mdlRTW_c2_SpeedgoatCANOpen2Buses1ms 0000000180068f98     c2_SpeedgoatCANOpen2Buses1ms.obj
 0002:00000fa0       $unwind$mdlStart_c2_SpeedgoatCANOpen2Buses1ms 0000000180068fa0     c2_SpeedgoatCANOpen2Buses1ms.obj
 0002:00000fa8       $unwind$sf_c3_SpeedgoatCANOpen2Buses1ms_get_eml_resolved_functions_info 0000000180068fa8     c3_SpeedgoatCANOpen2Buses1ms.obj
 0002:00000fb0       $unwind$sf_c3_SpeedgoatCANOpen2Buses1ms_get_check_sum 0000000180068fb0     c3_SpeedgoatCANOpen2Buses1ms.obj
 0002:00000fb8       $unwind$c3_SpeedgoatCANOpen2Buses1ms_method_dispatcher 0000000180068fb8     c3_SpeedgoatCANOpen2Buses1ms.obj
 0002:00000fc0       $unwind$chart_debug_initialization 0000000180068fc0     c3_SpeedgoatCANOpen2Buses1ms.obj
 0002:00000fc8       $unwind$chart_debug_initialize_data_addresses 0000000180068fc8     c3_SpeedgoatCANOpen2Buses1ms.obj
 0002:00000fd0       $unwind$sf_opaque_get_hover_data_for_msg 0000000180068fd0     c3_SpeedgoatCANOpen2Buses1ms.obj
 0002:00000fd8       $unwind$initialize_c3_SpeedgoatCANOpen2Buses1ms 0000000180068fd8     c3_SpeedgoatCANOpen2Buses1ms.obj
 0002:00000fe0       $unwind$enable_c3_SpeedgoatCANOpen2Buses1ms 0000000180068fe0     c3_SpeedgoatCANOpen2Buses1ms.obj
 0002:00000fe8       $unwind$disable_c3_SpeedgoatCANOpen2Buses1ms 0000000180068fe8     c3_SpeedgoatCANOpen2Buses1ms.obj
 0002:00000ff0       $unwind$c3_update_debugger_state_c3_SpeedgoatCANOpen2Buses1ms 0000000180068ff0     c3_SpeedgoatCANOpen2Buses1ms.obj
 0002:00000ff8       $unwind$ext_mode_exec_c3_SpeedgoatCANOpen2Buses1ms 0000000180068ff8     c3_SpeedgoatCANOpen2Buses1ms.obj
 0002:00001000       $unwind$get_sim_state_c3_SpeedgoatCANOpen2Buses1ms 0000000180069000     c3_SpeedgoatCANOpen2Buses1ms.obj
 0002:00001008       $unwind$set_sim_state_c3_SpeedgoatCANOpen2Buses1ms 0000000180069008     c3_SpeedgoatCANOpen2Buses1ms.obj
 0002:00001018       $unwind$finalize_c3_SpeedgoatCANOpen2Buses1ms 0000000180069018     c3_SpeedgoatCANOpen2Buses1ms.obj
 0002:00001020       $unwind$sf_gateway_c3_SpeedgoatCANOpen2Buses1ms 0000000180069020     c3_SpeedgoatCANOpen2Buses1ms.obj
 0002:00001028       $unwind$mdl_start_c3_SpeedgoatCANOpen2Buses1ms 0000000180069028     c3_SpeedgoatCANOpen2Buses1ms.obj
 0002:00001030       $unwind$c3_chartstep_c3_SpeedgoatCANOpen2Buses1ms 0000000180069030     c3_SpeedgoatCANOpen2Buses1ms.obj
 0002:00001040       $unwind$c3_enter_atomic_Init 0000000180069040     c3_SpeedgoatCANOpen2Buses1ms.obj
 0002:00001048       $unwind$c3_Clear_Error     0000000180069048     c3_SpeedgoatCANOpen2Buses1ms.obj
 0002:00001058       $unwind$c3_enter_atomic_Wait 0000000180069058     c3_SpeedgoatCANOpen2Buses1ms.obj
 0002:00001060       $unwind$c3_sf_marshallOut  0000000180069060     c3_SpeedgoatCANOpen2Buses1ms.obj
 0002:00001068       $unwind$c3_emlrt_marshallIn 0000000180069068     c3_SpeedgoatCANOpen2Buses1ms.obj
 0002:00001070       $unwind$c3_sf_marshallIn   0000000180069070     c3_SpeedgoatCANOpen2Buses1ms.obj
 0002:00001078       $unwind$c3_b_sf_marshallOut 0000000180069078     c3_SpeedgoatCANOpen2Buses1ms.obj
 0002:00001080       $unwind$c3_b_emlrt_marshallIn 0000000180069080     c3_SpeedgoatCANOpen2Buses1ms.obj
 0002:00001088       $unwind$c3_b_sf_marshallIn 0000000180069088     c3_SpeedgoatCANOpen2Buses1ms.obj
 0002:00001090       $unwind$c3_d_sf_marshallOut 0000000180069090     c3_SpeedgoatCANOpen2Buses1ms.obj
 0002:00001098       $unwind$c3_d_emlrt_marshallIn 0000000180069098     c3_SpeedgoatCANOpen2Buses1ms.obj
 0002:000010a0       $unwind$c3_e_emlrt_marshallIn 00000001800690a0     c3_SpeedgoatCANOpen2Buses1ms.obj
 0002:000010a8       $unwind$c3_d_sf_marshallIn 00000001800690a8     c3_SpeedgoatCANOpen2Buses1ms.obj
 0002:000010b0       $unwind$c3_f_emlrt_marshallIn 00000001800690b0     c3_SpeedgoatCANOpen2Buses1ms.obj
 0002:000010b8       $unwind$c3_g_emlrt_marshallIn 00000001800690b8     c3_SpeedgoatCANOpen2Buses1ms.obj
 0002:000010c0       $unwind$c3_h_emlrt_marshallIn 00000001800690c0     c3_SpeedgoatCANOpen2Buses1ms.obj
 0002:000010c8       $unwind$c3_i_emlrt_marshallIn 00000001800690c8     c3_SpeedgoatCANOpen2Buses1ms.obj
 0002:000010d8       $unwind$c3_j_emlrt_marshallIn 00000001800690d8     c3_SpeedgoatCANOpen2Buses1ms.obj
 0002:000010e0       $unwind$c3_k_emlrt_marshallIn 00000001800690e0     c3_SpeedgoatCANOpen2Buses1ms.obj
 0002:000010e8       $unwind$init_simulink_io_address 00000001800690e8     c3_SpeedgoatCANOpen2Buses1ms.obj
 0002:000010f0       $unwind$sf_c3_SpeedgoatCANOpen2Buses1ms_get_post_codegen_info 00000001800690f0     c3_SpeedgoatCANOpen2Buses1ms.obj
 0002:000010f8       $unwind$sf_c3_SpeedgoatCANOpen2Buses1ms_get_autoinheritance_info 00000001800690f8     c3_SpeedgoatCANOpen2Buses1ms.obj
 0002:00001108       $unwind$sf_c3_SpeedgoatCANOpen2Buses1ms_third_party_uses_info 0000000180069108     c3_SpeedgoatCANOpen2Buses1ms.obj
 0002:00001110       $unwind$sf_c3_SpeedgoatCANOpen2Buses1ms_jit_fallback_info 0000000180069110     c3_SpeedgoatCANOpen2Buses1ms.obj
 0002:00001120       $unwind$sf_c3_SpeedgoatCANOpen2Buses1ms_updateBuildInfo_args_info 0000000180069120     c3_SpeedgoatCANOpen2Buses1ms.obj
 0002:00001128       $unwind$sf_get_sim_state_info_c3_SpeedgoatCANOpen2Buses1ms 0000000180069128     c3_SpeedgoatCANOpen2Buses1ms.obj
 0002:00001130       $unwind$sf_check_dwork_consistency 0000000180069130     c3_SpeedgoatCANOpen2Buses1ms.obj
 0002:00001138       $unwind$sf_opaque_initialize_c3_SpeedgoatCANOpen2Buses1ms 0000000180069138     c3_SpeedgoatCANOpen2Buses1ms.obj
 0002:00001140       $unwind$sf_opaque_enable_c3_SpeedgoatCANOpen2Buses1ms 0000000180069140     c3_SpeedgoatCANOpen2Buses1ms.obj
 0002:00001148       $unwind$sf_opaque_disable_c3_SpeedgoatCANOpen2Buses1ms 0000000180069148     c3_SpeedgoatCANOpen2Buses1ms.obj
 0002:00001150       $unwind$sf_opaque_gateway_c3_SpeedgoatCANOpen2Buses1ms 0000000180069150     c3_SpeedgoatCANOpen2Buses1ms.obj
 0002:00001158       $unwind$sf_opaque_ext_mode_exec_c3_SpeedgoatCANOpen2Buses1ms 0000000180069158     c3_SpeedgoatCANOpen2Buses1ms.obj
 0002:00001160       $unwind$sf_opaque_get_sim_state_c3_SpeedgoatCANOpen2Buses1ms 0000000180069160     c3_SpeedgoatCANOpen2Buses1ms.obj
 0002:00001168       $unwind$sf_opaque_set_sim_state_c3_SpeedgoatCANOpen2Buses1ms 0000000180069168     c3_SpeedgoatCANOpen2Buses1ms.obj
 0002:00001170       $unwind$sf_opaque_terminate_c3_SpeedgoatCANOpen2Buses1ms 0000000180069170     c3_SpeedgoatCANOpen2Buses1ms.obj
 0002:00001178       $unwind$mdlProcessParameters_c3_SpeedgoatCANOpen2Buses1ms 0000000180069178     c3_SpeedgoatCANOpen2Buses1ms.obj
 0002:00001180       $unwind$sf_set_sfun_dwork_info 0000000180069180     c3_SpeedgoatCANOpen2Buses1ms.obj
 0002:00001188       $unwind$mdlSetWorkWidths_c3_SpeedgoatCANOpen2Buses1ms 0000000180069188     c3_SpeedgoatCANOpen2Buses1ms.obj
 0002:00001190       $unwind$mdlRTW_c3_SpeedgoatCANOpen2Buses1ms 0000000180069190     c3_SpeedgoatCANOpen2Buses1ms.obj
 0002:00001198       $unwind$mdlStart_c3_SpeedgoatCANOpen2Buses1ms 0000000180069198     c3_SpeedgoatCANOpen2Buses1ms.obj
 0002:000011a0       $unwind$sf_c4_SpeedgoatCANOpen2Buses1ms_get_eml_resolved_functions_info 00000001800691a0     c4_SpeedgoatCANOpen2Buses1ms.obj
 0002:000011a8       $unwind$sf_c4_SpeedgoatCANOpen2Buses1ms_get_check_sum 00000001800691a8     c4_SpeedgoatCANOpen2Buses1ms.obj
 0002:000011b0       $unwind$c4_SpeedgoatCANOpen2Buses1ms_method_dispatcher 00000001800691b0     c4_SpeedgoatCANOpen2Buses1ms.obj
 0002:000011b8       $unwind$chart_debug_initialization 00000001800691b8     c4_SpeedgoatCANOpen2Buses1ms.obj
 0002:000011c0       $unwind$chart_debug_initialize_data_addresses 00000001800691c0     c4_SpeedgoatCANOpen2Buses1ms.obj
 0002:000011c8       $unwind$sf_opaque_get_hover_data_for_msg 00000001800691c8     c4_SpeedgoatCANOpen2Buses1ms.obj
 0002:000011d0       $unwind$initialize_c4_SpeedgoatCANOpen2Buses1ms 00000001800691d0     c4_SpeedgoatCANOpen2Buses1ms.obj
 0002:000011d8       $unwind$enable_c4_SpeedgoatCANOpen2Buses1ms 00000001800691d8     c4_SpeedgoatCANOpen2Buses1ms.obj
 0002:000011e0       $unwind$disable_c4_SpeedgoatCANOpen2Buses1ms 00000001800691e0     c4_SpeedgoatCANOpen2Buses1ms.obj
 0002:000011e8       $unwind$c4_update_debugger_state_c4_SpeedgoatCANOpen2Buses1ms 00000001800691e8     c4_SpeedgoatCANOpen2Buses1ms.obj
 0002:000011f0       $unwind$ext_mode_exec_c4_SpeedgoatCANOpen2Buses1ms 00000001800691f0     c4_SpeedgoatCANOpen2Buses1ms.obj
 0002:000011f8       $unwind$get_sim_state_c4_SpeedgoatCANOpen2Buses1ms 00000001800691f8     c4_SpeedgoatCANOpen2Buses1ms.obj
 0002:00001200       $unwind$set_sim_state_c4_SpeedgoatCANOpen2Buses1ms 0000000180069200     c4_SpeedgoatCANOpen2Buses1ms.obj
 0002:00001208       $unwind$finalize_c4_SpeedgoatCANOpen2Buses1ms 0000000180069208     c4_SpeedgoatCANOpen2Buses1ms.obj
 0002:00001210       $unwind$sf_gateway_c4_SpeedgoatCANOpen2Buses1ms 0000000180069210     c4_SpeedgoatCANOpen2Buses1ms.obj
 0002:00001220       $unwind$mdl_start_c4_SpeedgoatCANOpen2Buses1ms 0000000180069220     c4_SpeedgoatCANOpen2Buses1ms.obj
 0002:00001228       $unwind$c4_sf_marshallOut  0000000180069228     c4_SpeedgoatCANOpen2Buses1ms.obj
 0002:00001230       $unwind$c4_emlrt_marshallIn 0000000180069230     c4_SpeedgoatCANOpen2Buses1ms.obj
 0002:00001238       $unwind$c4_sf_marshallIn   0000000180069238     c4_SpeedgoatCANOpen2Buses1ms.obj
 0002:00001240       $unwind$c4_b_sf_marshallOut 0000000180069240     c4_SpeedgoatCANOpen2Buses1ms.obj
 0002:00001248       $unwind$c4_b_emlrt_marshallIn 0000000180069248     c4_SpeedgoatCANOpen2Buses1ms.obj
 0002:00001250       $unwind$c4_b_sf_marshallIn 0000000180069250     c4_SpeedgoatCANOpen2Buses1ms.obj
 0002:00001258       $unwind$c4_d_sf_marshallOut 0000000180069258     c4_SpeedgoatCANOpen2Buses1ms.obj
 0002:00001260       $unwind$c4_d_emlrt_marshallIn 0000000180069260     c4_SpeedgoatCANOpen2Buses1ms.obj
 0002:00001268       $unwind$c4_e_emlrt_marshallIn 0000000180069268     c4_SpeedgoatCANOpen2Buses1ms.obj
 0002:00001270       $unwind$c4_d_sf_marshallIn 0000000180069270     c4_SpeedgoatCANOpen2Buses1ms.obj
 0002:00001278       $unwind$c4_f_emlrt_marshallIn 0000000180069278     c4_SpeedgoatCANOpen2Buses1ms.obj
 0002:00001280       $unwind$c4_g_emlrt_marshallIn 0000000180069280     c4_SpeedgoatCANOpen2Buses1ms.obj
 0002:00001288       $unwind$c4_h_emlrt_marshallIn 0000000180069288     c4_SpeedgoatCANOpen2Buses1ms.obj
 0002:00001290       $unwind$c4_i_emlrt_marshallIn 0000000180069290     c4_SpeedgoatCANOpen2Buses1ms.obj
 0002:00001298       $unwind$c4_j_emlrt_marshallIn 0000000180069298     c4_SpeedgoatCANOpen2Buses1ms.obj
 0002:000012a0       $unwind$c4_k_emlrt_marshallIn 00000001800692a0     c4_SpeedgoatCANOpen2Buses1ms.obj
 0002:000012a8       $unwind$init_simulink_io_address 00000001800692a8     c4_SpeedgoatCANOpen2Buses1ms.obj
 0002:000012b0       $unwind$sf_c4_SpeedgoatCANOpen2Buses1ms_get_post_codegen_info 00000001800692b0     c4_SpeedgoatCANOpen2Buses1ms.obj
 0002:000012b8       $unwind$sf_c4_SpeedgoatCANOpen2Buses1ms_get_autoinheritance_info 00000001800692b8     c4_SpeedgoatCANOpen2Buses1ms.obj
 0002:000012c8       $unwind$sf_c4_SpeedgoatCANOpen2Buses1ms_third_party_uses_info 00000001800692c8     c4_SpeedgoatCANOpen2Buses1ms.obj
 0002:000012d0       $unwind$sf_c4_SpeedgoatCANOpen2Buses1ms_jit_fallback_info 00000001800692d0     c4_SpeedgoatCANOpen2Buses1ms.obj
 0002:000012e0       $unwind$sf_c4_SpeedgoatCANOpen2Buses1ms_updateBuildInfo_args_info 00000001800692e0     c4_SpeedgoatCANOpen2Buses1ms.obj
 0002:000012e8       $unwind$sf_get_sim_state_info_c4_SpeedgoatCANOpen2Buses1ms 00000001800692e8     c4_SpeedgoatCANOpen2Buses1ms.obj
 0002:000012f0       $unwind$sf_check_dwork_consistency 00000001800692f0     c4_SpeedgoatCANOpen2Buses1ms.obj
 0002:000012f8       $unwind$sf_opaque_initialize_c4_SpeedgoatCANOpen2Buses1ms 00000001800692f8     c4_SpeedgoatCANOpen2Buses1ms.obj
 0002:00001300       $unwind$sf_opaque_enable_c4_SpeedgoatCANOpen2Buses1ms 0000000180069300     c4_SpeedgoatCANOpen2Buses1ms.obj
 0002:00001308       $unwind$sf_opaque_disable_c4_SpeedgoatCANOpen2Buses1ms 0000000180069308     c4_SpeedgoatCANOpen2Buses1ms.obj
 0002:00001310       $unwind$sf_opaque_gateway_c4_SpeedgoatCANOpen2Buses1ms 0000000180069310     c4_SpeedgoatCANOpen2Buses1ms.obj
 0002:00001318       $unwind$sf_opaque_ext_mode_exec_c4_SpeedgoatCANOpen2Buses1ms 0000000180069318     c4_SpeedgoatCANOpen2Buses1ms.obj
 0002:00001320       $unwind$sf_opaque_get_sim_state_c4_SpeedgoatCANOpen2Buses1ms 0000000180069320     c4_SpeedgoatCANOpen2Buses1ms.obj
 0002:00001328       $unwind$sf_opaque_set_sim_state_c4_SpeedgoatCANOpen2Buses1ms 0000000180069328     c4_SpeedgoatCANOpen2Buses1ms.obj
 0002:00001330       $unwind$sf_opaque_terminate_c4_SpeedgoatCANOpen2Buses1ms 0000000180069330     c4_SpeedgoatCANOpen2Buses1ms.obj
 0002:00001338       $unwind$mdlProcessParameters_c4_SpeedgoatCANOpen2Buses1ms 0000000180069338     c4_SpeedgoatCANOpen2Buses1ms.obj
 0002:00001340       $unwind$sf_set_sfun_dwork_info 0000000180069340     c4_SpeedgoatCANOpen2Buses1ms.obj
 0002:00001348       $unwind$mdlSetWorkWidths_c4_SpeedgoatCANOpen2Buses1ms 0000000180069348     c4_SpeedgoatCANOpen2Buses1ms.obj
 0002:00001350       $unwind$mdlRTW_c4_SpeedgoatCANOpen2Buses1ms 0000000180069350     c4_SpeedgoatCANOpen2Buses1ms.obj
 0002:00001358       $unwind$mdlStart_c4_SpeedgoatCANOpen2Buses1ms 0000000180069358     c4_SpeedgoatCANOpen2Buses1ms.obj
 0002:00001360       $unwind$sf_c5_SpeedgoatCANOpen2Buses1ms_get_eml_resolved_functions_info 0000000180069360     c5_SpeedgoatCANOpen2Buses1ms.obj
 0002:00001368       $unwind$sf_c5_SpeedgoatCANOpen2Buses1ms_get_check_sum 0000000180069368     c5_SpeedgoatCANOpen2Buses1ms.obj
 0002:00001370       $unwind$c5_SpeedgoatCANOpen2Buses1ms_method_dispatcher 0000000180069370     c5_SpeedgoatCANOpen2Buses1ms.obj
 0002:00001378       $unwind$chart_debug_initialization 0000000180069378     c5_SpeedgoatCANOpen2Buses1ms.obj
 0002:00001380       $unwind$chart_debug_initialize_data_addresses 0000000180069380     c5_SpeedgoatCANOpen2Buses1ms.obj
 0002:00001388       $unwind$sf_opaque_get_hover_data_for_msg 0000000180069388     c5_SpeedgoatCANOpen2Buses1ms.obj
 0002:00001390       $unwind$initialize_c5_SpeedgoatCANOpen2Buses1ms 0000000180069390     c5_SpeedgoatCANOpen2Buses1ms.obj
 0002:00001398       $unwind$enable_c5_SpeedgoatCANOpen2Buses1ms 0000000180069398     c5_SpeedgoatCANOpen2Buses1ms.obj
 0002:000013a0       $unwind$disable_c5_SpeedgoatCANOpen2Buses1ms 00000001800693a0     c5_SpeedgoatCANOpen2Buses1ms.obj
 0002:000013a8       $unwind$c5_update_debugger_state_c5_SpeedgoatCANOpen2Buses1ms 00000001800693a8     c5_SpeedgoatCANOpen2Buses1ms.obj
 0002:000013b0       $unwind$ext_mode_exec_c5_SpeedgoatCANOpen2Buses1ms 00000001800693b0     c5_SpeedgoatCANOpen2Buses1ms.obj
 0002:000013b8       $unwind$get_sim_state_c5_SpeedgoatCANOpen2Buses1ms 00000001800693b8     c5_SpeedgoatCANOpen2Buses1ms.obj
 0002:000013c0       $unwind$set_sim_state_c5_SpeedgoatCANOpen2Buses1ms 00000001800693c0     c5_SpeedgoatCANOpen2Buses1ms.obj
 0002:000013c8       $unwind$c5_set_sim_state_side_effects_c5_SpeedgoatCANOpen2Buses1ms 00000001800693c8     c5_SpeedgoatCANOpen2Buses1ms.obj
 0002:000013d0       $unwind$finalize_c5_SpeedgoatCANOpen2Buses1ms 00000001800693d0     c5_SpeedgoatCANOpen2Buses1ms.obj
 0002:000013d8       $unwind$sf_gateway_c5_SpeedgoatCANOpen2Buses1ms 00000001800693d8     c5_SpeedgoatCANOpen2Buses1ms.obj
 0002:000013e8       $unwind$mdl_start_c5_SpeedgoatCANOpen2Buses1ms 00000001800693e8     c5_SpeedgoatCANOpen2Buses1ms.obj
 0002:000013f0       $unwind$c5_sf_marshallOut  00000001800693f0     c5_SpeedgoatCANOpen2Buses1ms.obj
 0002:000013f8       $unwind$c5_emlrt_marshallIn 00000001800693f8     c5_SpeedgoatCANOpen2Buses1ms.obj
 0002:00001400       $unwind$c5_sf_marshallIn   0000000180069400     c5_SpeedgoatCANOpen2Buses1ms.obj
 0002:00001408       $unwind$c5_b_sf_marshallOut 0000000180069408     c5_SpeedgoatCANOpen2Buses1ms.obj
 0002:00001410       $unwind$c5_b_emlrt_marshallIn 0000000180069410     c5_SpeedgoatCANOpen2Buses1ms.obj
 0002:00001418       $unwind$c5_b_sf_marshallIn 0000000180069418     c5_SpeedgoatCANOpen2Buses1ms.obj
 0002:00001420       $unwind$c5_d_sf_marshallOut 0000000180069420     c5_SpeedgoatCANOpen2Buses1ms.obj
 0002:00001428       $unwind$c5_d_emlrt_marshallIn 0000000180069428     c5_SpeedgoatCANOpen2Buses1ms.obj
 0002:00001430       $unwind$c5_e_emlrt_marshallIn 0000000180069430     c5_SpeedgoatCANOpen2Buses1ms.obj
 0002:00001438       $unwind$c5_d_sf_marshallIn 0000000180069438     c5_SpeedgoatCANOpen2Buses1ms.obj
 0002:00001440       $unwind$c5_f_emlrt_marshallIn 0000000180069440     c5_SpeedgoatCANOpen2Buses1ms.obj
 0002:00001448       $unwind$c5_g_emlrt_marshallIn 0000000180069448     c5_SpeedgoatCANOpen2Buses1ms.obj
 0002:00001450       $unwind$c5_h_emlrt_marshallIn 0000000180069450     c5_SpeedgoatCANOpen2Buses1ms.obj
 0002:00001458       $unwind$c5_i_emlrt_marshallIn 0000000180069458     c5_SpeedgoatCANOpen2Buses1ms.obj
 0002:00001460       $unwind$c5_j_emlrt_marshallIn 0000000180069460     c5_SpeedgoatCANOpen2Buses1ms.obj
 0002:00001468       $unwind$c5_k_emlrt_marshallIn 0000000180069468     c5_SpeedgoatCANOpen2Buses1ms.obj
 0002:00001470       $unwind$c5_l_emlrt_marshallIn 0000000180069470     c5_SpeedgoatCANOpen2Buses1ms.obj
 0002:00001478       $unwind$c5_m_emlrt_marshallIn 0000000180069478     c5_SpeedgoatCANOpen2Buses1ms.obj
 0002:00001480       $unwind$init_simulink_io_address 0000000180069480     c5_SpeedgoatCANOpen2Buses1ms.obj
 0002:00001488       $unwind$sf_c5_SpeedgoatCANOpen2Buses1ms_get_post_codegen_info 0000000180069488     c5_SpeedgoatCANOpen2Buses1ms.obj
 0002:00001490       $unwind$sf_c5_SpeedgoatCANOpen2Buses1ms_get_autoinheritance_info 0000000180069490     c5_SpeedgoatCANOpen2Buses1ms.obj
 0002:000014a0       $unwind$sf_c5_SpeedgoatCANOpen2Buses1ms_third_party_uses_info 00000001800694a0     c5_SpeedgoatCANOpen2Buses1ms.obj
 0002:000014a8       $unwind$sf_c5_SpeedgoatCANOpen2Buses1ms_jit_fallback_info 00000001800694a8     c5_SpeedgoatCANOpen2Buses1ms.obj
 0002:000014b8       $unwind$sf_c5_SpeedgoatCANOpen2Buses1ms_updateBuildInfo_args_info 00000001800694b8     c5_SpeedgoatCANOpen2Buses1ms.obj
 0002:000014c0       $unwind$sf_get_sim_state_info_c5_SpeedgoatCANOpen2Buses1ms 00000001800694c0     c5_SpeedgoatCANOpen2Buses1ms.obj
 0002:000014c8       $unwind$sf_check_dwork_consistency 00000001800694c8     c5_SpeedgoatCANOpen2Buses1ms.obj
 0002:000014d0       $unwind$sf_opaque_initialize_c5_SpeedgoatCANOpen2Buses1ms 00000001800694d0     c5_SpeedgoatCANOpen2Buses1ms.obj
 0002:000014d8       $unwind$sf_opaque_enable_c5_SpeedgoatCANOpen2Buses1ms 00000001800694d8     c5_SpeedgoatCANOpen2Buses1ms.obj
 0002:000014e0       $unwind$sf_opaque_disable_c5_SpeedgoatCANOpen2Buses1ms 00000001800694e0     c5_SpeedgoatCANOpen2Buses1ms.obj
 0002:000014e8       $unwind$sf_opaque_gateway_c5_SpeedgoatCANOpen2Buses1ms 00000001800694e8     c5_SpeedgoatCANOpen2Buses1ms.obj
 0002:000014f0       $unwind$sf_opaque_ext_mode_exec_c5_SpeedgoatCANOpen2Buses1ms 00000001800694f0     c5_SpeedgoatCANOpen2Buses1ms.obj
 0002:000014f8       $unwind$sf_opaque_get_sim_state_c5_SpeedgoatCANOpen2Buses1ms 00000001800694f8     c5_SpeedgoatCANOpen2Buses1ms.obj
 0002:00001500       $unwind$sf_opaque_set_sim_state_c5_SpeedgoatCANOpen2Buses1ms 0000000180069500     c5_SpeedgoatCANOpen2Buses1ms.obj
 0002:00001508       $unwind$sf_opaque_terminate_c5_SpeedgoatCANOpen2Buses1ms 0000000180069508     c5_SpeedgoatCANOpen2Buses1ms.obj
 0002:00001510       $unwind$mdlProcessParameters_c5_SpeedgoatCANOpen2Buses1ms 0000000180069510     c5_SpeedgoatCANOpen2Buses1ms.obj
 0002:00001518       $unwind$sf_set_sfun_dwork_info 0000000180069518     c5_SpeedgoatCANOpen2Buses1ms.obj
 0002:00001520       $unwind$mdlSetWorkWidths_c5_SpeedgoatCANOpen2Buses1ms 0000000180069520     c5_SpeedgoatCANOpen2Buses1ms.obj
 0002:00001528       $unwind$mdlRTW_c5_SpeedgoatCANOpen2Buses1ms 0000000180069528     c5_SpeedgoatCANOpen2Buses1ms.obj
 0002:00001530       $unwind$mdlStart_c5_SpeedgoatCANOpen2Buses1ms 0000000180069530     c5_SpeedgoatCANOpen2Buses1ms.obj
 0002:00001538       $unwind$sf_c10_SpeedgoatCANOpen2Buses1ms_get_eml_resolved_functions_info 0000000180069538     c10_SpeedgoatCANOpen2Buses1ms.obj
 0002:00001540       $unwind$sf_c10_SpeedgoatCANOpen2Buses1ms_get_check_sum 0000000180069540     c10_SpeedgoatCANOpen2Buses1ms.obj
 0002:00001548       $unwind$c10_SpeedgoatCANOpen2Buses1ms_method_dispatcher 0000000180069548     c10_SpeedgoatCANOpen2Buses1ms.obj
 0002:00001550       $unwind$chart_debug_initialization 0000000180069550     c10_SpeedgoatCANOpen2Buses1ms.obj
 0002:00001558       $unwind$chart_debug_initialize_data_addresses 0000000180069558     c10_SpeedgoatCANOpen2Buses1ms.obj
 0002:00001560       $unwind$sf_opaque_get_hover_data_for_msg 0000000180069560     c10_SpeedgoatCANOpen2Buses1ms.obj
 0002:00001568       $unwind$initialize_c10_SpeedgoatCANOpen2Buses1ms 0000000180069568     c10_SpeedgoatCANOpen2Buses1ms.obj
 0002:00001570       $unwind$enable_c10_SpeedgoatCANOpen2Buses1ms 0000000180069570     c10_SpeedgoatCANOpen2Buses1ms.obj
 0002:00001578       $unwind$disable_c10_SpeedgoatCANOpen2Buses1ms 0000000180069578     c10_SpeedgoatCANOpen2Buses1ms.obj
 0002:00001580       $unwind$c10_update_debugger_state_c10_SpeedgoatCANOpen2Buses1ms 0000000180069580     c10_SpeedgoatCANOpen2Buses1ms.obj
 0002:00001588       $unwind$ext_mode_exec_c10_SpeedgoatCANOpen2Buses1ms 0000000180069588     c10_SpeedgoatCANOpen2Buses1ms.obj
 0002:00001590       $unwind$get_sim_state_c10_SpeedgoatCANOpen2Buses1ms 0000000180069590     c10_SpeedgoatCANOpen2Buses1ms.obj
 0002:00001598       $unwind$set_sim_state_c10_SpeedgoatCANOpen2Buses1ms 0000000180069598     c10_SpeedgoatCANOpen2Buses1ms.obj
 0002:000015a0       $unwind$c10_set_sim_state_side_effects_c10_SpeedgoatCANOpen2Buses1ms 00000001800695a0     c10_SpeedgoatCANOpen2Buses1ms.obj
 0002:000015a8       $unwind$finalize_c10_SpeedgoatCANOpen2Buses1ms 00000001800695a8     c10_SpeedgoatCANOpen2Buses1ms.obj
 0002:000015b0       $unwind$sf_gateway_c10_SpeedgoatCANOpen2Buses1ms 00000001800695b0     c10_SpeedgoatCANOpen2Buses1ms.obj
 0002:000015b8       $unwind$mdl_start_c10_SpeedgoatCANOpen2Buses1ms 00000001800695b8     c10_SpeedgoatCANOpen2Buses1ms.obj
 0002:000015c0       $unwind$c10_chartstep_c10_SpeedgoatCANOpen2Buses1ms 00000001800695c0     c10_SpeedgoatCANOpen2Buses1ms.obj
 0002:000015d0       $unwind$c10_sf_marshallOut 00000001800695d0     c10_SpeedgoatCANOpen2Buses1ms.obj
 0002:000015d8       $unwind$c10_emlrt_marshallIn 00000001800695d8     c10_SpeedgoatCANOpen2Buses1ms.obj
 0002:000015e0       $unwind$c10_b_emlrt_marshallIn 00000001800695e0     c10_SpeedgoatCANOpen2Buses1ms.obj
 0002:000015e8       $unwind$c10_sf_marshallIn  00000001800695e8     c10_SpeedgoatCANOpen2Buses1ms.obj
 0002:000015f0       $unwind$c10_b_sf_marshallOut 00000001800695f0     c10_SpeedgoatCANOpen2Buses1ms.obj
 0002:000015f8       $unwind$c10_c_emlrt_marshallIn 00000001800695f8     c10_SpeedgoatCANOpen2Buses1ms.obj
 0002:00001600       $unwind$c10_b_sf_marshallIn 0000000180069600     c10_SpeedgoatCANOpen2Buses1ms.obj
 0002:00001608       $unwind$c10_e_emlrt_marshallIn 0000000180069608     c10_SpeedgoatCANOpen2Buses1ms.obj
 0002:00001610       $unwind$c10_f_emlrt_marshallIn 0000000180069610     c10_SpeedgoatCANOpen2Buses1ms.obj
 0002:00001618       $unwind$c10_g_emlrt_marshallIn 0000000180069618     c10_SpeedgoatCANOpen2Buses1ms.obj
 0002:00001620       $unwind$c10_h_emlrt_marshallIn 0000000180069620     c10_SpeedgoatCANOpen2Buses1ms.obj
 0002:00001628       $unwind$c10_i_emlrt_marshallIn 0000000180069628     c10_SpeedgoatCANOpen2Buses1ms.obj
 0002:00001630       $unwind$c10_j_emlrt_marshallIn 0000000180069630     c10_SpeedgoatCANOpen2Buses1ms.obj
 0002:00001638       $unwind$init_simulink_io_address 0000000180069638     c10_SpeedgoatCANOpen2Buses1ms.obj
 0002:00001640       $unwind$sf_c10_SpeedgoatCANOpen2Buses1ms_get_post_codegen_info 0000000180069640     c10_SpeedgoatCANOpen2Buses1ms.obj
 0002:00001648       $unwind$sf_c10_SpeedgoatCANOpen2Buses1ms_get_autoinheritance_info 0000000180069648     c10_SpeedgoatCANOpen2Buses1ms.obj
 0002:00001658       $unwind$sf_c10_SpeedgoatCANOpen2Buses1ms_third_party_uses_info 0000000180069658     c10_SpeedgoatCANOpen2Buses1ms.obj
 0002:00001660       $unwind$sf_c10_SpeedgoatCANOpen2Buses1ms_jit_fallback_info 0000000180069660     c10_SpeedgoatCANOpen2Buses1ms.obj
 0002:00001670       $unwind$sf_c10_SpeedgoatCANOpen2Buses1ms_updateBuildInfo_args_info 0000000180069670     c10_SpeedgoatCANOpen2Buses1ms.obj
 0002:00001678       $unwind$sf_get_sim_state_info_c10_SpeedgoatCANOpen2Buses1ms 0000000180069678     c10_SpeedgoatCANOpen2Buses1ms.obj
 0002:00001680       $unwind$sf_check_dwork_consistency 0000000180069680     c10_SpeedgoatCANOpen2Buses1ms.obj
 0002:00001688       $unwind$sf_opaque_initialize_c10_SpeedgoatCANOpen2Buses1ms 0000000180069688     c10_SpeedgoatCANOpen2Buses1ms.obj
 0002:00001690       $unwind$sf_opaque_enable_c10_SpeedgoatCANOpen2Buses1ms 0000000180069690     c10_SpeedgoatCANOpen2Buses1ms.obj
 0002:00001698       $unwind$sf_opaque_disable_c10_SpeedgoatCANOpen2Buses1ms 0000000180069698     c10_SpeedgoatCANOpen2Buses1ms.obj
 0002:000016a0       $unwind$sf_opaque_gateway_c10_SpeedgoatCANOpen2Buses1ms 00000001800696a0     c10_SpeedgoatCANOpen2Buses1ms.obj
 0002:000016a8       $unwind$sf_opaque_ext_mode_exec_c10_SpeedgoatCANOpen2Buses1ms 00000001800696a8     c10_SpeedgoatCANOpen2Buses1ms.obj
 0002:000016b0       $unwind$sf_opaque_get_sim_state_c10_SpeedgoatCANOpen2Buses1ms 00000001800696b0     c10_SpeedgoatCANOpen2Buses1ms.obj
 0002:000016b8       $unwind$sf_opaque_set_sim_state_c10_SpeedgoatCANOpen2Buses1ms 00000001800696b8     c10_SpeedgoatCANOpen2Buses1ms.obj
 0002:000016c0       $unwind$sf_opaque_terminate_c10_SpeedgoatCANOpen2Buses1ms 00000001800696c0     c10_SpeedgoatCANOpen2Buses1ms.obj
 0002:000016c8       $unwind$mdlProcessParameters_c10_SpeedgoatCANOpen2Buses1ms 00000001800696c8     c10_SpeedgoatCANOpen2Buses1ms.obj
 0002:000016d0       $unwind$sf_set_sfun_dwork_info 00000001800696d0     c10_SpeedgoatCANOpen2Buses1ms.obj
 0002:000016d8       $unwind$mdlSetWorkWidths_c10_SpeedgoatCANOpen2Buses1ms 00000001800696d8     c10_SpeedgoatCANOpen2Buses1ms.obj
 0002:000016e0       $unwind$mdlRTW_c10_SpeedgoatCANOpen2Buses1ms 00000001800696e0     c10_SpeedgoatCANOpen2Buses1ms.obj
 0002:000016e8       $unwind$mdlStart_c10_SpeedgoatCANOpen2Buses1ms 00000001800696e8     c10_SpeedgoatCANOpen2Buses1ms.obj
 0002:000016f0       $unwind$sf_c12_SpeedgoatCANOpen2Buses1ms_get_eml_resolved_functions_info 00000001800696f0     c12_SpeedgoatCANOpen2Buses1ms.obj
 0002:000016f8       $unwind$sf_c12_SpeedgoatCANOpen2Buses1ms_get_check_sum 00000001800696f8     c12_SpeedgoatCANOpen2Buses1ms.obj
 0002:00001700       $unwind$c12_SpeedgoatCANOpen2Buses1ms_method_dispatcher 0000000180069700     c12_SpeedgoatCANOpen2Buses1ms.obj
 0002:00001708       $unwind$chart_debug_initialization 0000000180069708     c12_SpeedgoatCANOpen2Buses1ms.obj
 0002:00001710       $unwind$chart_debug_initialize_data_addresses 0000000180069710     c12_SpeedgoatCANOpen2Buses1ms.obj
 0002:00001718       $unwind$sf_opaque_get_hover_data_for_msg 0000000180069718     c12_SpeedgoatCANOpen2Buses1ms.obj
 0002:00001720       $unwind$initialize_c12_SpeedgoatCANOpen2Buses1ms 0000000180069720     c12_SpeedgoatCANOpen2Buses1ms.obj
 0002:00001728       $unwind$enable_c12_SpeedgoatCANOpen2Buses1ms 0000000180069728     c12_SpeedgoatCANOpen2Buses1ms.obj
 0002:00001730       $unwind$disable_c12_SpeedgoatCANOpen2Buses1ms 0000000180069730     c12_SpeedgoatCANOpen2Buses1ms.obj
 0002:00001738       $unwind$c12_update_debugger_state_c12_SpeedgoatCANOpen2Buses1ms 0000000180069738     c12_SpeedgoatCANOpen2Buses1ms.obj
 0002:00001740       $unwind$ext_mode_exec_c12_SpeedgoatCANOpen2Buses1ms 0000000180069740     c12_SpeedgoatCANOpen2Buses1ms.obj
 0002:00001748       $unwind$get_sim_state_c12_SpeedgoatCANOpen2Buses1ms 0000000180069748     c12_SpeedgoatCANOpen2Buses1ms.obj
 0002:00001750       $unwind$set_sim_state_c12_SpeedgoatCANOpen2Buses1ms 0000000180069750     c12_SpeedgoatCANOpen2Buses1ms.obj
 0002:00001760       $unwind$finalize_c12_SpeedgoatCANOpen2Buses1ms 0000000180069760     c12_SpeedgoatCANOpen2Buses1ms.obj
 0002:00001768       $unwind$sf_gateway_c12_SpeedgoatCANOpen2Buses1ms 0000000180069768     c12_SpeedgoatCANOpen2Buses1ms.obj
 0002:00001770       $unwind$mdl_start_c12_SpeedgoatCANOpen2Buses1ms 0000000180069770     c12_SpeedgoatCANOpen2Buses1ms.obj
 0002:00001778       $unwind$c12_chartstep_c12_SpeedgoatCANOpen2Buses1ms 0000000180069778     c12_SpeedgoatCANOpen2Buses1ms.obj
 0002:00001788       $unwind$c12_enter_atomic_Init 0000000180069788     c12_SpeedgoatCANOpen2Buses1ms.obj
 0002:00001790       $unwind$c12_enter_atomic_Wait 0000000180069790     c12_SpeedgoatCANOpen2Buses1ms.obj
 0002:00001798       $unwind$c12_sf_marshallOut 0000000180069798     c12_SpeedgoatCANOpen2Buses1ms.obj
 0002:000017a0       $unwind$c12_emlrt_marshallIn 00000001800697a0     c12_SpeedgoatCANOpen2Buses1ms.obj
 0002:000017a8       $unwind$c12_sf_marshallIn  00000001800697a8     c12_SpeedgoatCANOpen2Buses1ms.obj
 0002:000017b0       $unwind$c12_b_sf_marshallOut 00000001800697b0     c12_SpeedgoatCANOpen2Buses1ms.obj
 0002:000017b8       $unwind$c12_b_emlrt_marshallIn 00000001800697b8     c12_SpeedgoatCANOpen2Buses1ms.obj
 0002:000017c0       $unwind$c12_b_sf_marshallIn 00000001800697c0     c12_SpeedgoatCANOpen2Buses1ms.obj
 0002:000017c8       $unwind$c12_d_sf_marshallOut 00000001800697c8     c12_SpeedgoatCANOpen2Buses1ms.obj
 0002:000017d0       $unwind$c12_d_emlrt_marshallIn 00000001800697d0     c12_SpeedgoatCANOpen2Buses1ms.obj
 0002:000017d8       $unwind$c12_e_emlrt_marshallIn 00000001800697d8     c12_SpeedgoatCANOpen2Buses1ms.obj
 0002:000017e0       $unwind$c12_d_sf_marshallIn 00000001800697e0     c12_SpeedgoatCANOpen2Buses1ms.obj
 0002:000017e8       $unwind$c12_f_emlrt_marshallIn 00000001800697e8     c12_SpeedgoatCANOpen2Buses1ms.obj
 0002:000017f0       $unwind$c12_g_emlrt_marshallIn 00000001800697f0     c12_SpeedgoatCANOpen2Buses1ms.obj
 0002:000017f8       $unwind$c12_h_emlrt_marshallIn 00000001800697f8     c12_SpeedgoatCANOpen2Buses1ms.obj
 0002:00001800       $unwind$c12_i_emlrt_marshallIn 0000000180069800     c12_SpeedgoatCANOpen2Buses1ms.obj
 0002:00001810       $unwind$c12_j_emlrt_marshallIn 0000000180069810     c12_SpeedgoatCANOpen2Buses1ms.obj
 0002:00001818       $unwind$c12_k_emlrt_marshallIn 0000000180069818     c12_SpeedgoatCANOpen2Buses1ms.obj
 0002:00001820       $unwind$init_simulink_io_address 0000000180069820     c12_SpeedgoatCANOpen2Buses1ms.obj
 0002:00001828       $unwind$sf_c12_SpeedgoatCANOpen2Buses1ms_get_post_codegen_info 0000000180069828     c12_SpeedgoatCANOpen2Buses1ms.obj
 0002:00001830       $unwind$sf_c12_SpeedgoatCANOpen2Buses1ms_get_autoinheritance_info 0000000180069830     c12_SpeedgoatCANOpen2Buses1ms.obj
 0002:00001840       $unwind$sf_c12_SpeedgoatCANOpen2Buses1ms_third_party_uses_info 0000000180069840     c12_SpeedgoatCANOpen2Buses1ms.obj
 0002:00001848       $unwind$sf_c12_SpeedgoatCANOpen2Buses1ms_jit_fallback_info 0000000180069848     c12_SpeedgoatCANOpen2Buses1ms.obj
 0002:00001858       $unwind$sf_c12_SpeedgoatCANOpen2Buses1ms_updateBuildInfo_args_info 0000000180069858     c12_SpeedgoatCANOpen2Buses1ms.obj
 0002:00001860       $unwind$sf_get_sim_state_info_c12_SpeedgoatCANOpen2Buses1ms 0000000180069860     c12_SpeedgoatCANOpen2Buses1ms.obj
 0002:00001868       $unwind$sf_check_dwork_consistency 0000000180069868     c12_SpeedgoatCANOpen2Buses1ms.obj
 0002:00001870       $unwind$sf_opaque_initialize_c12_SpeedgoatCANOpen2Buses1ms 0000000180069870     c12_SpeedgoatCANOpen2Buses1ms.obj
 0002:00001878       $unwind$sf_opaque_enable_c12_SpeedgoatCANOpen2Buses1ms 0000000180069878     c12_SpeedgoatCANOpen2Buses1ms.obj
 0002:00001880       $unwind$sf_opaque_disable_c12_SpeedgoatCANOpen2Buses1ms 0000000180069880     c12_SpeedgoatCANOpen2Buses1ms.obj
 0002:00001888       $unwind$sf_opaque_gateway_c12_SpeedgoatCANOpen2Buses1ms 0000000180069888     c12_SpeedgoatCANOpen2Buses1ms.obj
 0002:00001890       $unwind$sf_opaque_ext_mode_exec_c12_SpeedgoatCANOpen2Buses1ms 0000000180069890     c12_SpeedgoatCANOpen2Buses1ms.obj
 0002:00001898       $unwind$sf_opaque_get_sim_state_c12_SpeedgoatCANOpen2Buses1ms 0000000180069898     c12_SpeedgoatCANOpen2Buses1ms.obj
 0002:000018a0       $unwind$sf_opaque_set_sim_state_c12_SpeedgoatCANOpen2Buses1ms 00000001800698a0     c12_SpeedgoatCANOpen2Buses1ms.obj
 0002:000018a8       $unwind$sf_opaque_terminate_c12_SpeedgoatCANOpen2Buses1ms 00000001800698a8     c12_SpeedgoatCANOpen2Buses1ms.obj
 0002:000018b0       $unwind$mdlProcessParameters_c12_SpeedgoatCANOpen2Buses1ms 00000001800698b0     c12_SpeedgoatCANOpen2Buses1ms.obj
 0002:000018b8       $unwind$sf_set_sfun_dwork_info 00000001800698b8     c12_SpeedgoatCANOpen2Buses1ms.obj
 0002:000018c0       $unwind$mdlSetWorkWidths_c12_SpeedgoatCANOpen2Buses1ms 00000001800698c0     c12_SpeedgoatCANOpen2Buses1ms.obj
 0002:000018c8       $unwind$mdlRTW_c12_SpeedgoatCANOpen2Buses1ms 00000001800698c8     c12_SpeedgoatCANOpen2Buses1ms.obj
 0002:000018d0       $unwind$mdlStart_c12_SpeedgoatCANOpen2Buses1ms 00000001800698d0     c12_SpeedgoatCANOpen2Buses1ms.obj
 0002:000018d8       $unwind$sf_c13_SpeedgoatCANOpen2Buses1ms_get_eml_resolved_functions_info 00000001800698d8     c13_SpeedgoatCANOpen2Buses1ms.obj
 0002:000018e0       $unwind$sf_c13_SpeedgoatCANOpen2Buses1ms_get_check_sum 00000001800698e0     c13_SpeedgoatCANOpen2Buses1ms.obj
 0002:000018e8       $unwind$c13_SpeedgoatCANOpen2Buses1ms_method_dispatcher 00000001800698e8     c13_SpeedgoatCANOpen2Buses1ms.obj
 0002:000018f0       $unwind$chart_debug_initialization 00000001800698f0     c13_SpeedgoatCANOpen2Buses1ms.obj
 0002:000018f8       $unwind$chart_debug_initialize_data_addresses 00000001800698f8     c13_SpeedgoatCANOpen2Buses1ms.obj
 0002:00001900       $unwind$sf_opaque_get_hover_data_for_msg 0000000180069900     c13_SpeedgoatCANOpen2Buses1ms.obj
 0002:00001908       $unwind$initialize_c13_SpeedgoatCANOpen2Buses1ms 0000000180069908     c13_SpeedgoatCANOpen2Buses1ms.obj
 0002:00001910       $unwind$enable_c13_SpeedgoatCANOpen2Buses1ms 0000000180069910     c13_SpeedgoatCANOpen2Buses1ms.obj
 0002:00001918       $unwind$disable_c13_SpeedgoatCANOpen2Buses1ms 0000000180069918     c13_SpeedgoatCANOpen2Buses1ms.obj
 0002:00001920       $unwind$c13_update_debugger_state_c13_SpeedgoatCANOpen2Buses1ms 0000000180069920     c13_SpeedgoatCANOpen2Buses1ms.obj
 0002:00001928       $unwind$ext_mode_exec_c13_SpeedgoatCANOpen2Buses1ms 0000000180069928     c13_SpeedgoatCANOpen2Buses1ms.obj
 0002:00001930       $unwind$get_sim_state_c13_SpeedgoatCANOpen2Buses1ms 0000000180069930     c13_SpeedgoatCANOpen2Buses1ms.obj
 0002:00001938       $unwind$set_sim_state_c13_SpeedgoatCANOpen2Buses1ms 0000000180069938     c13_SpeedgoatCANOpen2Buses1ms.obj
 0002:00001940       $unwind$finalize_c13_SpeedgoatCANOpen2Buses1ms 0000000180069940     c13_SpeedgoatCANOpen2Buses1ms.obj
 0002:00001948       $unwind$sf_gateway_c13_SpeedgoatCANOpen2Buses1ms 0000000180069948     c13_SpeedgoatCANOpen2Buses1ms.obj
 0002:00001958       $unwind$mdl_start_c13_SpeedgoatCANOpen2Buses1ms 0000000180069958     c13_SpeedgoatCANOpen2Buses1ms.obj
 0002:00001960       $unwind$c13_enter_atomic_Init 0000000180069960     c13_SpeedgoatCANOpen2Buses1ms.obj
 0002:00001968       $unwind$c13_sf_marshallOut 0000000180069968     c13_SpeedgoatCANOpen2Buses1ms.obj
 0002:00001970       $unwind$c13_emlrt_marshallIn 0000000180069970     c13_SpeedgoatCANOpen2Buses1ms.obj
 0002:00001978       $unwind$c13_b_emlrt_marshallIn 0000000180069978     c13_SpeedgoatCANOpen2Buses1ms.obj
 0002:00001980       $unwind$c13_sf_marshallIn  0000000180069980     c13_SpeedgoatCANOpen2Buses1ms.obj
 0002:00001988       $unwind$c13_b_sf_marshallOut 0000000180069988     c13_SpeedgoatCANOpen2Buses1ms.obj
 0002:00001990       $unwind$c13_c_emlrt_marshallIn 0000000180069990     c13_SpeedgoatCANOpen2Buses1ms.obj
 0002:00001998       $unwind$c13_b_sf_marshallIn 0000000180069998     c13_SpeedgoatCANOpen2Buses1ms.obj
 0002:000019a0       $unwind$c13_d_sf_marshallOut 00000001800699a0     c13_SpeedgoatCANOpen2Buses1ms.obj
 0002:000019a8       $unwind$c13_e_emlrt_marshallIn 00000001800699a8     c13_SpeedgoatCANOpen2Buses1ms.obj
 0002:000019b0       $unwind$c13_f_emlrt_marshallIn 00000001800699b0     c13_SpeedgoatCANOpen2Buses1ms.obj
 0002:000019b8       $unwind$c13_d_sf_marshallIn 00000001800699b8     c13_SpeedgoatCANOpen2Buses1ms.obj
 0002:000019c0       $unwind$c13_e_sf_marshallOut 00000001800699c0     c13_SpeedgoatCANOpen2Buses1ms.obj
 0002:000019c8       $unwind$c13_g_emlrt_marshallIn 00000001800699c8     c13_SpeedgoatCANOpen2Buses1ms.obj
 0002:000019d0       $unwind$c13_h_emlrt_marshallIn 00000001800699d0     c13_SpeedgoatCANOpen2Buses1ms.obj
 0002:000019d8       $unwind$c13_i_emlrt_marshallIn 00000001800699d8     c13_SpeedgoatCANOpen2Buses1ms.obj
 0002:000019e0       $unwind$c13_j_emlrt_marshallIn 00000001800699e0     c13_SpeedgoatCANOpen2Buses1ms.obj
 0002:000019e8       $unwind$init_simulink_io_address 00000001800699e8     c13_SpeedgoatCANOpen2Buses1ms.obj
 0002:000019f0       $unwind$sf_c13_SpeedgoatCANOpen2Buses1ms_get_post_codegen_info 00000001800699f0     c13_SpeedgoatCANOpen2Buses1ms.obj
 0002:000019f8       $unwind$sf_c13_SpeedgoatCANOpen2Buses1ms_get_autoinheritance_info 00000001800699f8     c13_SpeedgoatCANOpen2Buses1ms.obj
 0002:00001a08       $unwind$sf_c13_SpeedgoatCANOpen2Buses1ms_third_party_uses_info 0000000180069a08     c13_SpeedgoatCANOpen2Buses1ms.obj
 0002:00001a10       $unwind$sf_c13_SpeedgoatCANOpen2Buses1ms_jit_fallback_info 0000000180069a10     c13_SpeedgoatCANOpen2Buses1ms.obj
 0002:00001a20       $unwind$sf_c13_SpeedgoatCANOpen2Buses1ms_updateBuildInfo_args_info 0000000180069a20     c13_SpeedgoatCANOpen2Buses1ms.obj
 0002:00001a28       $unwind$sf_get_sim_state_info_c13_SpeedgoatCANOpen2Buses1ms 0000000180069a28     c13_SpeedgoatCANOpen2Buses1ms.obj
 0002:00001a30       $unwind$sf_check_dwork_consistency 0000000180069a30     c13_SpeedgoatCANOpen2Buses1ms.obj
 0002:00001a38       $unwind$sf_opaque_initialize_c13_SpeedgoatCANOpen2Buses1ms 0000000180069a38     c13_SpeedgoatCANOpen2Buses1ms.obj
 0002:00001a40       $unwind$sf_opaque_enable_c13_SpeedgoatCANOpen2Buses1ms 0000000180069a40     c13_SpeedgoatCANOpen2Buses1ms.obj
 0002:00001a48       $unwind$sf_opaque_disable_c13_SpeedgoatCANOpen2Buses1ms 0000000180069a48     c13_SpeedgoatCANOpen2Buses1ms.obj
 0002:00001a50       $unwind$sf_opaque_gateway_c13_SpeedgoatCANOpen2Buses1ms 0000000180069a50     c13_SpeedgoatCANOpen2Buses1ms.obj
 0002:00001a58       $unwind$sf_opaque_ext_mode_exec_c13_SpeedgoatCANOpen2Buses1ms 0000000180069a58     c13_SpeedgoatCANOpen2Buses1ms.obj
 0002:00001a60       $unwind$sf_opaque_get_sim_state_c13_SpeedgoatCANOpen2Buses1ms 0000000180069a60     c13_SpeedgoatCANOpen2Buses1ms.obj
 0002:00001a68       $unwind$sf_opaque_set_sim_state_c13_SpeedgoatCANOpen2Buses1ms 0000000180069a68     c13_SpeedgoatCANOpen2Buses1ms.obj
 0002:00001a70       $unwind$sf_opaque_terminate_c13_SpeedgoatCANOpen2Buses1ms 0000000180069a70     c13_SpeedgoatCANOpen2Buses1ms.obj
 0002:00001a78       $unwind$mdlProcessParameters_c13_SpeedgoatCANOpen2Buses1ms 0000000180069a78     c13_SpeedgoatCANOpen2Buses1ms.obj
 0002:00001a80       $unwind$sf_set_sfun_dwork_info 0000000180069a80     c13_SpeedgoatCANOpen2Buses1ms.obj
 0002:00001a88       $unwind$mdlSetWorkWidths_c13_SpeedgoatCANOpen2Buses1ms 0000000180069a88     c13_SpeedgoatCANOpen2Buses1ms.obj
 0002:00001a90       $unwind$mdlRTW_c13_SpeedgoatCANOpen2Buses1ms 0000000180069a90     c13_SpeedgoatCANOpen2Buses1ms.obj
 0002:00001a98       $unwind$mdlStart_c13_SpeedgoatCANOpen2Buses1ms 0000000180069a98     c13_SpeedgoatCANOpen2Buses1ms.obj
 0002:00001aa0       $unwind$sf_c14_SpeedgoatCANOpen2Buses1ms_get_eml_resolved_functions_info 0000000180069aa0     c14_SpeedgoatCANOpen2Buses1ms.obj
 0002:00001aa8       $unwind$sf_c14_SpeedgoatCANOpen2Buses1ms_get_check_sum 0000000180069aa8     c14_SpeedgoatCANOpen2Buses1ms.obj
 0002:00001ab0       $unwind$c14_SpeedgoatCANOpen2Buses1ms_method_dispatcher 0000000180069ab0     c14_SpeedgoatCANOpen2Buses1ms.obj
 0002:00001ab8       $unwind$chart_debug_initialization 0000000180069ab8     c14_SpeedgoatCANOpen2Buses1ms.obj
 0002:00001ac0       $unwind$chart_debug_initialize_data_addresses 0000000180069ac0     c14_SpeedgoatCANOpen2Buses1ms.obj
 0002:00001ac8       $unwind$sf_opaque_get_hover_data_for_msg 0000000180069ac8     c14_SpeedgoatCANOpen2Buses1ms.obj
 0002:00001ad0       $unwind$initialize_c14_SpeedgoatCANOpen2Buses1ms 0000000180069ad0     c14_SpeedgoatCANOpen2Buses1ms.obj
 0002:00001ad8       $unwind$enable_c14_SpeedgoatCANOpen2Buses1ms 0000000180069ad8     c14_SpeedgoatCANOpen2Buses1ms.obj
 0002:00001ae0       $unwind$disable_c14_SpeedgoatCANOpen2Buses1ms 0000000180069ae0     c14_SpeedgoatCANOpen2Buses1ms.obj
 0002:00001ae8       $unwind$c14_update_debugger_state_c14_SpeedgoatCANOpen2Buses1ms 0000000180069ae8     c14_SpeedgoatCANOpen2Buses1ms.obj
 0002:00001af0       $unwind$ext_mode_exec_c14_SpeedgoatCANOpen2Buses1ms 0000000180069af0     c14_SpeedgoatCANOpen2Buses1ms.obj
 0002:00001af8       $unwind$get_sim_state_c14_SpeedgoatCANOpen2Buses1ms 0000000180069af8     c14_SpeedgoatCANOpen2Buses1ms.obj
 0002:00001b00       $unwind$set_sim_state_c14_SpeedgoatCANOpen2Buses1ms 0000000180069b00     c14_SpeedgoatCANOpen2Buses1ms.obj
 0002:00001b08       $unwind$c14_set_sim_state_side_effects_c14_SpeedgoatCANOpen2Buses1ms 0000000180069b08     c14_SpeedgoatCANOpen2Buses1ms.obj
 0002:00001b10       $unwind$finalize_c14_SpeedgoatCANOpen2Buses1ms 0000000180069b10     c14_SpeedgoatCANOpen2Buses1ms.obj
 0002:00001b18       $unwind$sf_gateway_c14_SpeedgoatCANOpen2Buses1ms 0000000180069b18     c14_SpeedgoatCANOpen2Buses1ms.obj
 0002:00001b20       $unwind$mdl_start_c14_SpeedgoatCANOpen2Buses1ms 0000000180069b20     c14_SpeedgoatCANOpen2Buses1ms.obj
 0002:00001b28       $unwind$c14_chartstep_c14_SpeedgoatCANOpen2Buses1ms 0000000180069b28     c14_SpeedgoatCANOpen2Buses1ms.obj
 0002:00001b38       $unwind$c14_sf_marshallOut 0000000180069b38     c14_SpeedgoatCANOpen2Buses1ms.obj
 0002:00001b40       $unwind$c14_emlrt_marshallIn 0000000180069b40     c14_SpeedgoatCANOpen2Buses1ms.obj
 0002:00001b48       $unwind$c14_b_emlrt_marshallIn 0000000180069b48     c14_SpeedgoatCANOpen2Buses1ms.obj
 0002:00001b50       $unwind$c14_sf_marshallIn  0000000180069b50     c14_SpeedgoatCANOpen2Buses1ms.obj
 0002:00001b58       $unwind$c14_b_sf_marshallOut 0000000180069b58     c14_SpeedgoatCANOpen2Buses1ms.obj
 0002:00001b60       $unwind$c14_c_emlrt_marshallIn 0000000180069b60     c14_SpeedgoatCANOpen2Buses1ms.obj
 0002:00001b68       $unwind$c14_b_sf_marshallIn 0000000180069b68     c14_SpeedgoatCANOpen2Buses1ms.obj
 0002:00001b70       $unwind$c14_e_emlrt_marshallIn 0000000180069b70     c14_SpeedgoatCANOpen2Buses1ms.obj
 0002:00001b78       $unwind$c14_f_emlrt_marshallIn 0000000180069b78     c14_SpeedgoatCANOpen2Buses1ms.obj
 0002:00001b80       $unwind$c14_g_emlrt_marshallIn 0000000180069b80     c14_SpeedgoatCANOpen2Buses1ms.obj
 0002:00001b88       $unwind$c14_h_emlrt_marshallIn 0000000180069b88     c14_SpeedgoatCANOpen2Buses1ms.obj
 0002:00001b90       $unwind$c14_i_emlrt_marshallIn 0000000180069b90     c14_SpeedgoatCANOpen2Buses1ms.obj
 0002:00001b98       $unwind$c14_j_emlrt_marshallIn 0000000180069b98     c14_SpeedgoatCANOpen2Buses1ms.obj
 0002:00001ba0       $unwind$init_simulink_io_address 0000000180069ba0     c14_SpeedgoatCANOpen2Buses1ms.obj
 0002:00001ba8       $unwind$sf_c14_SpeedgoatCANOpen2Buses1ms_get_post_codegen_info 0000000180069ba8     c14_SpeedgoatCANOpen2Buses1ms.obj
 0002:00001bb0       $unwind$sf_c14_SpeedgoatCANOpen2Buses1ms_get_autoinheritance_info 0000000180069bb0     c14_SpeedgoatCANOpen2Buses1ms.obj
 0002:00001bc0       $unwind$sf_c14_SpeedgoatCANOpen2Buses1ms_third_party_uses_info 0000000180069bc0     c14_SpeedgoatCANOpen2Buses1ms.obj
 0002:00001bc8       $unwind$sf_c14_SpeedgoatCANOpen2Buses1ms_jit_fallback_info 0000000180069bc8     c14_SpeedgoatCANOpen2Buses1ms.obj
 0002:00001bd8       $unwind$sf_c14_SpeedgoatCANOpen2Buses1ms_updateBuildInfo_args_info 0000000180069bd8     c14_SpeedgoatCANOpen2Buses1ms.obj
 0002:00001be0       $unwind$sf_get_sim_state_info_c14_SpeedgoatCANOpen2Buses1ms 0000000180069be0     c14_SpeedgoatCANOpen2Buses1ms.obj
 0002:00001be8       $unwind$sf_check_dwork_consistency 0000000180069be8     c14_SpeedgoatCANOpen2Buses1ms.obj
 0002:00001bf0       $unwind$sf_opaque_initialize_c14_SpeedgoatCANOpen2Buses1ms 0000000180069bf0     c14_SpeedgoatCANOpen2Buses1ms.obj
 0002:00001bf8       $unwind$sf_opaque_enable_c14_SpeedgoatCANOpen2Buses1ms 0000000180069bf8     c14_SpeedgoatCANOpen2Buses1ms.obj
 0002:00001c00       $unwind$sf_opaque_disable_c14_SpeedgoatCANOpen2Buses1ms 0000000180069c00     c14_SpeedgoatCANOpen2Buses1ms.obj
 0002:00001c08       $unwind$sf_opaque_gateway_c14_SpeedgoatCANOpen2Buses1ms 0000000180069c08     c14_SpeedgoatCANOpen2Buses1ms.obj
 0002:00001c10       $unwind$sf_opaque_ext_mode_exec_c14_SpeedgoatCANOpen2Buses1ms 0000000180069c10     c14_SpeedgoatCANOpen2Buses1ms.obj
 0002:00001c18       $unwind$sf_opaque_get_sim_state_c14_SpeedgoatCANOpen2Buses1ms 0000000180069c18     c14_SpeedgoatCANOpen2Buses1ms.obj
 0002:00001c20       $unwind$sf_opaque_set_sim_state_c14_SpeedgoatCANOpen2Buses1ms 0000000180069c20     c14_SpeedgoatCANOpen2Buses1ms.obj
 0002:00001c28       $unwind$sf_opaque_terminate_c14_SpeedgoatCANOpen2Buses1ms 0000000180069c28     c14_SpeedgoatCANOpen2Buses1ms.obj
 0002:00001c30       $unwind$mdlProcessParameters_c14_SpeedgoatCANOpen2Buses1ms 0000000180069c30     c14_SpeedgoatCANOpen2Buses1ms.obj
 0002:00001c38       $unwind$sf_set_sfun_dwork_info 0000000180069c38     c14_SpeedgoatCANOpen2Buses1ms.obj
 0002:00001c40       $unwind$mdlSetWorkWidths_c14_SpeedgoatCANOpen2Buses1ms 0000000180069c40     c14_SpeedgoatCANOpen2Buses1ms.obj
 0002:00001c48       $unwind$mdlRTW_c14_SpeedgoatCANOpen2Buses1ms 0000000180069c48     c14_SpeedgoatCANOpen2Buses1ms.obj
 0002:00001c50       $unwind$mdlStart_c14_SpeedgoatCANOpen2Buses1ms 0000000180069c50     c14_SpeedgoatCANOpen2Buses1ms.obj
 0002:00001c58       $unwind$sf_c18_SpeedgoatCANOpen2Buses1ms_get_eml_resolved_functions_info 0000000180069c58     c18_SpeedgoatCANOpen2Buses1ms.obj
 0002:00001c60       $unwind$sf_c18_SpeedgoatCANOpen2Buses1ms_get_check_sum 0000000180069c60     c18_SpeedgoatCANOpen2Buses1ms.obj
 0002:00001c68       $unwind$c18_SpeedgoatCANOpen2Buses1ms_method_dispatcher 0000000180069c68     c18_SpeedgoatCANOpen2Buses1ms.obj
 0002:00001c70       $unwind$chart_debug_initialization 0000000180069c70     c18_SpeedgoatCANOpen2Buses1ms.obj
 0002:00001c78       $unwind$chart_debug_initialize_data_addresses 0000000180069c78     c18_SpeedgoatCANOpen2Buses1ms.obj
 0002:00001c80       $unwind$sf_opaque_get_hover_data_for_msg 0000000180069c80     c18_SpeedgoatCANOpen2Buses1ms.obj
 0002:00001c88       $unwind$initialize_c18_SpeedgoatCANOpen2Buses1ms 0000000180069c88     c18_SpeedgoatCANOpen2Buses1ms.obj
 0002:00001c90       $unwind$enable_c18_SpeedgoatCANOpen2Buses1ms 0000000180069c90     c18_SpeedgoatCANOpen2Buses1ms.obj
 0002:00001c98       $unwind$disable_c18_SpeedgoatCANOpen2Buses1ms 0000000180069c98     c18_SpeedgoatCANOpen2Buses1ms.obj
 0002:00001ca0       $unwind$c18_update_debugger_state_c18_SpeedgoatCANOpen2Buses1ms 0000000180069ca0     c18_SpeedgoatCANOpen2Buses1ms.obj
 0002:00001ca8       $unwind$ext_mode_exec_c18_SpeedgoatCANOpen2Buses1ms 0000000180069ca8     c18_SpeedgoatCANOpen2Buses1ms.obj
 0002:00001cb0       $unwind$get_sim_state_c18_SpeedgoatCANOpen2Buses1ms 0000000180069cb0     c18_SpeedgoatCANOpen2Buses1ms.obj
 0002:00001cb8       $unwind$set_sim_state_c18_SpeedgoatCANOpen2Buses1ms 0000000180069cb8     c18_SpeedgoatCANOpen2Buses1ms.obj
 0002:00001cc0       $unwind$c18_set_sim_state_side_effects_c18_SpeedgoatCANOpen2Buses1ms 0000000180069cc0     c18_SpeedgoatCANOpen2Buses1ms.obj
 0002:00001cc8       $unwind$finalize_c18_SpeedgoatCANOpen2Buses1ms 0000000180069cc8     c18_SpeedgoatCANOpen2Buses1ms.obj
 0002:00001cd0       $unwind$sf_gateway_c18_SpeedgoatCANOpen2Buses1ms 0000000180069cd0     c18_SpeedgoatCANOpen2Buses1ms.obj
 0002:00001cd8       $unwind$mdl_start_c18_SpeedgoatCANOpen2Buses1ms 0000000180069cd8     c18_SpeedgoatCANOpen2Buses1ms.obj
 0002:00001ce0       $unwind$c18_chartstep_c18_SpeedgoatCANOpen2Buses1ms 0000000180069ce0     c18_SpeedgoatCANOpen2Buses1ms.obj
 0002:00001cf0       $unwind$c18_sf_marshallOut 0000000180069cf0     c18_SpeedgoatCANOpen2Buses1ms.obj
 0002:00001cf8       $unwind$c18_emlrt_marshallIn 0000000180069cf8     c18_SpeedgoatCANOpen2Buses1ms.obj
 0002:00001d00       $unwind$c18_b_emlrt_marshallIn 0000000180069d00     c18_SpeedgoatCANOpen2Buses1ms.obj
 0002:00001d08       $unwind$c18_sf_marshallIn  0000000180069d08     c18_SpeedgoatCANOpen2Buses1ms.obj
 0002:00001d10       $unwind$c18_b_sf_marshallOut 0000000180069d10     c18_SpeedgoatCANOpen2Buses1ms.obj
 0002:00001d18       $unwind$c18_c_emlrt_marshallIn 0000000180069d18     c18_SpeedgoatCANOpen2Buses1ms.obj
 0002:00001d20       $unwind$c18_b_sf_marshallIn 0000000180069d20     c18_SpeedgoatCANOpen2Buses1ms.obj
 0002:00001d28       $unwind$c18_e_emlrt_marshallIn 0000000180069d28     c18_SpeedgoatCANOpen2Buses1ms.obj
 0002:00001d30       $unwind$c18_f_emlrt_marshallIn 0000000180069d30     c18_SpeedgoatCANOpen2Buses1ms.obj
 0002:00001d38       $unwind$c18_g_emlrt_marshallIn 0000000180069d38     c18_SpeedgoatCANOpen2Buses1ms.obj
 0002:00001d40       $unwind$c18_h_emlrt_marshallIn 0000000180069d40     c18_SpeedgoatCANOpen2Buses1ms.obj
 0002:00001d48       $unwind$c18_i_emlrt_marshallIn 0000000180069d48     c18_SpeedgoatCANOpen2Buses1ms.obj
 0002:00001d50       $unwind$c18_j_emlrt_marshallIn 0000000180069d50     c18_SpeedgoatCANOpen2Buses1ms.obj
 0002:00001d58       $unwind$init_simulink_io_address 0000000180069d58     c18_SpeedgoatCANOpen2Buses1ms.obj
 0002:00001d60       $unwind$sf_c18_SpeedgoatCANOpen2Buses1ms_get_post_codegen_info 0000000180069d60     c18_SpeedgoatCANOpen2Buses1ms.obj
 0002:00001d68       $unwind$sf_c18_SpeedgoatCANOpen2Buses1ms_get_autoinheritance_info 0000000180069d68     c18_SpeedgoatCANOpen2Buses1ms.obj
 0002:00001d78       $unwind$sf_c18_SpeedgoatCANOpen2Buses1ms_third_party_uses_info 0000000180069d78     c18_SpeedgoatCANOpen2Buses1ms.obj
 0002:00001d80       $unwind$sf_c18_SpeedgoatCANOpen2Buses1ms_jit_fallback_info 0000000180069d80     c18_SpeedgoatCANOpen2Buses1ms.obj
 0002:00001d90       $unwind$sf_c18_SpeedgoatCANOpen2Buses1ms_updateBuildInfo_args_info 0000000180069d90     c18_SpeedgoatCANOpen2Buses1ms.obj
 0002:00001d98       $unwind$sf_get_sim_state_info_c18_SpeedgoatCANOpen2Buses1ms 0000000180069d98     c18_SpeedgoatCANOpen2Buses1ms.obj
 0002:00001da0       $unwind$sf_check_dwork_consistency 0000000180069da0     c18_SpeedgoatCANOpen2Buses1ms.obj
 0002:00001da8       $unwind$sf_opaque_initialize_c18_SpeedgoatCANOpen2Buses1ms 0000000180069da8     c18_SpeedgoatCANOpen2Buses1ms.obj
 0002:00001db0       $unwind$sf_opaque_enable_c18_SpeedgoatCANOpen2Buses1ms 0000000180069db0     c18_SpeedgoatCANOpen2Buses1ms.obj
 0002:00001db8       $unwind$sf_opaque_disable_c18_SpeedgoatCANOpen2Buses1ms 0000000180069db8     c18_SpeedgoatCANOpen2Buses1ms.obj
 0002:00001dc0       $unwind$sf_opaque_gateway_c18_SpeedgoatCANOpen2Buses1ms 0000000180069dc0     c18_SpeedgoatCANOpen2Buses1ms.obj
 0002:00001dc8       $unwind$sf_opaque_ext_mode_exec_c18_SpeedgoatCANOpen2Buses1ms 0000000180069dc8     c18_SpeedgoatCANOpen2Buses1ms.obj
 0002:00001dd0       $unwind$sf_opaque_get_sim_state_c18_SpeedgoatCANOpen2Buses1ms 0000000180069dd0     c18_SpeedgoatCANOpen2Buses1ms.obj
 0002:00001dd8       $unwind$sf_opaque_set_sim_state_c18_SpeedgoatCANOpen2Buses1ms 0000000180069dd8     c18_SpeedgoatCANOpen2Buses1ms.obj
 0002:00001de0       $unwind$sf_opaque_terminate_c18_SpeedgoatCANOpen2Buses1ms 0000000180069de0     c18_SpeedgoatCANOpen2Buses1ms.obj
 0002:00001de8       $unwind$mdlProcessParameters_c18_SpeedgoatCANOpen2Buses1ms 0000000180069de8     c18_SpeedgoatCANOpen2Buses1ms.obj
 0002:00001df0       $unwind$sf_set_sfun_dwork_info 0000000180069df0     c18_SpeedgoatCANOpen2Buses1ms.obj
 0002:00001df8       $unwind$mdlSetWorkWidths_c18_SpeedgoatCANOpen2Buses1ms 0000000180069df8     c18_SpeedgoatCANOpen2Buses1ms.obj
 0002:00001e00       $unwind$mdlRTW_c18_SpeedgoatCANOpen2Buses1ms 0000000180069e00     c18_SpeedgoatCANOpen2Buses1ms.obj
 0002:00001e08       $unwind$mdlStart_c18_SpeedgoatCANOpen2Buses1ms 0000000180069e08     c18_SpeedgoatCANOpen2Buses1ms.obj
 0002:00001e10       $unwind$sf_c20_SpeedgoatCANOpen2Buses1ms_get_eml_resolved_functions_info 0000000180069e10     c20_SpeedgoatCANOpen2Buses1ms.obj
 0002:00001e18       $unwind$sf_c20_SpeedgoatCANOpen2Buses1ms_get_check_sum 0000000180069e18     c20_SpeedgoatCANOpen2Buses1ms.obj
 0002:00001e20       $unwind$c20_SpeedgoatCANOpen2Buses1ms_method_dispatcher 0000000180069e20     c20_SpeedgoatCANOpen2Buses1ms.obj
 0002:00001e28       $unwind$chart_debug_initialization 0000000180069e28     c20_SpeedgoatCANOpen2Buses1ms.obj
 0002:00001e30       $unwind$chart_debug_initialize_data_addresses 0000000180069e30     c20_SpeedgoatCANOpen2Buses1ms.obj
 0002:00001e38       $unwind$sf_opaque_get_hover_data_for_msg 0000000180069e38     c20_SpeedgoatCANOpen2Buses1ms.obj
 0002:00001e40       $unwind$initialize_c20_SpeedgoatCANOpen2Buses1ms 0000000180069e40     c20_SpeedgoatCANOpen2Buses1ms.obj
 0002:00001e48       $unwind$enable_c20_SpeedgoatCANOpen2Buses1ms 0000000180069e48     c20_SpeedgoatCANOpen2Buses1ms.obj
 0002:00001e50       $unwind$disable_c20_SpeedgoatCANOpen2Buses1ms 0000000180069e50     c20_SpeedgoatCANOpen2Buses1ms.obj
 0002:00001e58       $unwind$c20_update_debugger_state_c20_SpeedgoatCANOpen2Buses1ms 0000000180069e58     c20_SpeedgoatCANOpen2Buses1ms.obj
 0002:00001e60       $unwind$ext_mode_exec_c20_SpeedgoatCANOpen2Buses1ms 0000000180069e60     c20_SpeedgoatCANOpen2Buses1ms.obj
 0002:00001e68       $unwind$get_sim_state_c20_SpeedgoatCANOpen2Buses1ms 0000000180069e68     c20_SpeedgoatCANOpen2Buses1ms.obj
 0002:00001e70       $unwind$set_sim_state_c20_SpeedgoatCANOpen2Buses1ms 0000000180069e70     c20_SpeedgoatCANOpen2Buses1ms.obj
 0002:00001e78       $unwind$c20_set_sim_state_side_effects_c20_SpeedgoatCANOpen2Buses1ms 0000000180069e78     c20_SpeedgoatCANOpen2Buses1ms.obj
 0002:00001e80       $unwind$finalize_c20_SpeedgoatCANOpen2Buses1ms 0000000180069e80     c20_SpeedgoatCANOpen2Buses1ms.obj
 0002:00001e88       $unwind$sf_gateway_c20_SpeedgoatCANOpen2Buses1ms 0000000180069e88     c20_SpeedgoatCANOpen2Buses1ms.obj
 0002:00001e90       $unwind$mdl_start_c20_SpeedgoatCANOpen2Buses1ms 0000000180069e90     c20_SpeedgoatCANOpen2Buses1ms.obj
 0002:00001e98       $unwind$c20_chartstep_c20_SpeedgoatCANOpen2Buses1ms 0000000180069e98     c20_SpeedgoatCANOpen2Buses1ms.obj
 0002:00001ea8       $unwind$c20_sf_marshallOut 0000000180069ea8     c20_SpeedgoatCANOpen2Buses1ms.obj
 0002:00001eb0       $unwind$c20_emlrt_marshallIn 0000000180069eb0     c20_SpeedgoatCANOpen2Buses1ms.obj
 0002:00001eb8       $unwind$c20_b_emlrt_marshallIn 0000000180069eb8     c20_SpeedgoatCANOpen2Buses1ms.obj
 0002:00001ec0       $unwind$c20_sf_marshallIn  0000000180069ec0     c20_SpeedgoatCANOpen2Buses1ms.obj
 0002:00001ec8       $unwind$c20_b_sf_marshallOut 0000000180069ec8     c20_SpeedgoatCANOpen2Buses1ms.obj
 0002:00001ed0       $unwind$c20_c_emlrt_marshallIn 0000000180069ed0     c20_SpeedgoatCANOpen2Buses1ms.obj
 0002:00001ed8       $unwind$c20_b_sf_marshallIn 0000000180069ed8     c20_SpeedgoatCANOpen2Buses1ms.obj
 0002:00001ee0       $unwind$c20_e_emlrt_marshallIn 0000000180069ee0     c20_SpeedgoatCANOpen2Buses1ms.obj
 0002:00001ee8       $unwind$c20_f_emlrt_marshallIn 0000000180069ee8     c20_SpeedgoatCANOpen2Buses1ms.obj
 0002:00001ef0       $unwind$c20_g_emlrt_marshallIn 0000000180069ef0     c20_SpeedgoatCANOpen2Buses1ms.obj
 0002:00001ef8       $unwind$c20_h_emlrt_marshallIn 0000000180069ef8     c20_SpeedgoatCANOpen2Buses1ms.obj
 0002:00001f00       $unwind$c20_i_emlrt_marshallIn 0000000180069f00     c20_SpeedgoatCANOpen2Buses1ms.obj
 0002:00001f08       $unwind$c20_j_emlrt_marshallIn 0000000180069f08     c20_SpeedgoatCANOpen2Buses1ms.obj
 0002:00001f10       $unwind$init_simulink_io_address 0000000180069f10     c20_SpeedgoatCANOpen2Buses1ms.obj
 0002:00001f18       $unwind$sf_c20_SpeedgoatCANOpen2Buses1ms_get_post_codegen_info 0000000180069f18     c20_SpeedgoatCANOpen2Buses1ms.obj
 0002:00001f20       $unwind$sf_c20_SpeedgoatCANOpen2Buses1ms_get_autoinheritance_info 0000000180069f20     c20_SpeedgoatCANOpen2Buses1ms.obj
 0002:00001f30       $unwind$sf_c20_SpeedgoatCANOpen2Buses1ms_third_party_uses_info 0000000180069f30     c20_SpeedgoatCANOpen2Buses1ms.obj
 0002:00001f38       $unwind$sf_c20_SpeedgoatCANOpen2Buses1ms_jit_fallback_info 0000000180069f38     c20_SpeedgoatCANOpen2Buses1ms.obj
 0002:00001f48       $unwind$sf_c20_SpeedgoatCANOpen2Buses1ms_updateBuildInfo_args_info 0000000180069f48     c20_SpeedgoatCANOpen2Buses1ms.obj
 0002:00001f50       $unwind$sf_get_sim_state_info_c20_SpeedgoatCANOpen2Buses1ms 0000000180069f50     c20_SpeedgoatCANOpen2Buses1ms.obj
 0002:00001f58       $unwind$sf_check_dwork_consistency 0000000180069f58     c20_SpeedgoatCANOpen2Buses1ms.obj
 0002:00001f60       $unwind$sf_opaque_initialize_c20_SpeedgoatCANOpen2Buses1ms 0000000180069f60     c20_SpeedgoatCANOpen2Buses1ms.obj
 0002:00001f68       $unwind$sf_opaque_enable_c20_SpeedgoatCANOpen2Buses1ms 0000000180069f68     c20_SpeedgoatCANOpen2Buses1ms.obj
 0002:00001f70       $unwind$sf_opaque_disable_c20_SpeedgoatCANOpen2Buses1ms 0000000180069f70     c20_SpeedgoatCANOpen2Buses1ms.obj
 0002:00001f78       $unwind$sf_opaque_gateway_c20_SpeedgoatCANOpen2Buses1ms 0000000180069f78     c20_SpeedgoatCANOpen2Buses1ms.obj
 0002:00001f80       $unwind$sf_opaque_ext_mode_exec_c20_SpeedgoatCANOpen2Buses1ms 0000000180069f80     c20_SpeedgoatCANOpen2Buses1ms.obj
 0002:00001f88       $unwind$sf_opaque_get_sim_state_c20_SpeedgoatCANOpen2Buses1ms 0000000180069f88     c20_SpeedgoatCANOpen2Buses1ms.obj
 0002:00001f90       $unwind$sf_opaque_set_sim_state_c20_SpeedgoatCANOpen2Buses1ms 0000000180069f90     c20_SpeedgoatCANOpen2Buses1ms.obj
 0002:00001f98       $unwind$sf_opaque_terminate_c20_SpeedgoatCANOpen2Buses1ms 0000000180069f98     c20_SpeedgoatCANOpen2Buses1ms.obj
 0002:00001fa0       $unwind$mdlProcessParameters_c20_SpeedgoatCANOpen2Buses1ms 0000000180069fa0     c20_SpeedgoatCANOpen2Buses1ms.obj
 0002:00001fa8       $unwind$sf_set_sfun_dwork_info 0000000180069fa8     c20_SpeedgoatCANOpen2Buses1ms.obj
 0002:00001fb0       $unwind$mdlSetWorkWidths_c20_SpeedgoatCANOpen2Buses1ms 0000000180069fb0     c20_SpeedgoatCANOpen2Buses1ms.obj
 0002:00001fb8       $unwind$mdlRTW_c20_SpeedgoatCANOpen2Buses1ms 0000000180069fb8     c20_SpeedgoatCANOpen2Buses1ms.obj
 0002:00001fc0       $unwind$mdlStart_c20_SpeedgoatCANOpen2Buses1ms 0000000180069fc0     c20_SpeedgoatCANOpen2Buses1ms.obj
 0002:00001fc8       $unwind$_vsnprintf_l       0000000180069fc8     SpeedgoatCANOpen2Buses1ms_sfun_registry.obj
 0002:00001fd0       $unwind$_vsprintf_l        0000000180069fd0     SpeedgoatCANOpen2Buses1ms_sfun_registry.obj
 0002:00001fd8       $unwind$sprintf            0000000180069fd8     SpeedgoatCANOpen2Buses1ms_sfun_registry.obj
 0002:00001fe0       $unwind$mexFunction        0000000180069fe0     SpeedgoatCANOpen2Buses1ms_sfun_registry.obj
 0002:00001ff0       $unwind$_ssSetInputPortDirectFeedThroughFcn 0000000180069ff0     SpeedgoatCANOpen2Buses1ms_sfun_registry.obj
 0002:00002000       $unwind$_ssSetRWorkValueFcn 000000018006a000     SpeedgoatCANOpen2Buses1ms_sfun_registry.obj
 0002:00002008       $unwind$_ssGetRWorkValueFcn 000000018006a008     SpeedgoatCANOpen2Buses1ms_sfun_registry.obj
 0002:00002010       $unwind$_ssSetIWorkValueFcn 000000018006a010     SpeedgoatCANOpen2Buses1ms_sfun_registry.obj
 0002:00002018       $unwind$_ssGetIWorkValueFcn 000000018006a018     SpeedgoatCANOpen2Buses1ms_sfun_registry.obj
 0002:00002020       $unwind$_ssSetPWorkValueFcn 000000018006a020     SpeedgoatCANOpen2Buses1ms_sfun_registry.obj
 0002:00002028       $unwind$_ssGetPWorkValueFcn 000000018006a028     SpeedgoatCANOpen2Buses1ms_sfun_registry.obj
 0002:00002030       $unwind$_ssGetInputPortSignalFcn 000000018006a030     SpeedgoatCANOpen2Buses1ms_sfun_registry.obj
 0002:00002040       $unwind$_ssGetInputPortBufferDstPortFcn 000000018006a040     SpeedgoatCANOpen2Buses1ms_sfun_registry.obj
 0002:00002048       $unwind$_ssGetInputPortSignalPtrsFcn 000000018006a048     SpeedgoatCANOpen2Buses1ms_sfun_registry.obj
 0002:00002058       $unwind$ssGetParameterTuningCompliance 000000018006a058     SpeedgoatCANOpen2Buses1ms_sfun_registry.obj
 0002:00002060       $unwind$ssGetDTypeIdFromMxArray 000000018006a060     SpeedgoatCANOpen2Buses1ms_sfun_registry.obj
 0002:00002068       $unwind$ssWriteRTWMx2dMatParam 000000018006a068     SpeedgoatCANOpen2Buses1ms_sfun_registry.obj
 0002:00002070       $unwind$ssWriteRTWMxVectParam 000000018006a070     SpeedgoatCANOpen2Buses1ms_sfun_registry.obj
 0002:00002078       $unwind$ssWriteRTWParameters 000000018006a078     SpeedgoatCANOpen2Buses1ms_sfun_registry.obj
 0002:00002080       $unwind$ssWriteRTWParamSettings 000000018006a080     SpeedgoatCANOpen2Buses1ms_sfun_registry.obj
 0002:00002088       $unwind$ssWriteRTWStr      000000018006a088     SpeedgoatCANOpen2Buses1ms_sfun_registry.obj
 0002:00002090       $unwind$ssWriteRTWWorkVect 000000018006a090     SpeedgoatCANOpen2Buses1ms_sfun_registry.obj
 0002:000020a4       $unwind$ssWarning          000000018006a0a4     SpeedgoatCANOpen2Buses1ms_sfun_registry.obj
 0002:000020b8       $unwind$ssWriteRTWNameValuePair 000000018006a0b8     SpeedgoatCANOpen2Buses1ms_sfun_registry.obj
 0002:000020c0       $unwind$_ssSetInputPortMatrixDimensions 000000018006a0c0     SpeedgoatCANOpen2Buses1ms_sfun_registry.obj
 0002:000020cc       $unwind$_ssSetOutputPortMatrixDimensions 000000018006a0cc     SpeedgoatCANOpen2Buses1ms_sfun_registry.obj
 0002:000020d8       $unwind$_ssSetInputPortVectorDimension 000000018006a0d8     SpeedgoatCANOpen2Buses1ms_sfun_registry.obj
 0002:000020e4       $unwind$_ssSetOutputPortVectorDimension 000000018006a0e4     SpeedgoatCANOpen2Buses1ms_sfun_registry.obj
 0002:000020f0       $unwind$ssIsRunTimeParamTunable 000000018006a0f0     SpeedgoatCANOpen2Buses1ms_sfun_registry.obj
 0002:000020f8       $unwind$ssGetSFuncBlockHandle 000000018006a0f8     SpeedgoatCANOpen2Buses1ms_sfun_registry.obj
 0002:00002100       $unwind$_ssGetCurrentInputPortWidth 000000018006a100     SpeedgoatCANOpen2Buses1ms_sfun_registry.obj
 0002:00002108       $unwind$_ssGetCurrentOutputPortWidth 000000018006a108     SpeedgoatCANOpen2Buses1ms_sfun_registry.obj
 0002:00002110       $unwind$_ssGetCallSystemNumFcnCallDestinations 000000018006a110     SpeedgoatCANOpen2Buses1ms_sfun_registry.obj
 0002:00002118       $unwind$ssGetIsZeroCrossControlDisabled 000000018006a118     SpeedgoatCANOpen2Buses1ms_sfun_registry.obj
 0002:00002120       $unwind$ssSetIsInputPortUsedForContZcSignal 000000018006a120     SpeedgoatCANOpen2Buses1ms_sfun_registry.obj
 0002:00002128       $unwind$ssSetZcSignalIsZcElementDisc 000000018006a128     SpeedgoatCANOpen2Buses1ms_sfun_registry.obj
 0002:00002138       $unwind$ssSetZcSignalName  000000018006a138     SpeedgoatCANOpen2Buses1ms_sfun_registry.obj
 0002:00002140       $unwind$ssSetZcSignalWidth 000000018006a140     SpeedgoatCANOpen2Buses1ms_sfun_registry.obj
 0002:00002148       $unwind$ssSetZcSignalZcEventType 000000018006a148     SpeedgoatCANOpen2Buses1ms_sfun_registry.obj
 0002:00002150       $unwind$ssSetZcSignalType  000000018006a150     SpeedgoatCANOpen2Buses1ms_sfun_registry.obj
 0002:00002158       $unwind$ssSetZcSignalZcTol 000000018006a158     SpeedgoatCANOpen2Buses1ms_sfun_registry.obj
 0002:00002160       $unwind$ssSetZcSignalNeedsEventNotification 000000018006a160     SpeedgoatCANOpen2Buses1ms_sfun_registry.obj
 0002:00002168       $unwind$ssCreateAndAddZcSignalInfo 000000018006a168     SpeedgoatCANOpen2Buses1ms_sfun_registry.obj
 0002:00002170       $unwind$ssCloneAndAddZcSignalInfo 000000018006a170     SpeedgoatCANOpen2Buses1ms_sfun_registry.obj
 0002:00002178       $unwind$ssGetNumZcSignals  000000018006a178     SpeedgoatCANOpen2Buses1ms_sfun_registry.obj
 0002:00002180       $unwind$ssGetZcSignalVector 000000018006a180     SpeedgoatCANOpen2Buses1ms_sfun_registry.obj
 0002:00002188       $unwind$ssGetZcSignalName  000000018006a188     SpeedgoatCANOpen2Buses1ms_sfun_registry.obj
 0002:00002190       $unwind$ssGetZcSignalWidth 000000018006a190     SpeedgoatCANOpen2Buses1ms_sfun_registry.obj
 0002:00002198       $unwind$ssGetZcSignalZcEventType 000000018006a198     SpeedgoatCANOpen2Buses1ms_sfun_registry.obj
 0002:000021a0       $unwind$ssGetZcSignalZcEvents 000000018006a1a0     SpeedgoatCANOpen2Buses1ms_sfun_registry.obj
 0002:000021a8       $unwind$ssGetZcSignalType  000000018006a1a8     SpeedgoatCANOpen2Buses1ms_sfun_registry.obj
 0002:000021b0       $unwind$ssGetZcSignalZcTol 000000018006a1b0     SpeedgoatCANOpen2Buses1ms_sfun_registry.obj
 0002:000021b8       $unwind$ssGetZcSignalNeedsEventNotification 000000018006a1b8     SpeedgoatCANOpen2Buses1ms_sfun_registry.obj
 0002:000021c0       $unwind$ssGetZcSignalIsZcElementDisc 000000018006a1c0     SpeedgoatCANOpen2Buses1ms_sfun_registry.obj
 0002:000021d0       $unwind$ssGetIsInputPortElementContinuous 000000018006a1d0     SpeedgoatCANOpen2Buses1ms_sfun_registry.obj
 0002:000021e0       $unwind$_ssGetAbsTol       000000018006a1e0     SpeedgoatCANOpen2Buses1ms_sfun_registry.obj
 0002:000021e8       $unwind$_ssSetInputPortReusableFcn 000000018006a1e8     SpeedgoatCANOpen2Buses1ms_sfun_registry.obj
 0002:000021f0       $unwind$_ssSetOutputPortReusableFcn 000000018006a1f0     SpeedgoatCANOpen2Buses1ms_sfun_registry.obj
 0002:000021f8       $unwind$_ssSetSymbolicDimsSupport 000000018006a1f8     SpeedgoatCANOpen2Buses1ms_sfun_registry.obj
 0002:00002200       $unwind$_ssRegisterSymbolicDimsExpr 000000018006a200     SpeedgoatCANOpen2Buses1ms_sfun_registry.obj
 0002:00002208       $unwind$_ssRegisterSymbolicDims 000000018006a208     SpeedgoatCANOpen2Buses1ms_sfun_registry.obj
 0002:00002210       $unwind$_ssRegisterSymbolicDimsString 000000018006a210     SpeedgoatCANOpen2Buses1ms_sfun_registry.obj
 0002:00002218       $unwind$_ssRegisterSymbolicDimsIntValue 000000018006a218     SpeedgoatCANOpen2Buses1ms_sfun_registry.obj
 0002:00002220       $unwind$_ssRegisterSymbolicDimsPlus 000000018006a220     SpeedgoatCANOpen2Buses1ms_sfun_registry.obj
 0002:00002228       $unwind$_ssRegisterSymbolicDimsMinus 000000018006a228     SpeedgoatCANOpen2Buses1ms_sfun_registry.obj
 0002:00002230       $unwind$_ssRegisterSymbolicDimsMultiply 000000018006a230     SpeedgoatCANOpen2Buses1ms_sfun_registry.obj
 0002:00002238       $unwind$_ssRegisterSymbolicDimsDivide 000000018006a238     SpeedgoatCANOpen2Buses1ms_sfun_registry.obj
 0002:00002240       $unwind$_ssGetNumSymbolicDims 000000018006a240     SpeedgoatCANOpen2Buses1ms_sfun_registry.obj
 0002:00002248       $unwind$_ssGetSymbolicDim  000000018006a248     SpeedgoatCANOpen2Buses1ms_sfun_registry.obj
 0002:00002250       $unwind$_ssSetInputPortSymbolicDimsId 000000018006a250     SpeedgoatCANOpen2Buses1ms_sfun_registry.obj
 0002:00002258       $unwind$_ssGetCompInputPortSymbolicDimsId 000000018006a258     SpeedgoatCANOpen2Buses1ms_sfun_registry.obj
 0002:00002260       $unwind$_ssSetCompInputPortSymbolicDimsId 000000018006a260     SpeedgoatCANOpen2Buses1ms_sfun_registry.obj
 0002:00002268       $unwind$_ssSetOutputPortSymbolicDimsId 000000018006a268     SpeedgoatCANOpen2Buses1ms_sfun_registry.obj
 0002:00002270       $unwind$_ssGetCompOutputPortSymbolicDimsId 000000018006a270     SpeedgoatCANOpen2Buses1ms_sfun_registry.obj
 0002:00002278       $unwind$_ssSetCompOutputPortSymbolicDimsId 000000018006a278     SpeedgoatCANOpen2Buses1ms_sfun_registry.obj
 0002:00002280       $unwind$_ssSetCompDWorkSymbolicDimsId 000000018006a280     SpeedgoatCANOpen2Buses1ms_sfun_registry.obj
 0002:00002288       $unwind$sf_process_check_sum_call 000000018006a288     SpeedgoatCANOpen2Buses1ms_sfun_registry.obj
 0002:00002290       $unwind$sf_process_testpoint_info_call 000000018006a290     SpeedgoatCANOpen2Buses1ms_sfun_registry.obj
 0002:00002298       $unwind$sf_process_autoinheritance_call 000000018006a298     SpeedgoatCANOpen2Buses1ms_sfun_registry.obj
 0002:000022a8       $unwind$sf_process_get_third_party_uses_info_call 000000018006a2a8     SpeedgoatCANOpen2Buses1ms_sfun_registry.obj
 0002:000022b8       $unwind$sf_process_get_jit_fallback_info_call 000000018006a2b8     SpeedgoatCANOpen2Buses1ms_sfun_registry.obj
 0002:000022c8       $unwind$sf_process_get_updateBuildInfo_args_info_call 000000018006a2c8     SpeedgoatCANOpen2Buses1ms_sfun_registry.obj
 0002:000022d8       $unwind$sf_process_get_eml_resolved_functions_info_call 000000018006a2d8     SpeedgoatCANOpen2Buses1ms_sfun_registry.obj
 0002:000022e8       $unwind$sf_mex_unlock_call 000000018006a2e8     SpeedgoatCANOpen2Buses1ms_sfun_registry.obj
 0002:000022f8       $unwind$sf_debug_api_wrapper 000000018006a2f8     SpeedgoatCANOpen2Buses1ms_sfun_registry.obj
 0002:00002300       $unwind$ProcessMexSfunctionCmdLineCall 000000018006a300     SpeedgoatCANOpen2Buses1ms_sfun_registry.obj
 0002:00002308       $unwind$sf_machine_global_initializer_called 000000018006a308     SpeedgoatCANOpen2Buses1ms_sfun_registry.obj
 0002:00002310       $unwind$sf_machine_global_method_dispatcher 000000018006a310     SpeedgoatCANOpen2Buses1ms_sfun_registry.obj
 0002:00002318       $unwind$sf_machine_global_terminator 000000018006a318     SpeedgoatCANOpen2Buses1ms_sfun_registry.obj
 0002:00002320       $unwind$sf_register_machine_exported_symbols 000000018006a320     SpeedgoatCANOpen2Buses1ms_sfun_registry.obj
 0002:00002328       $unwind$sf_machine_global_initializer 000000018006a328     SpeedgoatCANOpen2Buses1ms_sfun_registry.obj
 0002:00002330       $unwind$mdlGetSimState     000000018006a330     SpeedgoatCANOpen2Buses1ms_sfun_registry.obj
 0002:00002338       $unwind$mdlSetSimState     000000018006a338     SpeedgoatCANOpen2Buses1ms_sfun_registry.obj
 0002:00002340       $unwind$mdlSetWorkWidths   000000018006a340     SpeedgoatCANOpen2Buses1ms_sfun_registry.obj
 0002:00002348       $unwind$mdlProcessParameters 000000018006a348     SpeedgoatCANOpen2Buses1ms_sfun_registry.obj
 0002:00002350       $unwind$mdl_start_processing 000000018006a350     SpeedgoatCANOpen2Buses1ms_sfun_registry.obj
 0002:00002358       $unwind$mdl_terminate_processing 000000018006a358     SpeedgoatCANOpen2Buses1ms_sfun_registry.obj
 0002:00002360       $unwind$mdlStart           000000018006a360     SpeedgoatCANOpen2Buses1ms_sfun_registry.obj
 0002:00002368       $unwind$mdlTerminate       000000018006a368     SpeedgoatCANOpen2Buses1ms_sfun_registry.obj
 0002:00002370       $unwind$mdlInitializeSizes 000000018006a370     SpeedgoatCANOpen2Buses1ms_sfun_registry.obj
 0002:00002378       $unwind$mdlInitializeSampleTimes 000000018006a378     SpeedgoatCANOpen2Buses1ms_sfun_registry.obj
 0002:00002380       $unwind$mdl_outputs_continuous_legacy 000000018006a380     SpeedgoatCANOpen2Buses1ms_sfun_registry.obj
 0002:00002388       $unwind$mdl_outputs_processing 000000018006a388     SpeedgoatCANOpen2Buses1ms_sfun_registry.obj
 0002:00002390       $unwind$mdl_zeroCrossings_processing 000000018006a390     SpeedgoatCANOpen2Buses1ms_sfun_registry.obj
 0002:00002398       $unwind$mdlZeroCrossings   000000018006a398     SpeedgoatCANOpen2Buses1ms_sfun_registry.obj
 0002:000023a0       $unwind$mdl_derivatives_processing 000000018006a3a0     SpeedgoatCANOpen2Buses1ms_sfun_registry.obj
 0002:000023a8       $unwind$mdlDerivatives     000000018006a3a8     SpeedgoatCANOpen2Buses1ms_sfun_registry.obj
 0002:000023b0       $unwind$mdl_initialize_conditions_processing 000000018006a3b0     SpeedgoatCANOpen2Buses1ms_sfun_registry.obj
 0002:000023b8       $unwind$mdlInitializeConditions 000000018006a3b8     SpeedgoatCANOpen2Buses1ms_sfun_registry.obj
 0002:000023c0       $unwind$mdl_ext_mode_exec_processing 000000018006a3c0     SpeedgoatCANOpen2Buses1ms_sfun_registry.obj
 0002:000023c8       $unwind$mdlExtModeExec     000000018006a3c8     SpeedgoatCANOpen2Buses1ms_sfun_registry.obj
 0002:000023d0       $unwind$mdlRTW             000000018006a3d0     SpeedgoatCANOpen2Buses1ms_sfun_registry.obj
 0002:000023d8       $unwind$mdl_enable_processing 000000018006a3d8     SpeedgoatCANOpen2Buses1ms_sfun_registry.obj
 0002:000023e0       $unwind$mdlEnable          000000018006a3e0     SpeedgoatCANOpen2Buses1ms_sfun_registry.obj
 0002:000023e8       $unwind$mdl_disable_processing 000000018006a3e8     SpeedgoatCANOpen2Buses1ms_sfun_registry.obj
 0002:000023f0       $unwind$mdlDisable         000000018006a3f0     SpeedgoatCANOpen2Buses1ms_sfun_registry.obj
 0002:000023f8       $unwind$mdlOutputs         000000018006a3f8     SpeedgoatCANOpen2Buses1ms_sfun_registry.obj
 0002:00002400       $unwind$mdl_update_processing 000000018006a400     SpeedgoatCANOpen2Buses1ms_sfun_registry.obj
 0002:00002408       $unwind$mdlUpdate          000000018006a408     SpeedgoatCANOpen2Buses1ms_sfun_registry.obj
 0002:00002410       $unwind$ProcessMexSfunctionEveryCall 000000018006a410     SpeedgoatCANOpen2Buses1ms_sfun_registry.obj
 0002:00002418       $unwind$_RegNumInputPortsCB 000000018006a418     SpeedgoatCANOpen2Buses1ms_sfun_registry.obj
 0002:00002420       $unwind$_RegNumOutputPortsCB 000000018006a420     SpeedgoatCANOpen2Buses1ms_sfun_registry.obj
 0002:00002428       $unwind$_CreateSimStruct   000000018006a428     SpeedgoatCANOpen2Buses1ms_sfun_registry.obj
 0002:00002430       $unwind$_ProcessMexSfunctionCmdLineCall 000000018006a430     SpeedgoatCANOpen2Buses1ms_sfun_registry.obj
 0002:00002440       $unwind$ReportIndexOutOfBoundsError 000000018006a440     SpeedgoatCANOpen2Buses1ms_sfun_registry.obj
 0002:00002450       $unwind$__report_securityfailure 000000018006a450     MSVCRT:gs_report.obj
 0002:00002458       $unwind$__report_securityfailureEx 000000018006a458     MSVCRT:gs_report.obj
 0002:00002460       $unwind$__report_rangecheckfailure 000000018006a460     MSVCRT:gs_report.obj
 0002:00002468       $unwind$__report_gsfailure 000000018006a468     MSVCRT:gs_report.obj
 0002:00002470       $unwind$capture_current_context 000000018006a470     MSVCRT:gs_report.obj
 0002:0000247c       $unwind$capture_previous_context 000000018006a47c     MSVCRT:gs_report.obj
 0002:00002488       $unwind$__raise_securityfailure 000000018006a488     MSVCRT:gs_report.obj
 0002:00002490       $unwind$__GSHandlerCheckCommon 000000018006a490     MSVCRT:gshandler.obj
 0002:00002498       $unwind$__GSHandlerCheck   000000018006a498     MSVCRT:gshandler.obj
 0002:000024a0       $xdatasym                  000000018006a4a0     MSVCRT:amdsecgs.obj
 0002:000024a4       $unwind$?dllmain_crt_process_attach@@YAHQEAUHINSTANCE__@@QEAX@Z 000000018006a4a4     MSVCRT:dll_dllmain.obj
 0002:000024e0       $unwind$?fin$0@?0??dllmain_crt_process_attach@@YAHQEAUHINSTANCE__@@QEAX@Z@4HA 000000018006a4e0     MSVCRT:dll_dllmain.obj
 0002:000024e8       $unwind$?dllmain_crt_process_detach@@YAH_N@Z 000000018006a4e8     MSVCRT:dll_dllmain.obj
 0002:00002520       $unwind$?fin$0@?0??dllmain_crt_process_detach@@YAH_N@Z@4HA 000000018006a520     MSVCRT:dll_dllmain.obj
 0002:00002528       $unwind$?dllmain_crt_dispatch@@YAHQEAUHINSTANCE__@@KQEAX@Z 000000018006a528     MSVCRT:dll_dllmain.obj
 0002:00002530       $unwind$?dllmain_dispatch@@YAHQEAUHINSTANCE__@@KQEAX@Z 000000018006a530     MSVCRT:dll_dllmain.obj
 0002:00002558       $unwind$?filt$0@?0??dllmain_dispatch@@YAHQEAUHINSTANCE__@@KQEAX@Z@4HA 000000018006a558     MSVCRT:dll_dllmain.obj
 0002:00002560       $unwind$_DllMainCRTStartup 000000018006a560     MSVCRT:dll_dllmain.obj
 0002:00002570       $unwind$__security_init_cookie 000000018006a570     MSVCRT:gs_support.obj
 0002:0000257c       $unwind$__get_entropy      000000018006a57c     MSVCRT:gs_support.obj
 0002:00002584       $unwind$DllMain            000000018006a584     MSVCRT:dll_dllmain_stub.obj
 0002:0000258c       $unwind$__scrt_initialize_default_local_stdio_options 000000018006a58c     MSVCRT:default_local_stdio_options.obj
 0002:00002594       $unwind$atexit             000000018006a594     MSVCRT:utility.obj
 0002:0000259c       $unwind$_onexit            000000018006a59c     MSVCRT:utility.obj
 0002:000025a4       $unwind$__scrt_is_nonwritable_in_current_image 000000018006a5a4     MSVCRT:utility.obj
 0002:000025c4       $unwind$__scrt_is_nonwritable_in_current_image$filt$0 000000018006a5c4     MSVCRT:utility.obj
 0002:000025cc       $unwind$__scrt_acquire_startup_lock 000000018006a5cc     MSVCRT:utility.obj
 0002:000025d4       $unwind$__scrt_release_startup_lock 000000018006a5d4     MSVCRT:utility.obj
 0002:000025dc       $unwind$__scrt_initialize_crt 000000018006a5dc     MSVCRT:utility.obj
 0002:000025e4       $unwind$__scrt_uninitialize_crt 000000018006a5e4     MSVCRT:utility.obj
 0002:000025ec       $unwind$__scrt_initialize_onexit_tables 000000018006a5ec     MSVCRT:utility.obj
 0002:000025f4       $unwind$__scrt_dllmain_exception_filter 000000018006a5f4     MSVCRT:utility.obj
 0002:00002608       $unwind$__scrt_dllmain_before_initialize_c 000000018006a608     MSVCRT:utility.obj
 0002:00002610       $unwind$__scrt_dllmain_after_initialize_c 000000018006a610     MSVCRT:utility.obj
 0002:00002618       $unwind$__scrt_dllmain_uninitialize_c 000000018006a618     MSVCRT:utility.obj
 0002:00002620       $unwind$__scrt_dllmain_uninitialize_critical 000000018006a620     MSVCRT:utility.obj
 0002:00002628       $unwind$__scrt_dllmain_crt_thread_attach 000000018006a628     MSVCRT:utility.obj
 0002:00002630       $unwind$__scrt_dllmain_crt_thread_detach 000000018006a630     MSVCRT:utility.obj
 0002:00002638       $unwind$?configure_argv@__scrt_narrow_argv_policy@@SAHXZ 000000018006a638     MSVCRT:utility.obj
 0002:00002640       $unwind$__scrt_get_show_window_mode 000000018006a640     MSVCRT:utility_desktop.obj
 0002:00002648       $unwind$__scrt_is_managed_app 000000018006a648     MSVCRT:utility_desktop.obj
 0002:00002650       $unwind$__scrt_fastfail    000000018006a650     MSVCRT:utility_desktop.obj
 0002:00002660       $unwind$__scrt_unhandled_exception_filter 000000018006a660     MSVCRT:utility_desktop.obj
 0002:00002668       $unwind$_RTC_Initialize    000000018006a668     MSVCRT:initsect.obj
 0002:00002674       $unwind$_RTC_Terminate     000000018006a674     MSVCRT:initsect.obj
 0002:00002680       $unwind$__isa_available_init 000000018006a680     MSVCRT:cpu_disp.obj
 0002:00002690       $xdatasym                  000000018006a690     MSVCRT:guard_dispatch.obj
 0002:000026a0       .edata                     000000018006a6a0     SpeedgoatCANOpen2Buses1ms_sfun.exp
 0002:000026c8       rgpv                       000000018006a6c8     SpeedgoatCANOpen2Buses1ms_sfun.exp
 0002:000026d0       rgszName                   000000018006a6d0     SpeedgoatCANOpen2Buses1ms_sfun.exp
 0002:000026d8       rgwOrd                     000000018006a6d8     SpeedgoatCANOpen2Buses1ms_sfun.exp
 0002:000026dc       szName                     000000018006a6dc     SpeedgoatCANOpen2Buses1ms_sfun.exp
 0002:00002702       $N00001                    000000018006a702     SpeedgoatCANOpen2Buses1ms_sfun.exp
 0002:0000270e       $N00002                    000000018006a70e     SpeedgoatCANOpen2Buses1ms_sfun.exp
 0002:000036da       .idata$6                   000000018006b6da     sf_runtime:sf_runtime.dll
 0002:00003852       .idata$6                   000000018006b852     libmx:libmx.dll
 0002:000038d4       .idata$6                   000000018006b8d4     libmex:libmex.dll
 0002:000038f6       .idata$6                   000000018006b8f6     libut:libut.dll
 0002:00003924       .idata$6                   000000018006b924     libmwsl_sfcn_cov_bridge:libmwsl_sfcn_cov_bridge.dll
 0002:00003acc       .idata$6                   000000018006bacc     kernel32:KERNEL32.dll
 0002:00003b26       .idata$6                   000000018006bb26     vcruntime:VCRUNTIME140.dll
 0002:00003c6a       .idata$6                   000000018006bc6a     ucrt:api-ms-win-crt-string-l1-1-0.dll
 0002:00003c8c       .idata$6                   000000018006bc8c     ucrt:api-ms-win-crt-stdio-l1-1-0.dll
 0002:00003cac       .idata$6                   000000018006bcac     ucrt:api-ms-win-crt-heap-l1-1-0.dll
 0002:00003ccc       .idata$6                   000000018006bccc     ucrt:api-ms-win-crt-runtime-l1-1-0.dll
 0003:00000000       $SG25593                   000000018006c000     SpeedgoatCANOpen2Buses1ms_sfun.obj
 0003:00000018       $SG25595                   000000018006c018     SpeedgoatCANOpen2Buses1ms_sfun.obj
 0003:00000038       $SG25697                   000000018006c038     SpeedgoatCANOpen2Buses1ms_sfun.obj
 0003:00000050       $SG25702                   000000018006c050     SpeedgoatCANOpen2Buses1ms_sfun.obj
 0003:00000058       $SG25705                   000000018006c058     SpeedgoatCANOpen2Buses1ms_sfun.obj
 0003:00000060       $SG25720                   000000018006c060     SpeedgoatCANOpen2Buses1ms_sfun.obj
 0003:00000068       $SG25768                   000000018006c068     SpeedgoatCANOpen2Buses1ms_sfun.obj
 0003:00000088       $SG25771                   000000018006c088     SpeedgoatCANOpen2Buses1ms_sfun.obj
 0003:000000a0       $SG25774                   000000018006c0a0     SpeedgoatCANOpen2Buses1ms_sfun.obj
 0003:000000b8       $SG25777                   000000018006c0b8     SpeedgoatCANOpen2Buses1ms_sfun.obj
 0003:000000d0       $SG25780                   000000018006c0d0     SpeedgoatCANOpen2Buses1ms_sfun.obj
 0003:000000e8       $SG25783                   000000018006c0e8     SpeedgoatCANOpen2Buses1ms_sfun.obj
 0003:00000100       $SG25786                   000000018006c100     SpeedgoatCANOpen2Buses1ms_sfun.obj
 0003:00000118       $SG25789                   000000018006c118     SpeedgoatCANOpen2Buses1ms_sfun.obj
 0003:00000130       $SG25792                   000000018006c130     SpeedgoatCANOpen2Buses1ms_sfun.obj
 0003:00000148       $SG25795                   000000018006c148     SpeedgoatCANOpen2Buses1ms_sfun.obj
 0003:00000160       $SG25798                   000000018006c160     SpeedgoatCANOpen2Buses1ms_sfun.obj
 0003:00000178       $SG25801                   000000018006c178     SpeedgoatCANOpen2Buses1ms_sfun.obj
 0003:00000190       $SG25872                   000000018006c190     SpeedgoatCANOpen2Buses1ms_sfun.obj
 0003:000001b0       $SG25875                   000000018006c1b0     SpeedgoatCANOpen2Buses1ms_sfun.obj
 0003:000001c8       $SG25878                   000000018006c1c8     SpeedgoatCANOpen2Buses1ms_sfun.obj
 0003:000001e0       $SG25881                   000000018006c1e0     SpeedgoatCANOpen2Buses1ms_sfun.obj
 0003:000001f8       $SG25884                   000000018006c1f8     SpeedgoatCANOpen2Buses1ms_sfun.obj
 0003:00000210       $SG25887                   000000018006c210     SpeedgoatCANOpen2Buses1ms_sfun.obj
 0003:00000228       $SG25890                   000000018006c228     SpeedgoatCANOpen2Buses1ms_sfun.obj
 0003:00000240       $SG25893                   000000018006c240     SpeedgoatCANOpen2Buses1ms_sfun.obj
 0003:00000258       $SG25896                   000000018006c258     SpeedgoatCANOpen2Buses1ms_sfun.obj
 0003:00000270       $SG25899                   000000018006c270     SpeedgoatCANOpen2Buses1ms_sfun.obj
 0003:00000288       $SG25902                   000000018006c288     SpeedgoatCANOpen2Buses1ms_sfun.obj
 0003:000002a0       $SG25905                   000000018006c2a0     SpeedgoatCANOpen2Buses1ms_sfun.obj
 0003:000002b8       $SG25954                   000000018006c2b8     SpeedgoatCANOpen2Buses1ms_sfun.obj
 0003:000002d8       $SG25957                   000000018006c2d8     SpeedgoatCANOpen2Buses1ms_sfun.obj
 0003:000002f0       $SG25960                   000000018006c2f0     SpeedgoatCANOpen2Buses1ms_sfun.obj
 0003:00000308       $SG25963                   000000018006c308     SpeedgoatCANOpen2Buses1ms_sfun.obj
 0003:00000320       $SG25966                   000000018006c320     SpeedgoatCANOpen2Buses1ms_sfun.obj
 0003:00000338       $SG25969                   000000018006c338     SpeedgoatCANOpen2Buses1ms_sfun.obj
 0003:00000350       $SG25972                   000000018006c350     SpeedgoatCANOpen2Buses1ms_sfun.obj
 0003:00000368       $SG25975                   000000018006c368     SpeedgoatCANOpen2Buses1ms_sfun.obj
 0003:00000380       $SG25978                   000000018006c380     SpeedgoatCANOpen2Buses1ms_sfun.obj
 0003:00000398       $SG25981                   000000018006c398     SpeedgoatCANOpen2Buses1ms_sfun.obj
 0003:000003b0       $SG25984                   000000018006c3b0     SpeedgoatCANOpen2Buses1ms_sfun.obj
 0003:000003c8       $SG25987                   000000018006c3c8     SpeedgoatCANOpen2Buses1ms_sfun.obj
 0003:000003e0       $SG26036                   000000018006c3e0     SpeedgoatCANOpen2Buses1ms_sfun.obj
 0003:000003f8       $SG26039                   000000018006c3f8     SpeedgoatCANOpen2Buses1ms_sfun.obj
 0003:00000410       $SG26042                   000000018006c410     SpeedgoatCANOpen2Buses1ms_sfun.obj
 0003:00000428       $SG26045                   000000018006c428     SpeedgoatCANOpen2Buses1ms_sfun.obj
 0003:00000440       $SG26048                   000000018006c440     SpeedgoatCANOpen2Buses1ms_sfun.obj
 0003:00000458       $SG26051                   000000018006c458     SpeedgoatCANOpen2Buses1ms_sfun.obj
 0003:00000470       $SG26054                   000000018006c470     SpeedgoatCANOpen2Buses1ms_sfun.obj
 0003:00000488       $SG26057                   000000018006c488     SpeedgoatCANOpen2Buses1ms_sfun.obj
 0003:000004a0       $SG26060                   000000018006c4a0     SpeedgoatCANOpen2Buses1ms_sfun.obj
 0003:000004b8       $SG26063                   000000018006c4b8     SpeedgoatCANOpen2Buses1ms_sfun.obj
 0003:000004d0       $SG26066                   000000018006c4d0     SpeedgoatCANOpen2Buses1ms_sfun.obj
 0003:000004e8       $SG26069                   000000018006c4e8     SpeedgoatCANOpen2Buses1ms_sfun.obj
 0003:00000500       $SG26118                   000000018006c500     SpeedgoatCANOpen2Buses1ms_sfun.obj
 0003:00000520       $SG26121                   000000018006c520     SpeedgoatCANOpen2Buses1ms_sfun.obj
 0003:00000538       $SG26124                   000000018006c538     SpeedgoatCANOpen2Buses1ms_sfun.obj
 0003:00000550       $SG26127                   000000018006c550     SpeedgoatCANOpen2Buses1ms_sfun.obj
 0003:00000568       $SG26130                   000000018006c568     SpeedgoatCANOpen2Buses1ms_sfun.obj
 0003:00000580       $SG26133                   000000018006c580     SpeedgoatCANOpen2Buses1ms_sfun.obj
 0003:00000598       $SG26136                   000000018006c598     SpeedgoatCANOpen2Buses1ms_sfun.obj
 0003:000005b0       $SG26139                   000000018006c5b0     SpeedgoatCANOpen2Buses1ms_sfun.obj
 0003:000005c8       $SG26142                   000000018006c5c8     SpeedgoatCANOpen2Buses1ms_sfun.obj
 0003:000005e0       $SG26145                   000000018006c5e0     SpeedgoatCANOpen2Buses1ms_sfun.obj
 0003:000005f8       $SG26148                   000000018006c5f8     SpeedgoatCANOpen2Buses1ms_sfun.obj
 0003:00000610       $SG26151                   000000018006c610     SpeedgoatCANOpen2Buses1ms_sfun.obj
 0003:00000628       $SG26157                   000000018006c628     SpeedgoatCANOpen2Buses1ms_sfun.obj
 0003:00000630       $SG26158                   000000018006c630     SpeedgoatCANOpen2Buses1ms_sfun.obj
 0003:00000650       $SG26183                   000000018006c650     SpeedgoatCANOpen2Buses1ms_sfun.obj
 0003:00000670       $SG26184                   000000018006c670     SpeedgoatCANOpen2Buses1ms_sfun.obj
 0003:00000690       $SG25216                   000000018006c690     c1_SpeedgoatCANOpen2Buses1ms.obj
 0003:00000698       $SG25217                   000000018006c698     c1_SpeedgoatCANOpen2Buses1ms.obj
 0003:000006a0       $SG25219                   000000018006c6a0     c1_SpeedgoatCANOpen2Buses1ms.obj
 0003:000006a8       $SG25220                   000000018006c6a8     c1_SpeedgoatCANOpen2Buses1ms.obj
 0003:000006b0       $SG25222                   000000018006c6b0     c1_SpeedgoatCANOpen2Buses1ms.obj
 0003:000006b8       $SG25223                   000000018006c6b8     c1_SpeedgoatCANOpen2Buses1ms.obj
 0003:000006c0       $SG25225                   000000018006c6c0     c1_SpeedgoatCANOpen2Buses1ms.obj
 0003:000006c8       $SG25226                   000000018006c6c8     c1_SpeedgoatCANOpen2Buses1ms.obj
 0003:000006d0       $SG25228                   000000018006c6d0     c1_SpeedgoatCANOpen2Buses1ms.obj
 0003:000006d8       $SG25229                   000000018006c6d8     c1_SpeedgoatCANOpen2Buses1ms.obj
 0003:000006e0       $SG25230                   000000018006c6e0     c1_SpeedgoatCANOpen2Buses1ms.obj
 0003:000006fc       $SG25232                   000000018006c6fc     c1_SpeedgoatCANOpen2Buses1ms.obj
 0003:00000708       $SG25233                   000000018006c708     c1_SpeedgoatCANOpen2Buses1ms.obj
 0003:00000710       $SG25235                   000000018006c710     c1_SpeedgoatCANOpen2Buses1ms.obj
 0003:00000718       $SG25236                   000000018006c718     c1_SpeedgoatCANOpen2Buses1ms.obj
 0003:00000720       $SG25237                   000000018006c720     c1_SpeedgoatCANOpen2Buses1ms.obj
 0003:0000073c       $SG25239                   000000018006c73c     c1_SpeedgoatCANOpen2Buses1ms.obj
 0003:00000748       $SG25240                   000000018006c748     c1_SpeedgoatCANOpen2Buses1ms.obj
 0003:00000750       $SG25241                   000000018006c750     c1_SpeedgoatCANOpen2Buses1ms.obj
 0003:0000076c       $SG25243                   000000018006c76c     c1_SpeedgoatCANOpen2Buses1ms.obj
 0003:00000778       $SG25244                   000000018006c778     c1_SpeedgoatCANOpen2Buses1ms.obj
 0003:00000780       $SG25245                   000000018006c780     c1_SpeedgoatCANOpen2Buses1ms.obj
 0003:0000079c       $SG25247                   000000018006c79c     c1_SpeedgoatCANOpen2Buses1ms.obj
 0003:000007a8       $SG25248                   000000018006c7a8     c1_SpeedgoatCANOpen2Buses1ms.obj
 0003:000007b0       $SG25250                   000000018006c7b0     c1_SpeedgoatCANOpen2Buses1ms.obj
 0003:000007b8       $SG25251                   000000018006c7b8     c1_SpeedgoatCANOpen2Buses1ms.obj
 0003:000007c0       $SG25252                   000000018006c7c0     c1_SpeedgoatCANOpen2Buses1ms.obj
 0003:000007dc       $SG25554                   000000018006c7dc     c1_SpeedgoatCANOpen2Buses1ms.obj
 0003:000007e0       c1_debug_family_names      000000018006c7e0     c1_SpeedgoatCANOpen2Buses1ms.obj
 0003:000007f0       c1_b_debug_family_names    000000018006c7f0     c1_SpeedgoatCANOpen2Buses1ms.obj
 0003:00000800       c1_c_debug_family_names    000000018006c800     c1_SpeedgoatCANOpen2Buses1ms.obj
 0003:00000810       c1_d_debug_family_names    000000018006c810     c1_SpeedgoatCANOpen2Buses1ms.obj
 0003:00000820       c1_e_debug_family_names    000000018006c820     c1_SpeedgoatCANOpen2Buses1ms.obj
 0003:00000838       c1_f_debug_family_names    000000018006c838     c1_SpeedgoatCANOpen2Buses1ms.obj
 0003:00000848       c1_g_debug_family_names    000000018006c848     c1_SpeedgoatCANOpen2Buses1ms.obj
 0003:00000860       c1_h_debug_family_names    000000018006c860     c1_SpeedgoatCANOpen2Buses1ms.obj
 0003:00000878       c1_i_debug_family_names    000000018006c878     c1_SpeedgoatCANOpen2Buses1ms.obj
 0003:00000890       c1_j_debug_family_names    000000018006c890     c1_SpeedgoatCANOpen2Buses1ms.obj
 0003:000008a0       c1_k_debug_family_names    000000018006c8a0     c1_SpeedgoatCANOpen2Buses1ms.obj
 0003:000008b8       $SG25555                   000000018006c8b8     c1_SpeedgoatCANOpen2Buses1ms.obj
 0003:000008bc       $SG25556                   000000018006c8bc     c1_SpeedgoatCANOpen2Buses1ms.obj
 0003:000008c0       $SG25557                   000000018006c8c0     c1_SpeedgoatCANOpen2Buses1ms.obj
 0003:000008c4       $SG25558                   000000018006c8c4     c1_SpeedgoatCANOpen2Buses1ms.obj
 0003:000008c8       $SG25559                   000000018006c8c8     c1_SpeedgoatCANOpen2Buses1ms.obj
 0003:000008cc       $SG25560                   000000018006c8cc     c1_SpeedgoatCANOpen2Buses1ms.obj
 0003:000008d0       $SG25561                   000000018006c8d0     c1_SpeedgoatCANOpen2Buses1ms.obj
 0003:000008d4       $SG25562                   000000018006c8d4     c1_SpeedgoatCANOpen2Buses1ms.obj
 0003:000008d8       $SG25563                   000000018006c8d8     c1_SpeedgoatCANOpen2Buses1ms.obj
 0003:000008dc       $SG25580                   000000018006c8dc     c1_SpeedgoatCANOpen2Buses1ms.obj
 0003:000008e0       $SG25575                   000000018006c8e0     c1_SpeedgoatCANOpen2Buses1ms.obj
 0003:000008ec       $SG25832                   000000018006c8ec     c1_SpeedgoatCANOpen2Buses1ms.obj
 0003:000008f0       $SG25576                   000000018006c8f0     c1_SpeedgoatCANOpen2Buses1ms.obj
 0003:000008fc       $SG25876                   000000018006c8fc     c1_SpeedgoatCANOpen2Buses1ms.obj
 0003:00000900       $SG25577                   000000018006c900     c1_SpeedgoatCANOpen2Buses1ms.obj
 0003:0000090c       $SG25971                   000000018006c90c     c1_SpeedgoatCANOpen2Buses1ms.obj
 0003:00000910       $SG25578                   000000018006c910     c1_SpeedgoatCANOpen2Buses1ms.obj
 0003:0000091c       $SG26482                   000000018006c91c     c1_SpeedgoatCANOpen2Buses1ms.obj
 0003:00000920       $SG25579                   000000018006c920     c1_SpeedgoatCANOpen2Buses1ms.obj
 0003:0000092c       $SG25581                   000000018006c92c     c1_SpeedgoatCANOpen2Buses1ms.obj
 0003:00000934       $SG26183                   000000018006c934     c1_SpeedgoatCANOpen2Buses1ms.obj
 0003:00000940       $SG25582                   000000018006c940     c1_SpeedgoatCANOpen2Buses1ms.obj
 0003:00000968       $SG25583                   000000018006c968     c1_SpeedgoatCANOpen2Buses1ms.obj
 0003:00000988       $SG25584                   000000018006c988     c1_SpeedgoatCANOpen2Buses1ms.obj
 0003:000009a0       $SG25585                   000000018006c9a0     c1_SpeedgoatCANOpen2Buses1ms.obj
 0003:000009c0       $SG25911                   000000018006c9c0     c1_SpeedgoatCANOpen2Buses1ms.obj
 0003:000009d0       $SG26181                   000000018006c9d0     c1_SpeedgoatCANOpen2Buses1ms.obj
 0003:000009e0       $SG26185                   000000018006c9e0     c1_SpeedgoatCANOpen2Buses1ms.obj
 0003:000009f0       $SG26187                   000000018006c9f0     c1_SpeedgoatCANOpen2Buses1ms.obj
 0003:000009f8       $SG26189                   000000018006c9f8     c1_SpeedgoatCANOpen2Buses1ms.obj
 0003:00000a00       $SG26191                   000000018006ca00     c1_SpeedgoatCANOpen2Buses1ms.obj
 0003:00000a10       $SG26192                   000000018006ca10     c1_SpeedgoatCANOpen2Buses1ms.obj
 0003:00000a28       $SG26193                   000000018006ca28     c1_SpeedgoatCANOpen2Buses1ms.obj
 0003:00000a34       $SG26195                   000000018006ca34     c1_SpeedgoatCANOpen2Buses1ms.obj
 0003:00000a3c       $SG26197                   000000018006ca3c     c1_SpeedgoatCANOpen2Buses1ms.obj
 0003:00000a48       $SG26199                   000000018006ca48     c1_SpeedgoatCANOpen2Buses1ms.obj
 0003:00000a54       $SG26200                   000000018006ca54     c1_SpeedgoatCANOpen2Buses1ms.obj
 0003:00000a5c       $SG26202                   000000018006ca5c     c1_SpeedgoatCANOpen2Buses1ms.obj
 0003:00000a64       $SG26204                   000000018006ca64     c1_SpeedgoatCANOpen2Buses1ms.obj
 0003:00000a70       $SG26206                   000000018006ca70     c1_SpeedgoatCANOpen2Buses1ms.obj
 0003:00000a84       $SG26207                   000000018006ca84     c1_SpeedgoatCANOpen2Buses1ms.obj
 0003:00000a8c       $SG26208                   000000018006ca8c     c1_SpeedgoatCANOpen2Buses1ms.obj
 0003:00000a98       $SG26209                   000000018006ca98     c1_SpeedgoatCANOpen2Buses1ms.obj
 0003:00000aac       $SG26210                   000000018006caac     c1_SpeedgoatCANOpen2Buses1ms.obj
 0003:00000ab8       $SG26211                   000000018006cab8     c1_SpeedgoatCANOpen2Buses1ms.obj
 0003:00000ac4       $SG26212                   000000018006cac4     c1_SpeedgoatCANOpen2Buses1ms.obj
 0003:00000acc       $SG26214                   000000018006cacc     c1_SpeedgoatCANOpen2Buses1ms.obj
 0003:00000ad4       $SG26216                   000000018006cad4     c1_SpeedgoatCANOpen2Buses1ms.obj
 0003:00000ae0       $SG26218                   000000018006cae0     c1_SpeedgoatCANOpen2Buses1ms.obj
 0003:00000af4       $SG26219                   000000018006caf4     c1_SpeedgoatCANOpen2Buses1ms.obj
 0003:00000afc       $SG26220                   000000018006cafc     c1_SpeedgoatCANOpen2Buses1ms.obj
 0003:00000b08       $SG26221                   000000018006cb08     c1_SpeedgoatCANOpen2Buses1ms.obj
 0003:00000b1c       $SG26222                   000000018006cb1c     c1_SpeedgoatCANOpen2Buses1ms.obj
 0003:00000b28       $SG26223                   000000018006cb28     c1_SpeedgoatCANOpen2Buses1ms.obj
 0003:00000b34       $SG26224                   000000018006cb34     c1_SpeedgoatCANOpen2Buses1ms.obj
 0003:00000b40       $SG26225                   000000018006cb40     c1_SpeedgoatCANOpen2Buses1ms.obj
 0003:00000b4c       $SG26227                   000000018006cb4c     c1_SpeedgoatCANOpen2Buses1ms.obj
 0003:00000b54       $SG26229                   000000018006cb54     c1_SpeedgoatCANOpen2Buses1ms.obj
 0003:00000b60       $SG26231                   000000018006cb60     c1_SpeedgoatCANOpen2Buses1ms.obj
 0003:00000b6c       $SG26232                   000000018006cb6c     c1_SpeedgoatCANOpen2Buses1ms.obj
 0003:00000b74       $SG26234                   000000018006cb74     c1_SpeedgoatCANOpen2Buses1ms.obj
 0003:00000b7c       $SG26236                   000000018006cb7c     c1_SpeedgoatCANOpen2Buses1ms.obj
 0003:00000b88       $SG26238                   000000018006cb88     c1_SpeedgoatCANOpen2Buses1ms.obj
 0003:00000b9c       $SG26239                   000000018006cb9c     c1_SpeedgoatCANOpen2Buses1ms.obj
 0003:00000ba4       $SG26240                   000000018006cba4     c1_SpeedgoatCANOpen2Buses1ms.obj
 0003:00000bb0       $SG26241                   000000018006cbb0     c1_SpeedgoatCANOpen2Buses1ms.obj
 0003:00000bc4       $SG26242                   000000018006cbc4     c1_SpeedgoatCANOpen2Buses1ms.obj
 0003:00000bd0       $SG26243                   000000018006cbd0     c1_SpeedgoatCANOpen2Buses1ms.obj
 0003:00000bdc       $SG26244                   000000018006cbdc     c1_SpeedgoatCANOpen2Buses1ms.obj
 0003:00000be4       $SG26246                   000000018006cbe4     c1_SpeedgoatCANOpen2Buses1ms.obj
 0003:00000bec       $SG26248                   000000018006cbec     c1_SpeedgoatCANOpen2Buses1ms.obj
 0003:00000bf8       $SG26250                   000000018006cbf8     c1_SpeedgoatCANOpen2Buses1ms.obj
 0003:00000c0c       $SG26251                   000000018006cc0c     c1_SpeedgoatCANOpen2Buses1ms.obj
 0003:00000c14       $SG26252                   000000018006cc14     c1_SpeedgoatCANOpen2Buses1ms.obj
 0003:00000c20       $SG26253                   000000018006cc20     c1_SpeedgoatCANOpen2Buses1ms.obj
 0003:00000c34       $SG26254                   000000018006cc34     c1_SpeedgoatCANOpen2Buses1ms.obj
 0003:00000c40       $SG26255                   000000018006cc40     c1_SpeedgoatCANOpen2Buses1ms.obj
 0003:00000c4c       $SG26256                   000000018006cc4c     c1_SpeedgoatCANOpen2Buses1ms.obj
 0003:00000c54       $SG26258                   000000018006cc54     c1_SpeedgoatCANOpen2Buses1ms.obj
 0003:00000c5c       $SG26260                   000000018006cc5c     c1_SpeedgoatCANOpen2Buses1ms.obj
 0003:00000c68       $SG26262                   000000018006cc68     c1_SpeedgoatCANOpen2Buses1ms.obj
 0003:00000c7c       $SG26263                   000000018006cc7c     c1_SpeedgoatCANOpen2Buses1ms.obj
 0003:00000c84       $SG26264                   000000018006cc84     c1_SpeedgoatCANOpen2Buses1ms.obj
 0003:00000c90       $SG26265                   000000018006cc90     c1_SpeedgoatCANOpen2Buses1ms.obj
 0003:00000ca4       $SG26266                   000000018006cca4     c1_SpeedgoatCANOpen2Buses1ms.obj
 0003:00000cb0       $SG26267                   000000018006ccb0     c1_SpeedgoatCANOpen2Buses1ms.obj
 0003:00000cbc       $SG26268                   000000018006ccbc     c1_SpeedgoatCANOpen2Buses1ms.obj
 0003:00000cc4       $SG26270                   000000018006ccc4     c1_SpeedgoatCANOpen2Buses1ms.obj
 0003:00000ccc       $SG26272                   000000018006cccc     c1_SpeedgoatCANOpen2Buses1ms.obj
 0003:00000cd8       $SG26274                   000000018006ccd8     c1_SpeedgoatCANOpen2Buses1ms.obj
 0003:00000cec       $SG26275                   000000018006ccec     c1_SpeedgoatCANOpen2Buses1ms.obj
 0003:00000cf4       $SG26276                   000000018006ccf4     c1_SpeedgoatCANOpen2Buses1ms.obj
 0003:00000d00       $SG26277                   000000018006cd00     c1_SpeedgoatCANOpen2Buses1ms.obj
 0003:00000d14       $SG26278                   000000018006cd14     c1_SpeedgoatCANOpen2Buses1ms.obj
 0003:00000d20       $SG26279                   000000018006cd20     c1_SpeedgoatCANOpen2Buses1ms.obj
 0003:00000d2c       $SG26280                   000000018006cd2c     c1_SpeedgoatCANOpen2Buses1ms.obj
 0003:00000d34       $SG26282                   000000018006cd34     c1_SpeedgoatCANOpen2Buses1ms.obj
 0003:00000d3c       $SG26284                   000000018006cd3c     c1_SpeedgoatCANOpen2Buses1ms.obj
 0003:00000d48       $SG26286                   000000018006cd48     c1_SpeedgoatCANOpen2Buses1ms.obj
 0003:00000d5c       $SG26287                   000000018006cd5c     c1_SpeedgoatCANOpen2Buses1ms.obj
 0003:00000d64       $SG26288                   000000018006cd64     c1_SpeedgoatCANOpen2Buses1ms.obj
 0003:00000d70       $SG26289                   000000018006cd70     c1_SpeedgoatCANOpen2Buses1ms.obj
 0003:00000d84       $SG26290                   000000018006cd84     c1_SpeedgoatCANOpen2Buses1ms.obj
 0003:00000d90       $SG26291                   000000018006cd90     c1_SpeedgoatCANOpen2Buses1ms.obj
 0003:00000da0       $SG26292                   000000018006cda0     c1_SpeedgoatCANOpen2Buses1ms.obj
 0003:00000da8       $SG26294                   000000018006cda8     c1_SpeedgoatCANOpen2Buses1ms.obj
 0003:00000db0       $SG26296                   000000018006cdb0     c1_SpeedgoatCANOpen2Buses1ms.obj
 0003:00000db8       $SG26298                   000000018006cdb8     c1_SpeedgoatCANOpen2Buses1ms.obj
 0003:00000dc4       $SG26299                   000000018006cdc4     c1_SpeedgoatCANOpen2Buses1ms.obj
 0003:00000dcc       $SG26301                   000000018006cdcc     c1_SpeedgoatCANOpen2Buses1ms.obj
 0003:00000dd4       $SG26303                   000000018006cdd4     c1_SpeedgoatCANOpen2Buses1ms.obj
 0003:00000de0       $SG26305                   000000018006cde0     c1_SpeedgoatCANOpen2Buses1ms.obj
 0003:00000df4       $SG26306                   000000018006cdf4     c1_SpeedgoatCANOpen2Buses1ms.obj
 0003:00000dfc       $SG26307                   000000018006cdfc     c1_SpeedgoatCANOpen2Buses1ms.obj
 0003:00000e08       $SG26308                   000000018006ce08     c1_SpeedgoatCANOpen2Buses1ms.obj
 0003:00000e1c       $SG26309                   000000018006ce1c     c1_SpeedgoatCANOpen2Buses1ms.obj
 0003:00000e28       $SG26310                   000000018006ce28     c1_SpeedgoatCANOpen2Buses1ms.obj
 0003:00000e34       $SG26311                   000000018006ce34     c1_SpeedgoatCANOpen2Buses1ms.obj
 0003:00000e3c       $SG26313                   000000018006ce3c     c1_SpeedgoatCANOpen2Buses1ms.obj
 0003:00000e44       $SG26315                   000000018006ce44     c1_SpeedgoatCANOpen2Buses1ms.obj
 0003:00000e50       $SG26317                   000000018006ce50     c1_SpeedgoatCANOpen2Buses1ms.obj
 0003:00000e64       $SG26318                   000000018006ce64     c1_SpeedgoatCANOpen2Buses1ms.obj
 0003:00000e6c       $SG26319                   000000018006ce6c     c1_SpeedgoatCANOpen2Buses1ms.obj
 0003:00000e78       $SG26320                   000000018006ce78     c1_SpeedgoatCANOpen2Buses1ms.obj
 0003:00000e8c       $SG26321                   000000018006ce8c     c1_SpeedgoatCANOpen2Buses1ms.obj
 0003:00000e98       $SG26322                   000000018006ce98     c1_SpeedgoatCANOpen2Buses1ms.obj
 0003:00000ea4       $SG26323                   000000018006cea4     c1_SpeedgoatCANOpen2Buses1ms.obj
 0003:00000eb0       $SG26324                   000000018006ceb0     c1_SpeedgoatCANOpen2Buses1ms.obj
 0003:00000ec0       $SG26340                   000000018006cec0     c1_SpeedgoatCANOpen2Buses1ms.obj
 0003:00000ed0       $SG26342                   000000018006ced0     c1_SpeedgoatCANOpen2Buses1ms.obj
 0003:00000ee0       $SG26344                   000000018006cee0     c1_SpeedgoatCANOpen2Buses1ms.obj
 0003:00000ef8       $SG26346                   000000018006cef8     c1_SpeedgoatCANOpen2Buses1ms.obj
 0003:00000f10       $SG26348                   000000018006cf10     c1_SpeedgoatCANOpen2Buses1ms.obj
 0003:00000f24       $SG26349                   000000018006cf24     c1_SpeedgoatCANOpen2Buses1ms.obj
 0003:00000f30       $SG26350                   000000018006cf30     c1_SpeedgoatCANOpen2Buses1ms.obj
 0003:00000f40       $SG26367                   000000018006cf40     c1_SpeedgoatCANOpen2Buses1ms.obj
 0003:00000f68       $SG26369                   000000018006cf68     c1_SpeedgoatCANOpen2Buses1ms.obj
 0003:00000f88       $SG26371                   000000018006cf88     c1_SpeedgoatCANOpen2Buses1ms.obj
 0003:00000fb0       $SG26372                   000000018006cfb0     c1_SpeedgoatCANOpen2Buses1ms.obj
 0003:00000fd0       $SG26382                   000000018006cfd0     c1_SpeedgoatCANOpen2Buses1ms.obj
 0003:00000fe0       $SG26384                   000000018006cfe0     c1_SpeedgoatCANOpen2Buses1ms.obj
 0003:00000fe8       ?condStart@?L@??chart_debug_initialization@@9@9 000000018006cfe8     c1_SpeedgoatCANOpen2Buses1ms.obj
 0003:00000ff0       $SG26386                   000000018006cff0     c1_SpeedgoatCANOpen2Buses1ms.obj
 0003:00001160       ?condEnd@?L@??chart_debug_initialization@@9@9 000000018006d160     c1_SpeedgoatCANOpen2Buses1ms.obj
 0003:00001168       ?pfixExpr@?L@??chart_debug_initialization@@9@9 000000018006d168     c1_SpeedgoatCANOpen2Buses1ms.obj
 0003:00001178       ?condStart@?M@??chart_debug_initialization@@9@9 000000018006d178     c1_SpeedgoatCANOpen2Buses1ms.obj
 0003:00001180       ?condEnd@?M@??chart_debug_initialization@@9@9 000000018006d180     c1_SpeedgoatCANOpen2Buses1ms.obj
 0003:00001188       ?pfixExpr@?M@??chart_debug_initialization@@9@9 000000018006d188     c1_SpeedgoatCANOpen2Buses1ms.obj
 0003:00001194       $SG26483                   000000018006d194     c1_SpeedgoatCANOpen2Buses1ms.obj
 0003:000011a0       $SG26484                   000000018006d1a0     c1_SpeedgoatCANOpen2Buses1ms.obj
 0003:000011b0       $SG26485                   000000018006d1b0     c1_SpeedgoatCANOpen2Buses1ms.obj
 0003:000011c0       $SG26486                   000000018006d1c0     c1_SpeedgoatCANOpen2Buses1ms.obj
 0003:000011d0       $SG26487                   000000018006d1d0     c1_SpeedgoatCANOpen2Buses1ms.obj
 0003:000011e0       $SG26488                   000000018006d1e0     c1_SpeedgoatCANOpen2Buses1ms.obj
 0003:000011f0       $SG26489                   000000018006d1f0     c1_SpeedgoatCANOpen2Buses1ms.obj
 0003:00001200       $SG26490                   000000018006d200     c1_SpeedgoatCANOpen2Buses1ms.obj
 0003:00001210       $SG26519                   000000018006d210     c1_SpeedgoatCANOpen2Buses1ms.obj
 0003:00001228       $SG26535                   000000018006d228     c1_SpeedgoatCANOpen2Buses1ms.obj
 0003:00001238       ?checksum@?1??sf_get_sfun_dwork_checksum@@9@9 000000018006d238     c1_SpeedgoatCANOpen2Buses1ms.obj
 0003:00001248       $SG26666                   000000018006d248     c1_SpeedgoatCANOpen2Buses1ms.obj
 0003:00001270       $SG26539                   000000018006d270     c1_SpeedgoatCANOpen2Buses1ms.obj
 0003:000014f0       $SG26624                   000000018006d4f0     c1_SpeedgoatCANOpen2Buses1ms.obj
 0003:00001658       $SG26674                   000000018006d658     c1_SpeedgoatCANOpen2Buses1ms.obj
 0003:00001668       $SG26675                   000000018006d668     c1_SpeedgoatCANOpen2Buses1ms.obj
 0003:00001680       $SG26698                   000000018006d680     c1_SpeedgoatCANOpen2Buses1ms.obj
 0003:000016b0       $SG26713                   000000018006d6b0     c1_SpeedgoatCANOpen2Buses1ms.obj
 0003:00001730       $SG25216                   000000018006d730     c2_SpeedgoatCANOpen2Buses1ms.obj
 0003:00001738       $SG25217                   000000018006d738     c2_SpeedgoatCANOpen2Buses1ms.obj
 0003:00001740       $SG25219                   000000018006d740     c2_SpeedgoatCANOpen2Buses1ms.obj
 0003:00001748       $SG25220                   000000018006d748     c2_SpeedgoatCANOpen2Buses1ms.obj
 0003:00001750       $SG25222                   000000018006d750     c2_SpeedgoatCANOpen2Buses1ms.obj
 0003:00001758       $SG25223                   000000018006d758     c2_SpeedgoatCANOpen2Buses1ms.obj
 0003:00001760       $SG25225                   000000018006d760     c2_SpeedgoatCANOpen2Buses1ms.obj
 0003:00001768       $SG25226                   000000018006d768     c2_SpeedgoatCANOpen2Buses1ms.obj
 0003:00001770       $SG25228                   000000018006d770     c2_SpeedgoatCANOpen2Buses1ms.obj
 0003:00001778       $SG25229                   000000018006d778     c2_SpeedgoatCANOpen2Buses1ms.obj
 0003:00001780       $SG25230                   000000018006d780     c2_SpeedgoatCANOpen2Buses1ms.obj
 0003:0000179c       $SG25232                   000000018006d79c     c2_SpeedgoatCANOpen2Buses1ms.obj
 0003:000017a8       $SG25233                   000000018006d7a8     c2_SpeedgoatCANOpen2Buses1ms.obj
 0003:000017b0       $SG25235                   000000018006d7b0     c2_SpeedgoatCANOpen2Buses1ms.obj
 0003:000017b8       $SG25236                   000000018006d7b8     c2_SpeedgoatCANOpen2Buses1ms.obj
 0003:000017c0       $SG25237                   000000018006d7c0     c2_SpeedgoatCANOpen2Buses1ms.obj
 0003:000017dc       $SG25239                   000000018006d7dc     c2_SpeedgoatCANOpen2Buses1ms.obj
 0003:000017e8       $SG25240                   000000018006d7e8     c2_SpeedgoatCANOpen2Buses1ms.obj
 0003:000017f0       $SG25241                   000000018006d7f0     c2_SpeedgoatCANOpen2Buses1ms.obj
 0003:0000180c       $SG25243                   000000018006d80c     c2_SpeedgoatCANOpen2Buses1ms.obj
 0003:00001818       $SG25244                   000000018006d818     c2_SpeedgoatCANOpen2Buses1ms.obj
 0003:00001820       $SG25245                   000000018006d820     c2_SpeedgoatCANOpen2Buses1ms.obj
 0003:0000183c       $SG25247                   000000018006d83c     c2_SpeedgoatCANOpen2Buses1ms.obj
 0003:00001848       $SG25248                   000000018006d848     c2_SpeedgoatCANOpen2Buses1ms.obj
 0003:00001850       $SG25250                   000000018006d850     c2_SpeedgoatCANOpen2Buses1ms.obj
 0003:00001858       $SG25251                   000000018006d858     c2_SpeedgoatCANOpen2Buses1ms.obj
 0003:00001860       $SG25252                   000000018006d860     c2_SpeedgoatCANOpen2Buses1ms.obj
 0003:0000187c       $SG25554                   000000018006d87c     c2_SpeedgoatCANOpen2Buses1ms.obj
 0003:00001880       c2_debug_family_names      000000018006d880     c2_SpeedgoatCANOpen2Buses1ms.obj
 0003:00001890       c2_b_debug_family_names    000000018006d890     c2_SpeedgoatCANOpen2Buses1ms.obj
 0003:000018a0       c2_c_debug_family_names    000000018006d8a0     c2_SpeedgoatCANOpen2Buses1ms.obj
 0003:000018b0       c2_d_debug_family_names    000000018006d8b0     c2_SpeedgoatCANOpen2Buses1ms.obj
 0003:000018c0       c2_e_debug_family_names    000000018006d8c0     c2_SpeedgoatCANOpen2Buses1ms.obj
 0003:000018d8       c2_f_debug_family_names    000000018006d8d8     c2_SpeedgoatCANOpen2Buses1ms.obj
 0003:000018e8       c2_g_debug_family_names    000000018006d8e8     c2_SpeedgoatCANOpen2Buses1ms.obj
 0003:00001900       c2_h_debug_family_names    000000018006d900     c2_SpeedgoatCANOpen2Buses1ms.obj
 0003:00001918       c2_i_debug_family_names    000000018006d918     c2_SpeedgoatCANOpen2Buses1ms.obj
 0003:00001930       c2_j_debug_family_names    000000018006d930     c2_SpeedgoatCANOpen2Buses1ms.obj
 0003:00001940       c2_k_debug_family_names    000000018006d940     c2_SpeedgoatCANOpen2Buses1ms.obj
 0003:00001958       $SG25555                   000000018006d958     c2_SpeedgoatCANOpen2Buses1ms.obj
 0003:0000195c       $SG25556                   000000018006d95c     c2_SpeedgoatCANOpen2Buses1ms.obj
 0003:00001960       $SG25557                   000000018006d960     c2_SpeedgoatCANOpen2Buses1ms.obj
 0003:00001964       $SG25558                   000000018006d964     c2_SpeedgoatCANOpen2Buses1ms.obj
 0003:00001968       $SG25559                   000000018006d968     c2_SpeedgoatCANOpen2Buses1ms.obj
 0003:0000196c       $SG25560                   000000018006d96c     c2_SpeedgoatCANOpen2Buses1ms.obj
 0003:00001970       $SG25561                   000000018006d970     c2_SpeedgoatCANOpen2Buses1ms.obj
 0003:00001974       $SG25562                   000000018006d974     c2_SpeedgoatCANOpen2Buses1ms.obj
 0003:00001978       $SG25563                   000000018006d978     c2_SpeedgoatCANOpen2Buses1ms.obj
 0003:0000197c       $SG25580                   000000018006d97c     c2_SpeedgoatCANOpen2Buses1ms.obj
 0003:00001980       $SG25575                   000000018006d980     c2_SpeedgoatCANOpen2Buses1ms.obj
 0003:0000198c       $SG25832                   000000018006d98c     c2_SpeedgoatCANOpen2Buses1ms.obj
 0003:00001990       $SG25576                   000000018006d990     c2_SpeedgoatCANOpen2Buses1ms.obj
 0003:0000199c       $SG25876                   000000018006d99c     c2_SpeedgoatCANOpen2Buses1ms.obj
 0003:000019a0       $SG25577                   000000018006d9a0     c2_SpeedgoatCANOpen2Buses1ms.obj
 0003:000019ac       $SG25971                   000000018006d9ac     c2_SpeedgoatCANOpen2Buses1ms.obj
 0003:000019b0       $SG25578                   000000018006d9b0     c2_SpeedgoatCANOpen2Buses1ms.obj
 0003:000019bc       $SG26482                   000000018006d9bc     c2_SpeedgoatCANOpen2Buses1ms.obj
 0003:000019c0       $SG25579                   000000018006d9c0     c2_SpeedgoatCANOpen2Buses1ms.obj
 0003:000019cc       $SG25581                   000000018006d9cc     c2_SpeedgoatCANOpen2Buses1ms.obj
 0003:000019d4       $SG26183                   000000018006d9d4     c2_SpeedgoatCANOpen2Buses1ms.obj
 0003:000019e0       $SG25582                   000000018006d9e0     c2_SpeedgoatCANOpen2Buses1ms.obj
 0003:00001a08       $SG25583                   000000018006da08     c2_SpeedgoatCANOpen2Buses1ms.obj
 0003:00001a28       $SG25584                   000000018006da28     c2_SpeedgoatCANOpen2Buses1ms.obj
 0003:00001a40       $SG25585                   000000018006da40     c2_SpeedgoatCANOpen2Buses1ms.obj
 0003:00001a60       $SG25911                   000000018006da60     c2_SpeedgoatCANOpen2Buses1ms.obj
 0003:00001a70       $SG26181                   000000018006da70     c2_SpeedgoatCANOpen2Buses1ms.obj
 0003:00001a80       $SG26185                   000000018006da80     c2_SpeedgoatCANOpen2Buses1ms.obj
 0003:00001a90       $SG26187                   000000018006da90     c2_SpeedgoatCANOpen2Buses1ms.obj
 0003:00001a98       $SG26189                   000000018006da98     c2_SpeedgoatCANOpen2Buses1ms.obj
 0003:00001aa0       $SG26191                   000000018006daa0     c2_SpeedgoatCANOpen2Buses1ms.obj
 0003:00001ab0       $SG26192                   000000018006dab0     c2_SpeedgoatCANOpen2Buses1ms.obj
 0003:00001ac8       $SG26193                   000000018006dac8     c2_SpeedgoatCANOpen2Buses1ms.obj
 0003:00001ad4       $SG26195                   000000018006dad4     c2_SpeedgoatCANOpen2Buses1ms.obj
 0003:00001adc       $SG26197                   000000018006dadc     c2_SpeedgoatCANOpen2Buses1ms.obj
 0003:00001ae8       $SG26199                   000000018006dae8     c2_SpeedgoatCANOpen2Buses1ms.obj
 0003:00001af4       $SG26200                   000000018006daf4     c2_SpeedgoatCANOpen2Buses1ms.obj
 0003:00001afc       $SG26202                   000000018006dafc     c2_SpeedgoatCANOpen2Buses1ms.obj
 0003:00001b04       $SG26204                   000000018006db04     c2_SpeedgoatCANOpen2Buses1ms.obj
 0003:00001b10       $SG26206                   000000018006db10     c2_SpeedgoatCANOpen2Buses1ms.obj
 0003:00001b24       $SG26207                   000000018006db24     c2_SpeedgoatCANOpen2Buses1ms.obj
 0003:00001b2c       $SG26208                   000000018006db2c     c2_SpeedgoatCANOpen2Buses1ms.obj
 0003:00001b38       $SG26209                   000000018006db38     c2_SpeedgoatCANOpen2Buses1ms.obj
 0003:00001b4c       $SG26210                   000000018006db4c     c2_SpeedgoatCANOpen2Buses1ms.obj
 0003:00001b58       $SG26211                   000000018006db58     c2_SpeedgoatCANOpen2Buses1ms.obj
 0003:00001b64       $SG26212                   000000018006db64     c2_SpeedgoatCANOpen2Buses1ms.obj
 0003:00001b6c       $SG26214                   000000018006db6c     c2_SpeedgoatCANOpen2Buses1ms.obj
 0003:00001b74       $SG26216                   000000018006db74     c2_SpeedgoatCANOpen2Buses1ms.obj
 0003:00001b80       $SG26218                   000000018006db80     c2_SpeedgoatCANOpen2Buses1ms.obj
 0003:00001b94       $SG26219                   000000018006db94     c2_SpeedgoatCANOpen2Buses1ms.obj
 0003:00001b9c       $SG26220                   000000018006db9c     c2_SpeedgoatCANOpen2Buses1ms.obj
 0003:00001ba8       $SG26221                   000000018006dba8     c2_SpeedgoatCANOpen2Buses1ms.obj
 0003:00001bbc       $SG26222                   000000018006dbbc     c2_SpeedgoatCANOpen2Buses1ms.obj
 0003:00001bc8       $SG26223                   000000018006dbc8     c2_SpeedgoatCANOpen2Buses1ms.obj
 0003:00001bd4       $SG26224                   000000018006dbd4     c2_SpeedgoatCANOpen2Buses1ms.obj
 0003:00001be0       $SG26225                   000000018006dbe0     c2_SpeedgoatCANOpen2Buses1ms.obj
 0003:00001bec       $SG26227                   000000018006dbec     c2_SpeedgoatCANOpen2Buses1ms.obj
 0003:00001bf4       $SG26229                   000000018006dbf4     c2_SpeedgoatCANOpen2Buses1ms.obj
 0003:00001c00       $SG26231                   000000018006dc00     c2_SpeedgoatCANOpen2Buses1ms.obj
 0003:00001c0c       $SG26232                   000000018006dc0c     c2_SpeedgoatCANOpen2Buses1ms.obj
 0003:00001c14       $SG26234                   000000018006dc14     c2_SpeedgoatCANOpen2Buses1ms.obj
 0003:00001c1c       $SG26236                   000000018006dc1c     c2_SpeedgoatCANOpen2Buses1ms.obj
 0003:00001c28       $SG26238                   000000018006dc28     c2_SpeedgoatCANOpen2Buses1ms.obj
 0003:00001c3c       $SG26239                   000000018006dc3c     c2_SpeedgoatCANOpen2Buses1ms.obj
 0003:00001c44       $SG26240                   000000018006dc44     c2_SpeedgoatCANOpen2Buses1ms.obj
 0003:00001c50       $SG26241                   000000018006dc50     c2_SpeedgoatCANOpen2Buses1ms.obj
 0003:00001c64       $SG26242                   000000018006dc64     c2_SpeedgoatCANOpen2Buses1ms.obj
 0003:00001c70       $SG26243                   000000018006dc70     c2_SpeedgoatCANOpen2Buses1ms.obj
 0003:00001c7c       $SG26244                   000000018006dc7c     c2_SpeedgoatCANOpen2Buses1ms.obj
 0003:00001c84       $SG26246                   000000018006dc84     c2_SpeedgoatCANOpen2Buses1ms.obj
 0003:00001c8c       $SG26248                   000000018006dc8c     c2_SpeedgoatCANOpen2Buses1ms.obj
 0003:00001c98       $SG26250                   000000018006dc98     c2_SpeedgoatCANOpen2Buses1ms.obj
 0003:00001cac       $SG26251                   000000018006dcac     c2_SpeedgoatCANOpen2Buses1ms.obj
 0003:00001cb4       $SG26252                   000000018006dcb4     c2_SpeedgoatCANOpen2Buses1ms.obj
 0003:00001cc0       $SG26253                   000000018006dcc0     c2_SpeedgoatCANOpen2Buses1ms.obj
 0003:00001cd4       $SG26254                   000000018006dcd4     c2_SpeedgoatCANOpen2Buses1ms.obj
 0003:00001ce0       $SG26255                   000000018006dce0     c2_SpeedgoatCANOpen2Buses1ms.obj
 0003:00001cec       $SG26256                   000000018006dcec     c2_SpeedgoatCANOpen2Buses1ms.obj
 0003:00001cf4       $SG26258                   000000018006dcf4     c2_SpeedgoatCANOpen2Buses1ms.obj
 0003:00001cfc       $SG26260                   000000018006dcfc     c2_SpeedgoatCANOpen2Buses1ms.obj
 0003:00001d08       $SG26262                   000000018006dd08     c2_SpeedgoatCANOpen2Buses1ms.obj
 0003:00001d1c       $SG26263                   000000018006dd1c     c2_SpeedgoatCANOpen2Buses1ms.obj
 0003:00001d24       $SG26264                   000000018006dd24     c2_SpeedgoatCANOpen2Buses1ms.obj
 0003:00001d30       $SG26265                   000000018006dd30     c2_SpeedgoatCANOpen2Buses1ms.obj
 0003:00001d44       $SG26266                   000000018006dd44     c2_SpeedgoatCANOpen2Buses1ms.obj
 0003:00001d50       $SG26267                   000000018006dd50     c2_SpeedgoatCANOpen2Buses1ms.obj
 0003:00001d5c       $SG26268                   000000018006dd5c     c2_SpeedgoatCANOpen2Buses1ms.obj
 0003:00001d64       $SG26270                   000000018006dd64     c2_SpeedgoatCANOpen2Buses1ms.obj
 0003:00001d6c       $SG26272                   000000018006dd6c     c2_SpeedgoatCANOpen2Buses1ms.obj
 0003:00001d78       $SG26274                   000000018006dd78     c2_SpeedgoatCANOpen2Buses1ms.obj
 0003:00001d8c       $SG26275                   000000018006dd8c     c2_SpeedgoatCANOpen2Buses1ms.obj
 0003:00001d94       $SG26276                   000000018006dd94     c2_SpeedgoatCANOpen2Buses1ms.obj
 0003:00001da0       $SG26277                   000000018006dda0     c2_SpeedgoatCANOpen2Buses1ms.obj
 0003:00001db4       $SG26278                   000000018006ddb4     c2_SpeedgoatCANOpen2Buses1ms.obj
 0003:00001dc0       $SG26279                   000000018006ddc0     c2_SpeedgoatCANOpen2Buses1ms.obj
 0003:00001dcc       $SG26280                   000000018006ddcc     c2_SpeedgoatCANOpen2Buses1ms.obj
 0003:00001dd4       $SG26282                   000000018006ddd4     c2_SpeedgoatCANOpen2Buses1ms.obj
 0003:00001ddc       $SG26284                   000000018006dddc     c2_SpeedgoatCANOpen2Buses1ms.obj
 0003:00001de8       $SG26286                   000000018006dde8     c2_SpeedgoatCANOpen2Buses1ms.obj
 0003:00001dfc       $SG26287                   000000018006ddfc     c2_SpeedgoatCANOpen2Buses1ms.obj
 0003:00001e04       $SG26288                   000000018006de04     c2_SpeedgoatCANOpen2Buses1ms.obj
 0003:00001e10       $SG26289                   000000018006de10     c2_SpeedgoatCANOpen2Buses1ms.obj
 0003:00001e24       $SG26290                   000000018006de24     c2_SpeedgoatCANOpen2Buses1ms.obj
 0003:00001e30       $SG26291                   000000018006de30     c2_SpeedgoatCANOpen2Buses1ms.obj
 0003:00001e40       $SG26292                   000000018006de40     c2_SpeedgoatCANOpen2Buses1ms.obj
 0003:00001e48       $SG26294                   000000018006de48     c2_SpeedgoatCANOpen2Buses1ms.obj
 0003:00001e50       $SG26296                   000000018006de50     c2_SpeedgoatCANOpen2Buses1ms.obj
 0003:00001e58       $SG26298                   000000018006de58     c2_SpeedgoatCANOpen2Buses1ms.obj
 0003:00001e64       $SG26299                   000000018006de64     c2_SpeedgoatCANOpen2Buses1ms.obj
 0003:00001e6c       $SG26301                   000000018006de6c     c2_SpeedgoatCANOpen2Buses1ms.obj
 0003:00001e74       $SG26303                   000000018006de74     c2_SpeedgoatCANOpen2Buses1ms.obj
 0003:00001e80       $SG26305                   000000018006de80     c2_SpeedgoatCANOpen2Buses1ms.obj
 0003:00001e94       $SG26306                   000000018006de94     c2_SpeedgoatCANOpen2Buses1ms.obj
 0003:00001e9c       $SG26307                   000000018006de9c     c2_SpeedgoatCANOpen2Buses1ms.obj
 0003:00001ea8       $SG26308                   000000018006dea8     c2_SpeedgoatCANOpen2Buses1ms.obj
 0003:00001ebc       $SG26309                   000000018006debc     c2_SpeedgoatCANOpen2Buses1ms.obj
 0003:00001ec8       $SG26310                   000000018006dec8     c2_SpeedgoatCANOpen2Buses1ms.obj
 0003:00001ed4       $SG26311                   000000018006ded4     c2_SpeedgoatCANOpen2Buses1ms.obj
 0003:00001edc       $SG26313                   000000018006dedc     c2_SpeedgoatCANOpen2Buses1ms.obj
 0003:00001ee4       $SG26315                   000000018006dee4     c2_SpeedgoatCANOpen2Buses1ms.obj
 0003:00001ef0       $SG26317                   000000018006def0     c2_SpeedgoatCANOpen2Buses1ms.obj
 0003:00001f04       $SG26318                   000000018006df04     c2_SpeedgoatCANOpen2Buses1ms.obj
 0003:00001f0c       $SG26319                   000000018006df0c     c2_SpeedgoatCANOpen2Buses1ms.obj
 0003:00001f18       $SG26320                   000000018006df18     c2_SpeedgoatCANOpen2Buses1ms.obj
 0003:00001f2c       $SG26321                   000000018006df2c     c2_SpeedgoatCANOpen2Buses1ms.obj
 0003:00001f38       $SG26322                   000000018006df38     c2_SpeedgoatCANOpen2Buses1ms.obj
 0003:00001f44       $SG26323                   000000018006df44     c2_SpeedgoatCANOpen2Buses1ms.obj
 0003:00001f50       $SG26324                   000000018006df50     c2_SpeedgoatCANOpen2Buses1ms.obj
 0003:00001f60       $SG26340                   000000018006df60     c2_SpeedgoatCANOpen2Buses1ms.obj
 0003:00001f70       $SG26342                   000000018006df70     c2_SpeedgoatCANOpen2Buses1ms.obj
 0003:00001f80       $SG26344                   000000018006df80     c2_SpeedgoatCANOpen2Buses1ms.obj
 0003:00001f98       $SG26346                   000000018006df98     c2_SpeedgoatCANOpen2Buses1ms.obj
 0003:00001fb0       $SG26348                   000000018006dfb0     c2_SpeedgoatCANOpen2Buses1ms.obj
 0003:00001fc4       $SG26349                   000000018006dfc4     c2_SpeedgoatCANOpen2Buses1ms.obj
 0003:00001fd0       $SG26350                   000000018006dfd0     c2_SpeedgoatCANOpen2Buses1ms.obj
 0003:00001fe0       $SG26367                   000000018006dfe0     c2_SpeedgoatCANOpen2Buses1ms.obj
 0003:00002008       $SG26369                   000000018006e008     c2_SpeedgoatCANOpen2Buses1ms.obj
 0003:00002028       $SG26371                   000000018006e028     c2_SpeedgoatCANOpen2Buses1ms.obj
 0003:00002050       $SG26372                   000000018006e050     c2_SpeedgoatCANOpen2Buses1ms.obj
 0003:00002070       $SG26382                   000000018006e070     c2_SpeedgoatCANOpen2Buses1ms.obj
 0003:00002080       $SG26384                   000000018006e080     c2_SpeedgoatCANOpen2Buses1ms.obj
 0003:00002088       ?condStart@?L@??chart_debug_initialization@@9@9 000000018006e088     c2_SpeedgoatCANOpen2Buses1ms.obj
 0003:00002090       $SG26386                   000000018006e090     c2_SpeedgoatCANOpen2Buses1ms.obj
 0003:00002200       ?condEnd@?L@??chart_debug_initialization@@9@9 000000018006e200     c2_SpeedgoatCANOpen2Buses1ms.obj
 0003:00002208       ?pfixExpr@?L@??chart_debug_initialization@@9@9 000000018006e208     c2_SpeedgoatCANOpen2Buses1ms.obj
 0003:00002218       ?condStart@?M@??chart_debug_initialization@@9@9 000000018006e218     c2_SpeedgoatCANOpen2Buses1ms.obj
 0003:00002220       ?condEnd@?M@??chart_debug_initialization@@9@9 000000018006e220     c2_SpeedgoatCANOpen2Buses1ms.obj
 0003:00002228       ?pfixExpr@?M@??chart_debug_initialization@@9@9 000000018006e228     c2_SpeedgoatCANOpen2Buses1ms.obj
 0003:00002234       $SG26483                   000000018006e234     c2_SpeedgoatCANOpen2Buses1ms.obj
 0003:00002240       $SG26484                   000000018006e240     c2_SpeedgoatCANOpen2Buses1ms.obj
 0003:00002250       $SG26485                   000000018006e250     c2_SpeedgoatCANOpen2Buses1ms.obj
 0003:00002260       $SG26486                   000000018006e260     c2_SpeedgoatCANOpen2Buses1ms.obj
 0003:00002270       $SG26487                   000000018006e270     c2_SpeedgoatCANOpen2Buses1ms.obj
 0003:00002280       $SG26488                   000000018006e280     c2_SpeedgoatCANOpen2Buses1ms.obj
 0003:00002290       $SG26489                   000000018006e290     c2_SpeedgoatCANOpen2Buses1ms.obj
 0003:000022a0       $SG26490                   000000018006e2a0     c2_SpeedgoatCANOpen2Buses1ms.obj
 0003:000022b0       $SG26519                   000000018006e2b0     c2_SpeedgoatCANOpen2Buses1ms.obj
 0003:000022c8       $SG26535                   000000018006e2c8     c2_SpeedgoatCANOpen2Buses1ms.obj
 0003:000022d8       ?checksum@?1??sf_get_sfun_dwork_checksum@@9@9 000000018006e2d8     c2_SpeedgoatCANOpen2Buses1ms.obj
 0003:000022e8       $SG26666                   000000018006e2e8     c2_SpeedgoatCANOpen2Buses1ms.obj
 0003:00002310       $SG26539                   000000018006e310     c2_SpeedgoatCANOpen2Buses1ms.obj
 0003:00002590       $SG26624                   000000018006e590     c2_SpeedgoatCANOpen2Buses1ms.obj
 0003:000026f8       $SG26674                   000000018006e6f8     c2_SpeedgoatCANOpen2Buses1ms.obj
 0003:00002708       $SG26675                   000000018006e708     c2_SpeedgoatCANOpen2Buses1ms.obj
 0003:00002720       $SG26698                   000000018006e720     c2_SpeedgoatCANOpen2Buses1ms.obj
 0003:00002750       $SG26713                   000000018006e750     c2_SpeedgoatCANOpen2Buses1ms.obj
 0003:000027d0       $SG25209                   000000018006e7d0     c3_SpeedgoatCANOpen2Buses1ms.obj
 0003:000027d8       $SG25210                   000000018006e7d8     c3_SpeedgoatCANOpen2Buses1ms.obj
 0003:000027e0       $SG25212                   000000018006e7e0     c3_SpeedgoatCANOpen2Buses1ms.obj
 0003:000027e8       $SG25213                   000000018006e7e8     c3_SpeedgoatCANOpen2Buses1ms.obj
 0003:000027f0       $SG25215                   000000018006e7f0     c3_SpeedgoatCANOpen2Buses1ms.obj
 0003:000027f8       $SG25216                   000000018006e7f8     c3_SpeedgoatCANOpen2Buses1ms.obj
 0003:00002800       $SG25218                   000000018006e800     c3_SpeedgoatCANOpen2Buses1ms.obj
 0003:00002808       $SG25219                   000000018006e808     c3_SpeedgoatCANOpen2Buses1ms.obj
 0003:00002810       $SG25221                   000000018006e810     c3_SpeedgoatCANOpen2Buses1ms.obj
 0003:00002818       $SG25222                   000000018006e818     c3_SpeedgoatCANOpen2Buses1ms.obj
 0003:00002820       $SG25224                   000000018006e820     c3_SpeedgoatCANOpen2Buses1ms.obj
 0003:00002828       $SG25225                   000000018006e828     c3_SpeedgoatCANOpen2Buses1ms.obj
 0003:00002830       $SG25226                   000000018006e830     c3_SpeedgoatCANOpen2Buses1ms.obj
 0003:0000284c       $SG25228                   000000018006e84c     c3_SpeedgoatCANOpen2Buses1ms.obj
 0003:00002858       $SG25229                   000000018006e858     c3_SpeedgoatCANOpen2Buses1ms.obj
 0003:00002860       $SG25231                   000000018006e860     c3_SpeedgoatCANOpen2Buses1ms.obj
 0003:00002868       $SG25232                   000000018006e868     c3_SpeedgoatCANOpen2Buses1ms.obj
 0003:00002870       $SG25233                   000000018006e870     c3_SpeedgoatCANOpen2Buses1ms.obj
 0003:0000288c       $SG25235                   000000018006e88c     c3_SpeedgoatCANOpen2Buses1ms.obj
 0003:00002898       $SG25236                   000000018006e898     c3_SpeedgoatCANOpen2Buses1ms.obj
 0003:000028a0       $SG25237                   000000018006e8a0     c3_SpeedgoatCANOpen2Buses1ms.obj
 0003:000028bc       $SG25239                   000000018006e8bc     c3_SpeedgoatCANOpen2Buses1ms.obj
 0003:000028c8       $SG25240                   000000018006e8c8     c3_SpeedgoatCANOpen2Buses1ms.obj
 0003:000028d0       $SG25241                   000000018006e8d0     c3_SpeedgoatCANOpen2Buses1ms.obj
 0003:000028ec       $SG25243                   000000018006e8ec     c3_SpeedgoatCANOpen2Buses1ms.obj
 0003:000028f8       $SG25244                   000000018006e8f8     c3_SpeedgoatCANOpen2Buses1ms.obj
 0003:00002900       $SG25246                   000000018006e900     c3_SpeedgoatCANOpen2Buses1ms.obj
 0003:00002908       $SG25247                   000000018006e908     c3_SpeedgoatCANOpen2Buses1ms.obj
 0003:00002910       $SG25248                   000000018006e910     c3_SpeedgoatCANOpen2Buses1ms.obj
 0003:0000292c       $SG25250                   000000018006e92c     c3_SpeedgoatCANOpen2Buses1ms.obj
 0003:00002938       $SG25251                   000000018006e938     c3_SpeedgoatCANOpen2Buses1ms.obj
 0003:00002940       $SG25252                   000000018006e940     c3_SpeedgoatCANOpen2Buses1ms.obj
 0003:0000295c       $SG25254                   000000018006e95c     c3_SpeedgoatCANOpen2Buses1ms.obj
 0003:00002968       $SG25255                   000000018006e968     c3_SpeedgoatCANOpen2Buses1ms.obj
 0003:00002970       $SG25256                   000000018006e970     c3_SpeedgoatCANOpen2Buses1ms.obj
 0003:0000298c       $SG25570                   000000018006e98c     c3_SpeedgoatCANOpen2Buses1ms.obj
 0003:00002990       c3_debug_family_names      000000018006e990     c3_SpeedgoatCANOpen2Buses1ms.obj
 0003:000029a0       c3_b_debug_family_names    000000018006e9a0     c3_SpeedgoatCANOpen2Buses1ms.obj
 0003:000029b0       c3_c_debug_family_names    000000018006e9b0     c3_SpeedgoatCANOpen2Buses1ms.obj
 0003:000029c0       c3_d_debug_family_names    000000018006e9c0     c3_SpeedgoatCANOpen2Buses1ms.obj
 0003:000029d0       c3_e_debug_family_names    000000018006e9d0     c3_SpeedgoatCANOpen2Buses1ms.obj
 0003:000029e0       c3_f_debug_family_names    000000018006e9e0     c3_SpeedgoatCANOpen2Buses1ms.obj
 0003:000029f8       c3_g_debug_family_names    000000018006e9f8     c3_SpeedgoatCANOpen2Buses1ms.obj
 0003:00002a08       c3_h_debug_family_names    000000018006ea08     c3_SpeedgoatCANOpen2Buses1ms.obj
 0003:00002a20       c3_i_debug_family_names    000000018006ea20     c3_SpeedgoatCANOpen2Buses1ms.obj
 0003:00002a38       c3_j_debug_family_names    000000018006ea38     c3_SpeedgoatCANOpen2Buses1ms.obj
 0003:00002a50       c3_k_debug_family_names    000000018006ea50     c3_SpeedgoatCANOpen2Buses1ms.obj
 0003:00002a60       c3_l_debug_family_names    000000018006ea60     c3_SpeedgoatCANOpen2Buses1ms.obj
 0003:00002a78       c3_m_debug_family_names    000000018006ea78     c3_SpeedgoatCANOpen2Buses1ms.obj
 0003:00002a90       c3_n_debug_family_names    000000018006ea90     c3_SpeedgoatCANOpen2Buses1ms.obj
 0003:00002aa8       $SG25571                   000000018006eaa8     c3_SpeedgoatCANOpen2Buses1ms.obj
 0003:00002aac       $SG25572                   000000018006eaac     c3_SpeedgoatCANOpen2Buses1ms.obj
 0003:00002ab0       $SG25573                   000000018006eab0     c3_SpeedgoatCANOpen2Buses1ms.obj
 0003:00002ab4       $SG25574                   000000018006eab4     c3_SpeedgoatCANOpen2Buses1ms.obj
 0003:00002ab8       $SG25575                   000000018006eab8     c3_SpeedgoatCANOpen2Buses1ms.obj
 0003:00002abc       $SG25576                   000000018006eabc     c3_SpeedgoatCANOpen2Buses1ms.obj
 0003:00002ac0       $SG25577                   000000018006eac0     c3_SpeedgoatCANOpen2Buses1ms.obj
 0003:00002ac4       $SG25578                   000000018006eac4     c3_SpeedgoatCANOpen2Buses1ms.obj
 0003:00002ac8       $SG25579                   000000018006eac8     c3_SpeedgoatCANOpen2Buses1ms.obj
 0003:00002acc       $SG25580                   000000018006eacc     c3_SpeedgoatCANOpen2Buses1ms.obj
 0003:00002ad0       $SG25592                   000000018006ead0     c3_SpeedgoatCANOpen2Buses1ms.obj
 0003:00002adc       $SG25598                   000000018006eadc     c3_SpeedgoatCANOpen2Buses1ms.obj
 0003:00002ae0       $SG25593                   000000018006eae0     c3_SpeedgoatCANOpen2Buses1ms.obj
 0003:00002af8       $SG25594                   000000018006eaf8     c3_SpeedgoatCANOpen2Buses1ms.obj
 0003:00002b04       $SG25922                   000000018006eb04     c3_SpeedgoatCANOpen2Buses1ms.obj
 0003:00002b08       $SG25595                   000000018006eb08     c3_SpeedgoatCANOpen2Buses1ms.obj
 0003:00002b14       $SG25966                   000000018006eb14     c3_SpeedgoatCANOpen2Buses1ms.obj
 0003:00002b18       $SG25596                   000000018006eb18     c3_SpeedgoatCANOpen2Buses1ms.obj
 0003:00002b24       $SG26061                   000000018006eb24     c3_SpeedgoatCANOpen2Buses1ms.obj
 0003:00002b28       $SG25597                   000000018006eb28     c3_SpeedgoatCANOpen2Buses1ms.obj
 0003:00002b34       $SG25599                   000000018006eb34     c3_SpeedgoatCANOpen2Buses1ms.obj
 0003:00002b3c       $SG26278                   000000018006eb3c     c3_SpeedgoatCANOpen2Buses1ms.obj
 0003:00002b44       $SG26605                   000000018006eb44     c3_SpeedgoatCANOpen2Buses1ms.obj
 0003:00002b48       $SG25600                   000000018006eb48     c3_SpeedgoatCANOpen2Buses1ms.obj
 0003:00002b70       $SG25601                   000000018006eb70     c3_SpeedgoatCANOpen2Buses1ms.obj
 0003:00002b90       $SG25602                   000000018006eb90     c3_SpeedgoatCANOpen2Buses1ms.obj
 0003:00002ba8       $SG25603                   000000018006eba8     c3_SpeedgoatCANOpen2Buses1ms.obj
 0003:00002bc8       $SG26001                   000000018006ebc8     c3_SpeedgoatCANOpen2Buses1ms.obj
 0003:00002bd8       $SG26276                   000000018006ebd8     c3_SpeedgoatCANOpen2Buses1ms.obj
 0003:00002be8       $SG26280                   000000018006ebe8     c3_SpeedgoatCANOpen2Buses1ms.obj
 0003:00002bf8       $SG26282                   000000018006ebf8     c3_SpeedgoatCANOpen2Buses1ms.obj
 0003:00002c00       $SG26284                   000000018006ec00     c3_SpeedgoatCANOpen2Buses1ms.obj
 0003:00002c08       $SG26286                   000000018006ec08     c3_SpeedgoatCANOpen2Buses1ms.obj
 0003:00002c18       $SG26287                   000000018006ec18     c3_SpeedgoatCANOpen2Buses1ms.obj
 0003:00002c30       $SG26288                   000000018006ec30     c3_SpeedgoatCANOpen2Buses1ms.obj
 0003:00002c3c       $SG26290                   000000018006ec3c     c3_SpeedgoatCANOpen2Buses1ms.obj
 0003:00002c44       $SG26292                   000000018006ec44     c3_SpeedgoatCANOpen2Buses1ms.obj
 0003:00002c50       $SG26294                   000000018006ec50     c3_SpeedgoatCANOpen2Buses1ms.obj
 0003:00002c5c       $SG26295                   000000018006ec5c     c3_SpeedgoatCANOpen2Buses1ms.obj
 0003:00002c64       $SG26297                   000000018006ec64     c3_SpeedgoatCANOpen2Buses1ms.obj
 0003:00002c6c       $SG26299                   000000018006ec6c     c3_SpeedgoatCANOpen2Buses1ms.obj
 0003:00002c78       $SG26301                   000000018006ec78     c3_SpeedgoatCANOpen2Buses1ms.obj
 0003:00002c8c       $SG26302                   000000018006ec8c     c3_SpeedgoatCANOpen2Buses1ms.obj
 0003:00002c94       $SG26303                   000000018006ec94     c3_SpeedgoatCANOpen2Buses1ms.obj
 0003:00002ca0       $SG26304                   000000018006eca0     c3_SpeedgoatCANOpen2Buses1ms.obj
 0003:00002cb4       $SG26305                   000000018006ecb4     c3_SpeedgoatCANOpen2Buses1ms.obj
 0003:00002cc0       $SG26306                   000000018006ecc0     c3_SpeedgoatCANOpen2Buses1ms.obj
 0003:00002ccc       $SG26307                   000000018006eccc     c3_SpeedgoatCANOpen2Buses1ms.obj
 0003:00002cd4       $SG26309                   000000018006ecd4     c3_SpeedgoatCANOpen2Buses1ms.obj
 0003:00002cdc       $SG26311                   000000018006ecdc     c3_SpeedgoatCANOpen2Buses1ms.obj
 0003:00002ce8       $SG26313                   000000018006ece8     c3_SpeedgoatCANOpen2Buses1ms.obj
 0003:00002cfc       $SG26314                   000000018006ecfc     c3_SpeedgoatCANOpen2Buses1ms.obj
 0003:00002d04       $SG26315                   000000018006ed04     c3_SpeedgoatCANOpen2Buses1ms.obj
 0003:00002d10       $SG26316                   000000018006ed10     c3_SpeedgoatCANOpen2Buses1ms.obj
 0003:00002d24       $SG26317                   000000018006ed24     c3_SpeedgoatCANOpen2Buses1ms.obj
 0003:00002d30       $SG26318                   000000018006ed30     c3_SpeedgoatCANOpen2Buses1ms.obj
 0003:00002d3c       $SG26319                   000000018006ed3c     c3_SpeedgoatCANOpen2Buses1ms.obj
 0003:00002d48       $SG26320                   000000018006ed48     c3_SpeedgoatCANOpen2Buses1ms.obj
 0003:00002d54       $SG26322                   000000018006ed54     c3_SpeedgoatCANOpen2Buses1ms.obj
 0003:00002d5c       $SG26324                   000000018006ed5c     c3_SpeedgoatCANOpen2Buses1ms.obj
 0003:00002d68       $SG26326                   000000018006ed68     c3_SpeedgoatCANOpen2Buses1ms.obj
 0003:00002d74       $SG26327                   000000018006ed74     c3_SpeedgoatCANOpen2Buses1ms.obj
 0003:00002d7c       $SG26329                   000000018006ed7c     c3_SpeedgoatCANOpen2Buses1ms.obj
 0003:00002d84       $SG26331                   000000018006ed84     c3_SpeedgoatCANOpen2Buses1ms.obj
 0003:00002d90       $SG26333                   000000018006ed90     c3_SpeedgoatCANOpen2Buses1ms.obj
 0003:00002da4       $SG26334                   000000018006eda4     c3_SpeedgoatCANOpen2Buses1ms.obj
 0003:00002dac       $SG26335                   000000018006edac     c3_SpeedgoatCANOpen2Buses1ms.obj
 0003:00002db8       $SG26336                   000000018006edb8     c3_SpeedgoatCANOpen2Buses1ms.obj
 0003:00002dcc       $SG26337                   000000018006edcc     c3_SpeedgoatCANOpen2Buses1ms.obj
 0003:00002dd8       $SG26338                   000000018006edd8     c3_SpeedgoatCANOpen2Buses1ms.obj
 0003:00002de4       $SG26339                   000000018006ede4     c3_SpeedgoatCANOpen2Buses1ms.obj
 0003:00002dec       $SG26341                   000000018006edec     c3_SpeedgoatCANOpen2Buses1ms.obj
 0003:00002df4       $SG26343                   000000018006edf4     c3_SpeedgoatCANOpen2Buses1ms.obj
 0003:00002e00       $SG26345                   000000018006ee00     c3_SpeedgoatCANOpen2Buses1ms.obj
 0003:00002e14       $SG26346                   000000018006ee14     c3_SpeedgoatCANOpen2Buses1ms.obj
 0003:00002e1c       $SG26347                   000000018006ee1c     c3_SpeedgoatCANOpen2Buses1ms.obj
 0003:00002e28       $SG26348                   000000018006ee28     c3_SpeedgoatCANOpen2Buses1ms.obj
 0003:00002e3c       $SG26349                   000000018006ee3c     c3_SpeedgoatCANOpen2Buses1ms.obj
 0003:00002e48       $SG26350                   000000018006ee48     c3_SpeedgoatCANOpen2Buses1ms.obj
 0003:00002e54       $SG26351                   000000018006ee54     c3_SpeedgoatCANOpen2Buses1ms.obj
 0003:00002e5c       $SG26353                   000000018006ee5c     c3_SpeedgoatCANOpen2Buses1ms.obj
 0003:00002e64       $SG26355                   000000018006ee64     c3_SpeedgoatCANOpen2Buses1ms.obj
 0003:00002e70       $SG26357                   000000018006ee70     c3_SpeedgoatCANOpen2Buses1ms.obj
 0003:00002e84       $SG26358                   000000018006ee84     c3_SpeedgoatCANOpen2Buses1ms.obj
 0003:00002e8c       $SG26359                   000000018006ee8c     c3_SpeedgoatCANOpen2Buses1ms.obj
 0003:00002e98       $SG26360                   000000018006ee98     c3_SpeedgoatCANOpen2Buses1ms.obj
 0003:00002eac       $SG26361                   000000018006eeac     c3_SpeedgoatCANOpen2Buses1ms.obj
 0003:00002eb8       $SG26362                   000000018006eeb8     c3_SpeedgoatCANOpen2Buses1ms.obj
 0003:00002ec4       $SG26363                   000000018006eec4     c3_SpeedgoatCANOpen2Buses1ms.obj
 0003:00002ecc       $SG26365                   000000018006eecc     c3_SpeedgoatCANOpen2Buses1ms.obj
 0003:00002ed4       $SG26367                   000000018006eed4     c3_SpeedgoatCANOpen2Buses1ms.obj
 0003:00002ee0       $SG26369                   000000018006eee0     c3_SpeedgoatCANOpen2Buses1ms.obj
 0003:00002ef4       $SG26370                   000000018006eef4     c3_SpeedgoatCANOpen2Buses1ms.obj
 0003:00002efc       $SG26371                   000000018006eefc     c3_SpeedgoatCANOpen2Buses1ms.obj
 0003:00002f08       $SG26372                   000000018006ef08     c3_SpeedgoatCANOpen2Buses1ms.obj
 0003:00002f1c       $SG26373                   000000018006ef1c     c3_SpeedgoatCANOpen2Buses1ms.obj
 0003:00002f28       $SG26374                   000000018006ef28     c3_SpeedgoatCANOpen2Buses1ms.obj
 0003:00002f34       $SG26375                   000000018006ef34     c3_SpeedgoatCANOpen2Buses1ms.obj
 0003:00002f3c       $SG26377                   000000018006ef3c     c3_SpeedgoatCANOpen2Buses1ms.obj
 0003:00002f44       $SG26379                   000000018006ef44     c3_SpeedgoatCANOpen2Buses1ms.obj
 0003:00002f50       $SG26381                   000000018006ef50     c3_SpeedgoatCANOpen2Buses1ms.obj
 0003:00002f64       $SG26382                   000000018006ef64     c3_SpeedgoatCANOpen2Buses1ms.obj
 0003:00002f6c       $SG26383                   000000018006ef6c     c3_SpeedgoatCANOpen2Buses1ms.obj
 0003:00002f78       $SG26384                   000000018006ef78     c3_SpeedgoatCANOpen2Buses1ms.obj
 0003:00002f8c       $SG26385                   000000018006ef8c     c3_SpeedgoatCANOpen2Buses1ms.obj
 0003:00002f98       $SG26386                   000000018006ef98     c3_SpeedgoatCANOpen2Buses1ms.obj
 0003:00002fa4       $SG26387                   000000018006efa4     c3_SpeedgoatCANOpen2Buses1ms.obj
 0003:00002fac       $SG26389                   000000018006efac     c3_SpeedgoatCANOpen2Buses1ms.obj
 0003:00002fb4       $SG26391                   000000018006efb4     c3_SpeedgoatCANOpen2Buses1ms.obj
 0003:00002fc0       $SG26393                   000000018006efc0     c3_SpeedgoatCANOpen2Buses1ms.obj
 0003:00002fd4       $SG26394                   000000018006efd4     c3_SpeedgoatCANOpen2Buses1ms.obj
 0003:00002fdc       $SG26395                   000000018006efdc     c3_SpeedgoatCANOpen2Buses1ms.obj
 0003:00002fe8       $SG26396                   000000018006efe8     c3_SpeedgoatCANOpen2Buses1ms.obj
 0003:00002ffc       $SG26397                   000000018006effc     c3_SpeedgoatCANOpen2Buses1ms.obj
 0003:00003008       $SG26398                   000000018006f008     c3_SpeedgoatCANOpen2Buses1ms.obj
 0003:00003018       $SG26399                   000000018006f018     c3_SpeedgoatCANOpen2Buses1ms.obj
 0003:00003020       $SG26401                   000000018006f020     c3_SpeedgoatCANOpen2Buses1ms.obj
 0003:00003028       $SG26403                   000000018006f028     c3_SpeedgoatCANOpen2Buses1ms.obj
 0003:00003030       $SG26405                   000000018006f030     c3_SpeedgoatCANOpen2Buses1ms.obj
 0003:0000303c       $SG26406                   000000018006f03c     c3_SpeedgoatCANOpen2Buses1ms.obj
 0003:00003044       $SG26408                   000000018006f044     c3_SpeedgoatCANOpen2Buses1ms.obj
 0003:0000304c       $SG26410                   000000018006f04c     c3_SpeedgoatCANOpen2Buses1ms.obj
 0003:00003058       $SG26412                   000000018006f058     c3_SpeedgoatCANOpen2Buses1ms.obj
 0003:0000306c       $SG26413                   000000018006f06c     c3_SpeedgoatCANOpen2Buses1ms.obj
 0003:00003074       $SG26414                   000000018006f074     c3_SpeedgoatCANOpen2Buses1ms.obj
 0003:00003080       $SG26415                   000000018006f080     c3_SpeedgoatCANOpen2Buses1ms.obj
 0003:00003094       $SG26416                   000000018006f094     c3_SpeedgoatCANOpen2Buses1ms.obj
 0003:000030a0       $SG26417                   000000018006f0a0     c3_SpeedgoatCANOpen2Buses1ms.obj
 0003:000030ac       $SG26418                   000000018006f0ac     c3_SpeedgoatCANOpen2Buses1ms.obj
 0003:000030b4       $SG26420                   000000018006f0b4     c3_SpeedgoatCANOpen2Buses1ms.obj
 0003:000030bc       $SG26422                   000000018006f0bc     c3_SpeedgoatCANOpen2Buses1ms.obj
 0003:000030c8       $SG26424                   000000018006f0c8     c3_SpeedgoatCANOpen2Buses1ms.obj
 0003:000030dc       $SG26425                   000000018006f0dc     c3_SpeedgoatCANOpen2Buses1ms.obj
 0003:000030e4       $SG26426                   000000018006f0e4     c3_SpeedgoatCANOpen2Buses1ms.obj
 0003:000030f0       $SG26427                   000000018006f0f0     c3_SpeedgoatCANOpen2Buses1ms.obj
 0003:00003104       $SG26428                   000000018006f104     c3_SpeedgoatCANOpen2Buses1ms.obj
 0003:00003110       $SG26429                   000000018006f110     c3_SpeedgoatCANOpen2Buses1ms.obj
 0003:0000311c       $SG26430                   000000018006f11c     c3_SpeedgoatCANOpen2Buses1ms.obj
 0003:00003128       $SG26431                   000000018006f128     c3_SpeedgoatCANOpen2Buses1ms.obj
 0003:00003138       $SG26447                   000000018006f138     c3_SpeedgoatCANOpen2Buses1ms.obj
 0003:00003148       $SG26449                   000000018006f148     c3_SpeedgoatCANOpen2Buses1ms.obj
 0003:00003158       $SG26451                   000000018006f158     c3_SpeedgoatCANOpen2Buses1ms.obj
 0003:00003170       $SG26453                   000000018006f170     c3_SpeedgoatCANOpen2Buses1ms.obj
 0003:00003188       $SG26455                   000000018006f188     c3_SpeedgoatCANOpen2Buses1ms.obj
 0003:0000319c       $SG26456                   000000018006f19c     c3_SpeedgoatCANOpen2Buses1ms.obj
 0003:000031a8       $SG26457                   000000018006f1a8     c3_SpeedgoatCANOpen2Buses1ms.obj
 0003:000031b8       $SG26474                   000000018006f1b8     c3_SpeedgoatCANOpen2Buses1ms.obj
 0003:000031e0       $SG26476                   000000018006f1e0     c3_SpeedgoatCANOpen2Buses1ms.obj
 0003:00003200       $SG26478                   000000018006f200     c3_SpeedgoatCANOpen2Buses1ms.obj
 0003:00003228       $SG26479                   000000018006f228     c3_SpeedgoatCANOpen2Buses1ms.obj
 0003:00003248       $SG26489                   000000018006f248     c3_SpeedgoatCANOpen2Buses1ms.obj
 0003:00003258       $SG26491                   000000018006f258     c3_SpeedgoatCANOpen2Buses1ms.obj
 0003:00003260       $SG26493                   000000018006f260     c3_SpeedgoatCANOpen2Buses1ms.obj
 0003:000033d8       ?condStart@?M@??chart_debug_initialization@@9@9 000000018006f3d8     c3_SpeedgoatCANOpen2Buses1ms.obj
 0003:000033e0       $SG26495                   000000018006f3e0     c3_SpeedgoatCANOpen2Buses1ms.obj
 0003:00003430       ?condEnd@?M@??chart_debug_initialization@@9@9 000000018006f430     c3_SpeedgoatCANOpen2Buses1ms.obj
 0003:00003438       ?pfixExpr@?M@??chart_debug_initialization@@9@9 000000018006f438     c3_SpeedgoatCANOpen2Buses1ms.obj
 0003:00003448       ?condStart@?N@??chart_debug_initialization@@9@9 000000018006f448     c3_SpeedgoatCANOpen2Buses1ms.obj
 0003:00003450       ?condEnd@?N@??chart_debug_initialization@@9@9 000000018006f450     c3_SpeedgoatCANOpen2Buses1ms.obj
 0003:00003458       ?pfixExpr@?N@??chart_debug_initialization@@9@9 000000018006f458     c3_SpeedgoatCANOpen2Buses1ms.obj
 0003:00003464       $SG26606                   000000018006f464     c3_SpeedgoatCANOpen2Buses1ms.obj
 0003:00003470       $SG26607                   000000018006f470     c3_SpeedgoatCANOpen2Buses1ms.obj
 0003:00003480       $SG26608                   000000018006f480     c3_SpeedgoatCANOpen2Buses1ms.obj
 0003:00003490       $SG26609                   000000018006f490     c3_SpeedgoatCANOpen2Buses1ms.obj
 0003:000034a0       $SG26610                   000000018006f4a0     c3_SpeedgoatCANOpen2Buses1ms.obj
 0003:000034b0       $SG26611                   000000018006f4b0     c3_SpeedgoatCANOpen2Buses1ms.obj
 0003:000034c0       $SG26612                   000000018006f4c0     c3_SpeedgoatCANOpen2Buses1ms.obj
 0003:000034d0       $SG26613                   000000018006f4d0     c3_SpeedgoatCANOpen2Buses1ms.obj
 0003:000034e8       $SG26614                   000000018006f4e8     c3_SpeedgoatCANOpen2Buses1ms.obj
 0003:000034f8       $SG26645                   000000018006f4f8     c3_SpeedgoatCANOpen2Buses1ms.obj
 0003:00003510       $SG26661                   000000018006f510     c3_SpeedgoatCANOpen2Buses1ms.obj
 0003:00003520       $SG26665                   000000018006f520     c3_SpeedgoatCANOpen2Buses1ms.obj
 0003:000037a0       $SG26750                   000000018006f7a0     c3_SpeedgoatCANOpen2Buses1ms.obj
 0003:00003908       ?checksum@?1??sf_get_sfun_dwork_checksum@@9@9 000000018006f908     c3_SpeedgoatCANOpen2Buses1ms.obj
 0003:00003918       $SG26792                   000000018006f918     c3_SpeedgoatCANOpen2Buses1ms.obj
 0003:00003940       $SG26800                   000000018006f940     c3_SpeedgoatCANOpen2Buses1ms.obj
 0003:00003950       $SG26801                   000000018006f950     c3_SpeedgoatCANOpen2Buses1ms.obj
 0003:00003968       $SG26824                   000000018006f968     c3_SpeedgoatCANOpen2Buses1ms.obj
 0003:000039a0       $SG26839                   000000018006f9a0     c3_SpeedgoatCANOpen2Buses1ms.obj
 0003:00003a20       $SG25201                   000000018006fa20     c4_SpeedgoatCANOpen2Buses1ms.obj
 0003:00003a28       $SG25202                   000000018006fa28     c4_SpeedgoatCANOpen2Buses1ms.obj
 0003:00003a30       $SG25204                   000000018006fa30     c4_SpeedgoatCANOpen2Buses1ms.obj
 0003:00003a38       $SG25205                   000000018006fa38     c4_SpeedgoatCANOpen2Buses1ms.obj
 0003:00003a40       $SG25207                   000000018006fa40     c4_SpeedgoatCANOpen2Buses1ms.obj
 0003:00003a48       $SG25208                   000000018006fa48     c4_SpeedgoatCANOpen2Buses1ms.obj
 0003:00003a50       $SG25209                   000000018006fa50     c4_SpeedgoatCANOpen2Buses1ms.obj
 0003:00003a6c       $SG25211                   000000018006fa6c     c4_SpeedgoatCANOpen2Buses1ms.obj
 0003:00003a78       $SG25212                   000000018006fa78     c4_SpeedgoatCANOpen2Buses1ms.obj
 0003:00003a80       $SG25213                   000000018006fa80     c4_SpeedgoatCANOpen2Buses1ms.obj
 0003:00003a9c       $SG25472                   000000018006fa9c     c4_SpeedgoatCANOpen2Buses1ms.obj
 0003:00003aa0       c4_debug_family_names      000000018006faa0     c4_SpeedgoatCANOpen2Buses1ms.obj
 0003:00003ab0       c4_b_debug_family_names    000000018006fab0     c4_SpeedgoatCANOpen2Buses1ms.obj
 0003:00003ac0       c4_c_debug_family_names    000000018006fac0     c4_SpeedgoatCANOpen2Buses1ms.obj
 0003:00003ad8       c4_d_debug_family_names    000000018006fad8     c4_SpeedgoatCANOpen2Buses1ms.obj
 0003:00003af0       $SG25473                   000000018006faf0     c4_SpeedgoatCANOpen2Buses1ms.obj
 0003:00003af4       $SG25474                   000000018006faf4     c4_SpeedgoatCANOpen2Buses1ms.obj
 0003:00003af8       $SG25475                   000000018006faf8     c4_SpeedgoatCANOpen2Buses1ms.obj
 0003:00003afc       $SG25483                   000000018006fafc     c4_SpeedgoatCANOpen2Buses1ms.obj
 0003:00003b04       $SG25599                   000000018006fb04     c4_SpeedgoatCANOpen2Buses1ms.obj
 0003:00003b08       $SG25484                   000000018006fb08     c4_SpeedgoatCANOpen2Buses1ms.obj
 0003:00003b30       $SG25485                   000000018006fb30     c4_SpeedgoatCANOpen2Buses1ms.obj
 0003:00003b50       $SG25486                   000000018006fb50     c4_SpeedgoatCANOpen2Buses1ms.obj
 0003:00003b64       $SG25643                   000000018006fb64     c4_SpeedgoatCANOpen2Buses1ms.obj
 0003:00003b68       $SG25487                   000000018006fb68     c4_SpeedgoatCANOpen2Buses1ms.obj
 0003:00003b84       $SG25738                   000000018006fb84     c4_SpeedgoatCANOpen2Buses1ms.obj
 0003:00003b88       $SG25678                   000000018006fb88     c4_SpeedgoatCANOpen2Buses1ms.obj
 0003:00003b98       $SG25907                   000000018006fb98     c4_SpeedgoatCANOpen2Buses1ms.obj
 0003:00003ba4       $SG25909                   000000018006fba4     c4_SpeedgoatCANOpen2Buses1ms.obj
 0003:00003bb0       $SG25911                   000000018006fbb0     c4_SpeedgoatCANOpen2Buses1ms.obj
 0003:00003bc0       $SG25913                   000000018006fbc0     c4_SpeedgoatCANOpen2Buses1ms.obj
 0003:00003bc8       $SG25915                   000000018006fbc8     c4_SpeedgoatCANOpen2Buses1ms.obj
 0003:00003bd0       $SG25917                   000000018006fbd0     c4_SpeedgoatCANOpen2Buses1ms.obj
 0003:00003be0       $SG25918                   000000018006fbe0     c4_SpeedgoatCANOpen2Buses1ms.obj
 0003:00003bf8       $SG25919                   000000018006fbf8     c4_SpeedgoatCANOpen2Buses1ms.obj
 0003:00003c04       $SG25921                   000000018006fc04     c4_SpeedgoatCANOpen2Buses1ms.obj
 0003:00003c0c       $SG25923                   000000018006fc0c     c4_SpeedgoatCANOpen2Buses1ms.obj
 0003:00003c18       $SG25925                   000000018006fc18     c4_SpeedgoatCANOpen2Buses1ms.obj
 0003:00003c24       $SG25926                   000000018006fc24     c4_SpeedgoatCANOpen2Buses1ms.obj
 0003:00003c2c       $SG25928                   000000018006fc2c     c4_SpeedgoatCANOpen2Buses1ms.obj
 0003:00003c34       $SG25930                   000000018006fc34     c4_SpeedgoatCANOpen2Buses1ms.obj
 0003:00003c40       $SG25932                   000000018006fc40     c4_SpeedgoatCANOpen2Buses1ms.obj
 0003:00003c54       $SG25933                   000000018006fc54     c4_SpeedgoatCANOpen2Buses1ms.obj
 0003:00003c5c       $SG25934                   000000018006fc5c     c4_SpeedgoatCANOpen2Buses1ms.obj
 0003:00003c68       $SG25935                   000000018006fc68     c4_SpeedgoatCANOpen2Buses1ms.obj
 0003:00003c7c       $SG25936                   000000018006fc7c     c4_SpeedgoatCANOpen2Buses1ms.obj
 0003:00003c88       $SG25937                   000000018006fc88     c4_SpeedgoatCANOpen2Buses1ms.obj
 0003:00003c94       $SG25938                   000000018006fc94     c4_SpeedgoatCANOpen2Buses1ms.obj
 0003:00003ca0       $SG25939                   000000018006fca0     c4_SpeedgoatCANOpen2Buses1ms.obj
 0003:00003cac       $SG25941                   000000018006fcac     c4_SpeedgoatCANOpen2Buses1ms.obj
 0003:00003cb4       $SG25943                   000000018006fcb4     c4_SpeedgoatCANOpen2Buses1ms.obj
 0003:00003cc0       $SG25945                   000000018006fcc0     c4_SpeedgoatCANOpen2Buses1ms.obj
 0003:00003ccc       $SG25946                   000000018006fccc     c4_SpeedgoatCANOpen2Buses1ms.obj
 0003:00003cd4       $SG25948                   000000018006fcd4     c4_SpeedgoatCANOpen2Buses1ms.obj
 0003:00003cdc       $SG25950                   000000018006fcdc     c4_SpeedgoatCANOpen2Buses1ms.obj
 0003:00003ce8       $SG25952                   000000018006fce8     c4_SpeedgoatCANOpen2Buses1ms.obj
 0003:00003cfc       $SG25953                   000000018006fcfc     c4_SpeedgoatCANOpen2Buses1ms.obj
 0003:00003d04       $SG25954                   000000018006fd04     c4_SpeedgoatCANOpen2Buses1ms.obj
 0003:00003d10       $SG25955                   000000018006fd10     c4_SpeedgoatCANOpen2Buses1ms.obj
 0003:00003d24       $SG25956                   000000018006fd24     c4_SpeedgoatCANOpen2Buses1ms.obj
 0003:00003d30       $SG25957                   000000018006fd30     c4_SpeedgoatCANOpen2Buses1ms.obj
 0003:00003d40       $SG25958                   000000018006fd40     c4_SpeedgoatCANOpen2Buses1ms.obj
 0003:00003d48       $SG25959                   000000018006fd48     c4_SpeedgoatCANOpen2Buses1ms.obj
 0003:00003d50       $SG25960                   000000018006fd50     c4_SpeedgoatCANOpen2Buses1ms.obj
 0003:00003d60       $SG25976                   000000018006fd60     c4_SpeedgoatCANOpen2Buses1ms.obj
 0003:00003d70       $SG25978                   000000018006fd70     c4_SpeedgoatCANOpen2Buses1ms.obj
 0003:00003d80       $SG25980                   000000018006fd80     c4_SpeedgoatCANOpen2Buses1ms.obj
 0003:00003d98       $SG25982                   000000018006fd98     c4_SpeedgoatCANOpen2Buses1ms.obj
 0003:00003db0       $SG25984                   000000018006fdb0     c4_SpeedgoatCANOpen2Buses1ms.obj
 0003:00003dc4       $SG25985                   000000018006fdc4     c4_SpeedgoatCANOpen2Buses1ms.obj
 0003:00003dd0       $SG25986                   000000018006fdd0     c4_SpeedgoatCANOpen2Buses1ms.obj
 0003:00003de0       $SG26003                   000000018006fde0     c4_SpeedgoatCANOpen2Buses1ms.obj
 0003:00003e08       $SG26005                   000000018006fe08     c4_SpeedgoatCANOpen2Buses1ms.obj
 0003:00003e28       $SG26007                   000000018006fe28     c4_SpeedgoatCANOpen2Buses1ms.obj
 0003:00003e50       $SG26008                   000000018006fe50     c4_SpeedgoatCANOpen2Buses1ms.obj
 0003:00003e70       $SG26018                   000000018006fe70     c4_SpeedgoatCANOpen2Buses1ms.obj
 0003:00003e80       $SG26020                   000000018006fe80     c4_SpeedgoatCANOpen2Buses1ms.obj
 0003:00003e88       $SG26063                   000000018006fe88     c4_SpeedgoatCANOpen2Buses1ms.obj
 0003:00003e90       $SG26022                   000000018006fe90     c4_SpeedgoatCANOpen2Buses1ms.obj
 0003:00003f60       $SG26062                   000000018006ff60     c4_SpeedgoatCANOpen2Buses1ms.obj
 0003:00003f70       $SG26078                   000000018006ff70     c4_SpeedgoatCANOpen2Buses1ms.obj
 0003:00003f88       $SG26094                   000000018006ff88     c4_SpeedgoatCANOpen2Buses1ms.obj
 0003:00003f98       ?checksum@?1??sf_get_sfun_dwork_checksum@@9@9 000000018006ff98     c4_SpeedgoatCANOpen2Buses1ms.obj
 0003:00003fa8       $SG26225                   000000018006ffa8     c4_SpeedgoatCANOpen2Buses1ms.obj
 0003:00003fd0       $SG26098                   000000018006ffd0     c4_SpeedgoatCANOpen2Buses1ms.obj
 0003:00004250       $SG26183                   0000000180070250     c4_SpeedgoatCANOpen2Buses1ms.obj
 0003:00004368       $SG26233                   0000000180070368     c4_SpeedgoatCANOpen2Buses1ms.obj
 0003:00004378       $SG26234                   0000000180070378     c4_SpeedgoatCANOpen2Buses1ms.obj
 0003:00004390       $SG26257                   0000000180070390     c4_SpeedgoatCANOpen2Buses1ms.obj
 0003:000043c0       $SG26272                   00000001800703c0     c4_SpeedgoatCANOpen2Buses1ms.obj
 0003:00004440       $SG25203                   0000000180070440     c5_SpeedgoatCANOpen2Buses1ms.obj
 0003:00004448       $SG25204                   0000000180070448     c5_SpeedgoatCANOpen2Buses1ms.obj
 0003:00004450       $SG25206                   0000000180070450     c5_SpeedgoatCANOpen2Buses1ms.obj
 0003:00004458       $SG25207                   0000000180070458     c5_SpeedgoatCANOpen2Buses1ms.obj
 0003:00004460       $SG25209                   0000000180070460     c5_SpeedgoatCANOpen2Buses1ms.obj
 0003:00004468       $SG25210                   0000000180070468     c5_SpeedgoatCANOpen2Buses1ms.obj
 0003:00004470       $SG25211                   0000000180070470     c5_SpeedgoatCANOpen2Buses1ms.obj
 0003:0000448c       $SG25213                   000000018007048c     c5_SpeedgoatCANOpen2Buses1ms.obj
 0003:00004498       $SG25214                   0000000180070498     c5_SpeedgoatCANOpen2Buses1ms.obj
 0003:000044a0       $SG25215                   00000001800704a0     c5_SpeedgoatCANOpen2Buses1ms.obj
 0003:000044bc       $SG25492                   00000001800704bc     c5_SpeedgoatCANOpen2Buses1ms.obj
 0003:000044c0       c5_debug_family_names      00000001800704c0     c5_SpeedgoatCANOpen2Buses1ms.obj
 0003:000044d0       c5_b_debug_family_names    00000001800704d0     c5_SpeedgoatCANOpen2Buses1ms.obj
 0003:000044e0       c5_c_debug_family_names    00000001800704e0     c5_SpeedgoatCANOpen2Buses1ms.obj
 0003:000044f8       c5_d_debug_family_names    00000001800704f8     c5_SpeedgoatCANOpen2Buses1ms.obj
 0003:00004510       $SG25493                   0000000180070510     c5_SpeedgoatCANOpen2Buses1ms.obj
 0003:00004514       $SG25494                   0000000180070514     c5_SpeedgoatCANOpen2Buses1ms.obj
 0003:00004518       $SG25495                   0000000180070518     c5_SpeedgoatCANOpen2Buses1ms.obj
 0003:0000451c       $SG25496                   000000018007051c     c5_SpeedgoatCANOpen2Buses1ms.obj
 0003:00004520       $SG25504                   0000000180070520     c5_SpeedgoatCANOpen2Buses1ms.obj
 0003:00004530       $SG25505                   0000000180070530     c5_SpeedgoatCANOpen2Buses1ms.obj
 0003:00004558       $SG25506                   0000000180070558     c5_SpeedgoatCANOpen2Buses1ms.obj
 0003:00004578       $SG25507                   0000000180070578     c5_SpeedgoatCANOpen2Buses1ms.obj
 0003:0000458c       $SG25634                   000000018007058c     c5_SpeedgoatCANOpen2Buses1ms.obj
 0003:00004590       $SG25508                   0000000180070590     c5_SpeedgoatCANOpen2Buses1ms.obj
 0003:000045a4       $SG25678                   00000001800705a4     c5_SpeedgoatCANOpen2Buses1ms.obj
 0003:000045a8       $SG25509                   00000001800705a8     c5_SpeedgoatCANOpen2Buses1ms.obj
 0003:000045c4       $SG25773                   00000001800705c4     c5_SpeedgoatCANOpen2Buses1ms.obj
 0003:000045c8       $SG25516                   00000001800705c8     c5_SpeedgoatCANOpen2Buses1ms.obj
 0003:000045e8       $SG25713                   00000001800705e8     c5_SpeedgoatCANOpen2Buses1ms.obj
 0003:000045f8       $SG25969                   00000001800705f8     c5_SpeedgoatCANOpen2Buses1ms.obj
 0003:00004604       $SG25971                   0000000180070604     c5_SpeedgoatCANOpen2Buses1ms.obj
 0003:00004610       $SG25973                   0000000180070610     c5_SpeedgoatCANOpen2Buses1ms.obj
 0003:00004620       $SG25975                   0000000180070620     c5_SpeedgoatCANOpen2Buses1ms.obj
 0003:00004628       $SG25977                   0000000180070628     c5_SpeedgoatCANOpen2Buses1ms.obj
 0003:00004630       $SG25979                   0000000180070630     c5_SpeedgoatCANOpen2Buses1ms.obj
 0003:00004640       $SG25980                   0000000180070640     c5_SpeedgoatCANOpen2Buses1ms.obj
 0003:00004658       $SG25981                   0000000180070658     c5_SpeedgoatCANOpen2Buses1ms.obj
 0003:00004664       $SG25983                   0000000180070664     c5_SpeedgoatCANOpen2Buses1ms.obj
 0003:0000466c       $SG25985                   000000018007066c     c5_SpeedgoatCANOpen2Buses1ms.obj
 0003:00004678       $SG25987                   0000000180070678     c5_SpeedgoatCANOpen2Buses1ms.obj
 0003:00004684       $SG25988                   0000000180070684     c5_SpeedgoatCANOpen2Buses1ms.obj
 0003:0000468c       $SG25990                   000000018007068c     c5_SpeedgoatCANOpen2Buses1ms.obj
 0003:00004694       $SG25992                   0000000180070694     c5_SpeedgoatCANOpen2Buses1ms.obj
 0003:000046a0       $SG25994                   00000001800706a0     c5_SpeedgoatCANOpen2Buses1ms.obj
 0003:000046b4       $SG25995                   00000001800706b4     c5_SpeedgoatCANOpen2Buses1ms.obj
 0003:000046bc       $SG25996                   00000001800706bc     c5_SpeedgoatCANOpen2Buses1ms.obj
 0003:000046c8       $SG25997                   00000001800706c8     c5_SpeedgoatCANOpen2Buses1ms.obj
 0003:000046dc       $SG25998                   00000001800706dc     c5_SpeedgoatCANOpen2Buses1ms.obj
 0003:000046e8       $SG25999                   00000001800706e8     c5_SpeedgoatCANOpen2Buses1ms.obj
 0003:000046f4       $SG26000                   00000001800706f4     c5_SpeedgoatCANOpen2Buses1ms.obj
 0003:000046fc       $SG26002                   00000001800706fc     c5_SpeedgoatCANOpen2Buses1ms.obj
 0003:00004704       $SG26004                   0000000180070704     c5_SpeedgoatCANOpen2Buses1ms.obj
 0003:00004710       $SG26006                   0000000180070710     c5_SpeedgoatCANOpen2Buses1ms.obj
 0003:00004724       $SG26007                   0000000180070724     c5_SpeedgoatCANOpen2Buses1ms.obj
 0003:0000472c       $SG26008                   000000018007072c     c5_SpeedgoatCANOpen2Buses1ms.obj
 0003:00004738       $SG26009                   0000000180070738     c5_SpeedgoatCANOpen2Buses1ms.obj
 0003:0000474c       $SG26010                   000000018007074c     c5_SpeedgoatCANOpen2Buses1ms.obj
 0003:00004758       $SG26011                   0000000180070758     c5_SpeedgoatCANOpen2Buses1ms.obj
 0003:00004764       $SG26012                   0000000180070764     c5_SpeedgoatCANOpen2Buses1ms.obj
 0003:00004770       $SG26013                   0000000180070770     c5_SpeedgoatCANOpen2Buses1ms.obj
 0003:0000477c       $SG26015                   000000018007077c     c5_SpeedgoatCANOpen2Buses1ms.obj
 0003:00004784       $SG26017                   0000000180070784     c5_SpeedgoatCANOpen2Buses1ms.obj
 0003:00004790       $SG26019                   0000000180070790     c5_SpeedgoatCANOpen2Buses1ms.obj
 0003:0000479c       $SG26020                   000000018007079c     c5_SpeedgoatCANOpen2Buses1ms.obj
 0003:000047a4       $SG26022                   00000001800707a4     c5_SpeedgoatCANOpen2Buses1ms.obj
 0003:000047ac       $SG26024                   00000001800707ac     c5_SpeedgoatCANOpen2Buses1ms.obj
 0003:000047b8       $SG26026                   00000001800707b8     c5_SpeedgoatCANOpen2Buses1ms.obj
 0003:000047cc       $SG26027                   00000001800707cc     c5_SpeedgoatCANOpen2Buses1ms.obj
 0003:000047d4       $SG26028                   00000001800707d4     c5_SpeedgoatCANOpen2Buses1ms.obj
 0003:000047e0       $SG26029                   00000001800707e0     c5_SpeedgoatCANOpen2Buses1ms.obj
 0003:000047f4       $SG26030                   00000001800707f4     c5_SpeedgoatCANOpen2Buses1ms.obj
 0003:00004800       $SG26031                   0000000180070800     c5_SpeedgoatCANOpen2Buses1ms.obj
 0003:00004810       $SG26032                   0000000180070810     c5_SpeedgoatCANOpen2Buses1ms.obj
 0003:00004818       $SG26033                   0000000180070818     c5_SpeedgoatCANOpen2Buses1ms.obj
 0003:00004820       $SG26034                   0000000180070820     c5_SpeedgoatCANOpen2Buses1ms.obj
 0003:00004830       $SG26050                   0000000180070830     c5_SpeedgoatCANOpen2Buses1ms.obj
 0003:00004840       $SG26052                   0000000180070840     c5_SpeedgoatCANOpen2Buses1ms.obj
 0003:00004850       $SG26054                   0000000180070850     c5_SpeedgoatCANOpen2Buses1ms.obj
 0003:00004868       $SG26056                   0000000180070868     c5_SpeedgoatCANOpen2Buses1ms.obj
 0003:00004880       $SG26058                   0000000180070880     c5_SpeedgoatCANOpen2Buses1ms.obj
 0003:00004894       $SG26059                   0000000180070894     c5_SpeedgoatCANOpen2Buses1ms.obj
 0003:000048a0       $SG26060                   00000001800708a0     c5_SpeedgoatCANOpen2Buses1ms.obj
 0003:000048b0       $SG26077                   00000001800708b0     c5_SpeedgoatCANOpen2Buses1ms.obj
 0003:000048d8       $SG26079                   00000001800708d8     c5_SpeedgoatCANOpen2Buses1ms.obj
 0003:000048f8       $SG26081                   00000001800708f8     c5_SpeedgoatCANOpen2Buses1ms.obj
 0003:00004920       $SG26082                   0000000180070920     c5_SpeedgoatCANOpen2Buses1ms.obj
 0003:00004940       $SG26092                   0000000180070940     c5_SpeedgoatCANOpen2Buses1ms.obj
 0003:00004950       $SG26094                   0000000180070950     c5_SpeedgoatCANOpen2Buses1ms.obj
 0003:00004958       $SG26140                   0000000180070958     c5_SpeedgoatCANOpen2Buses1ms.obj
 0003:00004970       $SG26096                   0000000180070970     c5_SpeedgoatCANOpen2Buses1ms.obj
 0003:00004a90       $SG26141                   0000000180070a90     c5_SpeedgoatCANOpen2Buses1ms.obj
 0003:00004aa0       $SG26142                   0000000180070aa0     c5_SpeedgoatCANOpen2Buses1ms.obj
 0003:00004ab0       $SG26159                   0000000180070ab0     c5_SpeedgoatCANOpen2Buses1ms.obj
 0003:00004ac8       $SG26175                   0000000180070ac8     c5_SpeedgoatCANOpen2Buses1ms.obj
 0003:00004ad8       ?checksum@?1??sf_get_sfun_dwork_checksum@@9@9 0000000180070ad8     c5_SpeedgoatCANOpen2Buses1ms.obj
 0003:00004ae8       $SG26306                   0000000180070ae8     c5_SpeedgoatCANOpen2Buses1ms.obj
 0003:00004b10       $SG26179                   0000000180070b10     c5_SpeedgoatCANOpen2Buses1ms.obj
 0003:00004d90       $SG26264                   0000000180070d90     c5_SpeedgoatCANOpen2Buses1ms.obj
 0003:00004ed0       $SG26314                   0000000180070ed0     c5_SpeedgoatCANOpen2Buses1ms.obj
 0003:00004ee0       $SG26315                   0000000180070ee0     c5_SpeedgoatCANOpen2Buses1ms.obj
 0003:00004ef8       $SG26338                   0000000180070ef8     c5_SpeedgoatCANOpen2Buses1ms.obj
 0003:00004f30       $SG26353                   0000000180070f30     c5_SpeedgoatCANOpen2Buses1ms.obj
 0003:00004fb0       $SG25212                   0000000180070fb0     c10_SpeedgoatCANOpen2Buses1ms.obj
 0003:00004fb8       $SG25213                   0000000180070fb8     c10_SpeedgoatCANOpen2Buses1ms.obj
 0003:00004fc0       $SG25215                   0000000180070fc0     c10_SpeedgoatCANOpen2Buses1ms.obj
 0003:00004fc8       $SG25216                   0000000180070fc8     c10_SpeedgoatCANOpen2Buses1ms.obj
 0003:00004fd0       $SG25218                   0000000180070fd0     c10_SpeedgoatCANOpen2Buses1ms.obj
 0003:00004fd8       $SG25219                   0000000180070fd8     c10_SpeedgoatCANOpen2Buses1ms.obj
 0003:00004fe0       $SG25221                   0000000180070fe0     c10_SpeedgoatCANOpen2Buses1ms.obj
 0003:00004fe8       $SG25222                   0000000180070fe8     c10_SpeedgoatCANOpen2Buses1ms.obj
 0003:00004ff0       $SG25224                   0000000180070ff0     c10_SpeedgoatCANOpen2Buses1ms.obj
 0003:00004ff8       $SG25225                   0000000180070ff8     c10_SpeedgoatCANOpen2Buses1ms.obj
 0003:00005000       $SG25227                   0000000180071000     c10_SpeedgoatCANOpen2Buses1ms.obj
 0003:00005008       $SG25228                   0000000180071008     c10_SpeedgoatCANOpen2Buses1ms.obj
 0003:00005010       $SG25229                   0000000180071010     c10_SpeedgoatCANOpen2Buses1ms.obj
 0003:0000502c       $SG25231                   000000018007102c     c10_SpeedgoatCANOpen2Buses1ms.obj
 0003:00005038       $SG25232                   0000000180071038     c10_SpeedgoatCANOpen2Buses1ms.obj
 0003:00005040       $SG25233                   0000000180071040     c10_SpeedgoatCANOpen2Buses1ms.obj
 0003:0000505c       $SG25235                   000000018007105c     c10_SpeedgoatCANOpen2Buses1ms.obj
 0003:00005068       $SG25236                   0000000180071068     c10_SpeedgoatCANOpen2Buses1ms.obj
 0003:00005070       $SG25237                   0000000180071070     c10_SpeedgoatCANOpen2Buses1ms.obj
 0003:0000508c       $SG25239                   000000018007108c     c10_SpeedgoatCANOpen2Buses1ms.obj
 0003:00005098       $SG25240                   0000000180071098     c10_SpeedgoatCANOpen2Buses1ms.obj
 0003:000050a0       $SG25241                   00000001800710a0     c10_SpeedgoatCANOpen2Buses1ms.obj
 0003:000050bc       $SG25495                   00000001800710bc     c10_SpeedgoatCANOpen2Buses1ms.obj
 0003:000050c0       c10_debug_family_names     00000001800710c0     c10_SpeedgoatCANOpen2Buses1ms.obj
 0003:000050d0       c10_b_debug_family_names   00000001800710d0     c10_SpeedgoatCANOpen2Buses1ms.obj
 0003:000050e0       c10_c_debug_family_names   00000001800710e0     c10_SpeedgoatCANOpen2Buses1ms.obj
 0003:000050f0       c10_d_debug_family_names   00000001800710f0     c10_SpeedgoatCANOpen2Buses1ms.obj
 0003:00005100       c10_e_debug_family_names   0000000180071100     c10_SpeedgoatCANOpen2Buses1ms.obj
 0003:00005110       c10_f_debug_family_names   0000000180071110     c10_SpeedgoatCANOpen2Buses1ms.obj
 0003:00005128       c10_g_debug_family_names   0000000180071128     c10_SpeedgoatCANOpen2Buses1ms.obj
 0003:00005140       c10_h_debug_family_names   0000000180071140     c10_SpeedgoatCANOpen2Buses1ms.obj
 0003:00005158       c10_i_debug_family_names   0000000180071158     c10_SpeedgoatCANOpen2Buses1ms.obj
 0003:00005170       $SG25496                   0000000180071170     c10_SpeedgoatCANOpen2Buses1ms.obj
 0003:00005174       $SG25497                   0000000180071174     c10_SpeedgoatCANOpen2Buses1ms.obj
 0003:00005178       $SG25498                   0000000180071178     c10_SpeedgoatCANOpen2Buses1ms.obj
 0003:0000517c       $SG25499                   000000018007117c     c10_SpeedgoatCANOpen2Buses1ms.obj
 0003:00005180       $SG25500                   0000000180071180     c10_SpeedgoatCANOpen2Buses1ms.obj
 0003:00005184       $SG25512                   0000000180071184     c10_SpeedgoatCANOpen2Buses1ms.obj
 0003:0000518c       $SG25513                   000000018007118c     c10_SpeedgoatCANOpen2Buses1ms.obj
 0003:00005194       $SG25722                   0000000180071194     c10_SpeedgoatCANOpen2Buses1ms.obj
 0003:00005198       $SG25514                   0000000180071198     c10_SpeedgoatCANOpen2Buses1ms.obj
 0003:000051c0       $SG25515                   00000001800711c0     c10_SpeedgoatCANOpen2Buses1ms.obj
 0003:000051e4       $SG25777                   00000001800711e4     c10_SpeedgoatCANOpen2Buses1ms.obj
 0003:000051e8       $SG25516                   00000001800711e8     c10_SpeedgoatCANOpen2Buses1ms.obj
 0003:00005200       $SG25517                   0000000180071200     c10_SpeedgoatCANOpen2Buses1ms.obj
 0003:00005218       $SG25518                   0000000180071218     c10_SpeedgoatCANOpen2Buses1ms.obj
 0003:00005238       $SG25525                   0000000180071238     c10_SpeedgoatCANOpen2Buses1ms.obj
 0003:00005258       $SG25812                   0000000180071258     c10_SpeedgoatCANOpen2Buses1ms.obj
 0003:00005268       $SG26001                   0000000180071268     c10_SpeedgoatCANOpen2Buses1ms.obj
 0003:00005274       $SG26003                   0000000180071274     c10_SpeedgoatCANOpen2Buses1ms.obj
 0003:00005280       $SG26005                   0000000180071280     c10_SpeedgoatCANOpen2Buses1ms.obj
 0003:00005290       $SG26007                   0000000180071290     c10_SpeedgoatCANOpen2Buses1ms.obj
 0003:00005298       $SG26009                   0000000180071298     c10_SpeedgoatCANOpen2Buses1ms.obj
 0003:000052a0       $SG26011                   00000001800712a0     c10_SpeedgoatCANOpen2Buses1ms.obj
 0003:000052b0       $SG26012                   00000001800712b0     c10_SpeedgoatCANOpen2Buses1ms.obj
 0003:000052c8       $SG26013                   00000001800712c8     c10_SpeedgoatCANOpen2Buses1ms.obj
 0003:000052d4       $SG26015                   00000001800712d4     c10_SpeedgoatCANOpen2Buses1ms.obj
 0003:000052dc       $SG26017                   00000001800712dc     c10_SpeedgoatCANOpen2Buses1ms.obj
 0003:000052e8       $SG26019                   00000001800712e8     c10_SpeedgoatCANOpen2Buses1ms.obj
 0003:000052f4       $SG26020                   00000001800712f4     c10_SpeedgoatCANOpen2Buses1ms.obj
 0003:000052fc       $SG26022                   00000001800712fc     c10_SpeedgoatCANOpen2Buses1ms.obj
 0003:00005304       $SG26024                   0000000180071304     c10_SpeedgoatCANOpen2Buses1ms.obj
 0003:00005310       $SG26026                   0000000180071310     c10_SpeedgoatCANOpen2Buses1ms.obj
 0003:00005324       $SG26027                   0000000180071324     c10_SpeedgoatCANOpen2Buses1ms.obj
 0003:0000532c       $SG26028                   000000018007132c     c10_SpeedgoatCANOpen2Buses1ms.obj
 0003:00005338       $SG26029                   0000000180071338     c10_SpeedgoatCANOpen2Buses1ms.obj
 0003:0000534c       $SG26030                   000000018007134c     c10_SpeedgoatCANOpen2Buses1ms.obj
 0003:00005358       $SG26031                   0000000180071358     c10_SpeedgoatCANOpen2Buses1ms.obj
 0003:00005364       $SG26032                   0000000180071364     c10_SpeedgoatCANOpen2Buses1ms.obj
 0003:0000536c       $SG26034                   000000018007136c     c10_SpeedgoatCANOpen2Buses1ms.obj
 0003:00005374       $SG26036                   0000000180071374     c10_SpeedgoatCANOpen2Buses1ms.obj
 0003:00005380       $SG26038                   0000000180071380     c10_SpeedgoatCANOpen2Buses1ms.obj
 0003:00005394       $SG26039                   0000000180071394     c10_SpeedgoatCANOpen2Buses1ms.obj
 0003:0000539c       $SG26040                   000000018007139c     c10_SpeedgoatCANOpen2Buses1ms.obj
 0003:000053a8       $SG26041                   00000001800713a8     c10_SpeedgoatCANOpen2Buses1ms.obj
 0003:000053bc       $SG26042                   00000001800713bc     c10_SpeedgoatCANOpen2Buses1ms.obj
 0003:000053c8       $SG26043                   00000001800713c8     c10_SpeedgoatCANOpen2Buses1ms.obj
 0003:000053d4       $SG26044                   00000001800713d4     c10_SpeedgoatCANOpen2Buses1ms.obj
 0003:000053e0       $SG26045                   00000001800713e0     c10_SpeedgoatCANOpen2Buses1ms.obj
 0003:000053ec       $SG26047                   00000001800713ec     c10_SpeedgoatCANOpen2Buses1ms.obj
 0003:000053f4       $SG26049                   00000001800713f4     c10_SpeedgoatCANOpen2Buses1ms.obj
 0003:00005400       $SG26051                   0000000180071400     c10_SpeedgoatCANOpen2Buses1ms.obj
 0003:0000540c       $SG26052                   000000018007140c     c10_SpeedgoatCANOpen2Buses1ms.obj
 0003:00005414       $SG26054                   0000000180071414     c10_SpeedgoatCANOpen2Buses1ms.obj
 0003:0000541c       $SG26056                   000000018007141c     c10_SpeedgoatCANOpen2Buses1ms.obj
 0003:00005428       $SG26058                   0000000180071428     c10_SpeedgoatCANOpen2Buses1ms.obj
 0003:0000543c       $SG26059                   000000018007143c     c10_SpeedgoatCANOpen2Buses1ms.obj
 0003:00005444       $SG26060                   0000000180071444     c10_SpeedgoatCANOpen2Buses1ms.obj
 0003:00005450       $SG26061                   0000000180071450     c10_SpeedgoatCANOpen2Buses1ms.obj
 0003:00005464       $SG26062                   0000000180071464     c10_SpeedgoatCANOpen2Buses1ms.obj
 0003:00005470       $SG26063                   0000000180071470     c10_SpeedgoatCANOpen2Buses1ms.obj
 0003:0000547c       $SG26064                   000000018007147c     c10_SpeedgoatCANOpen2Buses1ms.obj
 0003:00005484       $SG26066                   0000000180071484     c10_SpeedgoatCANOpen2Buses1ms.obj
 0003:0000548c       $SG26068                   000000018007148c     c10_SpeedgoatCANOpen2Buses1ms.obj
 0003:00005498       $SG26070                   0000000180071498     c10_SpeedgoatCANOpen2Buses1ms.obj
 0003:000054ac       $SG26071                   00000001800714ac     c10_SpeedgoatCANOpen2Buses1ms.obj
 0003:000054b4       $SG26072                   00000001800714b4     c10_SpeedgoatCANOpen2Buses1ms.obj
 0003:000054c0       $SG26073                   00000001800714c0     c10_SpeedgoatCANOpen2Buses1ms.obj
 0003:000054d4       $SG26074                   00000001800714d4     c10_SpeedgoatCANOpen2Buses1ms.obj
 0003:000054e0       $SG26075                   00000001800714e0     c10_SpeedgoatCANOpen2Buses1ms.obj
 0003:000054f0       $SG26076                   00000001800714f0     c10_SpeedgoatCANOpen2Buses1ms.obj
 0003:000054f8       $SG26077                   00000001800714f8     c10_SpeedgoatCANOpen2Buses1ms.obj
 0003:00005500       $SG26078                   0000000180071500     c10_SpeedgoatCANOpen2Buses1ms.obj
 0003:00005510       $SG26094                   0000000180071510     c10_SpeedgoatCANOpen2Buses1ms.obj
 0003:00005520       $SG26096                   0000000180071520     c10_SpeedgoatCANOpen2Buses1ms.obj
 0003:00005530       $SG26098                   0000000180071530     c10_SpeedgoatCANOpen2Buses1ms.obj
 0003:00005548       $SG26100                   0000000180071548     c10_SpeedgoatCANOpen2Buses1ms.obj
 0003:00005560       $SG26102                   0000000180071560     c10_SpeedgoatCANOpen2Buses1ms.obj
 0003:00005574       $SG26103                   0000000180071574     c10_SpeedgoatCANOpen2Buses1ms.obj
 0003:00005580       $SG26104                   0000000180071580     c10_SpeedgoatCANOpen2Buses1ms.obj
 0003:00005590       $SG26121                   0000000180071590     c10_SpeedgoatCANOpen2Buses1ms.obj
 0003:000055b8       $SG26123                   00000001800715b8     c10_SpeedgoatCANOpen2Buses1ms.obj
 0003:000055d8       $SG26125                   00000001800715d8     c10_SpeedgoatCANOpen2Buses1ms.obj
 0003:00005600       $SG26126                   0000000180071600     c10_SpeedgoatCANOpen2Buses1ms.obj
 0003:00005620       $SG26136                   0000000180071620     c10_SpeedgoatCANOpen2Buses1ms.obj
 0003:00005630       $SG26138                   0000000180071630     c10_SpeedgoatCANOpen2Buses1ms.obj
 0003:00005638       ?condStart@?9??chart_debug_initialization@@9@9 0000000180071638     c10_SpeedgoatCANOpen2Buses1ms.obj
 0003:00005640       $SG26140                   0000000180071640     c10_SpeedgoatCANOpen2Buses1ms.obj
 0003:00005770       ?condEnd@?9??chart_debug_initialization@@9@9 0000000180071770     c10_SpeedgoatCANOpen2Buses1ms.obj
 0003:00005778       ?pfixExpr@?9??chart_debug_initialization@@9@9 0000000180071778     c10_SpeedgoatCANOpen2Buses1ms.obj
 0003:00005788       ?condStart@?L@??chart_debug_initialization@@9@9 0000000180071788     c10_SpeedgoatCANOpen2Buses1ms.obj
 0003:00005790       ?condEnd@?L@??chart_debug_initialization@@9@9 0000000180071790     c10_SpeedgoatCANOpen2Buses1ms.obj
 0003:00005798       ?pfixExpr@?L@??chart_debug_initialization@@9@9 0000000180071798     c10_SpeedgoatCANOpen2Buses1ms.obj
 0003:000057a8       ?condStart@?M@??chart_debug_initialization@@9@9 00000001800717a8     c10_SpeedgoatCANOpen2Buses1ms.obj
 0003:000057b8       ?condEnd@?M@??chart_debug_initialization@@9@9 00000001800717b8     c10_SpeedgoatCANOpen2Buses1ms.obj
 0003:000057c8       ?pfixExpr@?M@??chart_debug_initialization@@9@9 00000001800717c8     c10_SpeedgoatCANOpen2Buses1ms.obj
 0003:000057e0       ?condStart@?N@??chart_debug_initialization@@9@9 00000001800717e0     c10_SpeedgoatCANOpen2Buses1ms.obj
 0003:000057f0       ?condEnd@?N@??chart_debug_initialization@@9@9 00000001800717f0     c10_SpeedgoatCANOpen2Buses1ms.obj
 0003:00005800       ?pfixExpr@?N@??chart_debug_initialization@@9@9 0000000180071800     c10_SpeedgoatCANOpen2Buses1ms.obj
 0003:00005814       $SG26222                   0000000180071814     c10_SpeedgoatCANOpen2Buses1ms.obj
 0003:0000581c       $SG26223                   000000018007181c     c10_SpeedgoatCANOpen2Buses1ms.obj
 0003:00005824       $SG26224                   0000000180071824     c10_SpeedgoatCANOpen2Buses1ms.obj
 0003:0000582c       $SG26225                   000000018007182c     c10_SpeedgoatCANOpen2Buses1ms.obj
 0003:00005838       $SG26244                   0000000180071838     c10_SpeedgoatCANOpen2Buses1ms.obj
 0003:00005850       $SG26260                   0000000180071850     c10_SpeedgoatCANOpen2Buses1ms.obj
 0003:00005860       $SG26264                   0000000180071860     c10_SpeedgoatCANOpen2Buses1ms.obj
 0003:00005ae0       $SG26349                   0000000180071ae0     c10_SpeedgoatCANOpen2Buses1ms.obj
 0003:00005c20       ?checksum@?1??sf_get_sfun_dwork_checksum@@9@9 0000000180071c20     c10_SpeedgoatCANOpen2Buses1ms.obj
 0003:00005c30       $SG26387                   0000000180071c30     c10_SpeedgoatCANOpen2Buses1ms.obj
 0003:00005c58       $SG26395                   0000000180071c58     c10_SpeedgoatCANOpen2Buses1ms.obj
 0003:00005c68       $SG26396                   0000000180071c68     c10_SpeedgoatCANOpen2Buses1ms.obj
 0003:00005c80       $SG26419                   0000000180071c80     c10_SpeedgoatCANOpen2Buses1ms.obj
 0003:00005cb0       $SG26434                   0000000180071cb0     c10_SpeedgoatCANOpen2Buses1ms.obj
 0003:00005d30       $SG25208                   0000000180071d30     c12_SpeedgoatCANOpen2Buses1ms.obj
 0003:00005d38       $SG25209                   0000000180071d38     c12_SpeedgoatCANOpen2Buses1ms.obj
 0003:00005d40       $SG25211                   0000000180071d40     c12_SpeedgoatCANOpen2Buses1ms.obj
 0003:00005d48       $SG25212                   0000000180071d48     c12_SpeedgoatCANOpen2Buses1ms.obj
 0003:00005d50       $SG25214                   0000000180071d50     c12_SpeedgoatCANOpen2Buses1ms.obj
 0003:00005d58       $SG25215                   0000000180071d58     c12_SpeedgoatCANOpen2Buses1ms.obj
 0003:00005d60       $SG25217                   0000000180071d60     c12_SpeedgoatCANOpen2Buses1ms.obj
 0003:00005d68       $SG25218                   0000000180071d68     c12_SpeedgoatCANOpen2Buses1ms.obj
 0003:00005d70       $SG25220                   0000000180071d70     c12_SpeedgoatCANOpen2Buses1ms.obj
 0003:00005d78       $SG25221                   0000000180071d78     c12_SpeedgoatCANOpen2Buses1ms.obj
 0003:00005d80       $SG25222                   0000000180071d80     c12_SpeedgoatCANOpen2Buses1ms.obj
 0003:00005d9c       $SG25224                   0000000180071d9c     c12_SpeedgoatCANOpen2Buses1ms.obj
 0003:00005da8       $SG25225                   0000000180071da8     c12_SpeedgoatCANOpen2Buses1ms.obj
 0003:00005db0       $SG25227                   0000000180071db0     c12_SpeedgoatCANOpen2Buses1ms.obj
 0003:00005db8       $SG25228                   0000000180071db8     c12_SpeedgoatCANOpen2Buses1ms.obj
 0003:00005dc0       $SG25229                   0000000180071dc0     c12_SpeedgoatCANOpen2Buses1ms.obj
 0003:00005ddc       $SG25231                   0000000180071ddc     c12_SpeedgoatCANOpen2Buses1ms.obj
 0003:00005de8       $SG25232                   0000000180071de8     c12_SpeedgoatCANOpen2Buses1ms.obj
 0003:00005df0       $SG25233                   0000000180071df0     c12_SpeedgoatCANOpen2Buses1ms.obj
 0003:00005e0c       $SG25235                   0000000180071e0c     c12_SpeedgoatCANOpen2Buses1ms.obj
 0003:00005e18       $SG25236                   0000000180071e18     c12_SpeedgoatCANOpen2Buses1ms.obj
 0003:00005e20       $SG25237                   0000000180071e20     c12_SpeedgoatCANOpen2Buses1ms.obj
 0003:00005e3c       $SG25239                   0000000180071e3c     c12_SpeedgoatCANOpen2Buses1ms.obj
 0003:00005e48       $SG25240                   0000000180071e48     c12_SpeedgoatCANOpen2Buses1ms.obj
 0003:00005e50       $SG25242                   0000000180071e50     c12_SpeedgoatCANOpen2Buses1ms.obj
 0003:00005e58       $SG25243                   0000000180071e58     c12_SpeedgoatCANOpen2Buses1ms.obj
 0003:00005e60       $SG25244                   0000000180071e60     c12_SpeedgoatCANOpen2Buses1ms.obj
 0003:00005e7c       $SG25546                   0000000180071e7c     c12_SpeedgoatCANOpen2Buses1ms.obj
 0003:00005e80       c12_debug_family_names     0000000180071e80     c12_SpeedgoatCANOpen2Buses1ms.obj
 0003:00005e90       c12_b_debug_family_names   0000000180071e90     c12_SpeedgoatCANOpen2Buses1ms.obj
 0003:00005ea0       c12_c_debug_family_names   0000000180071ea0     c12_SpeedgoatCANOpen2Buses1ms.obj
 0003:00005eb0       c12_d_debug_family_names   0000000180071eb0     c12_SpeedgoatCANOpen2Buses1ms.obj
 0003:00005ec0       c12_e_debug_family_names   0000000180071ec0     c12_SpeedgoatCANOpen2Buses1ms.obj
 0003:00005ed8       c12_f_debug_family_names   0000000180071ed8     c12_SpeedgoatCANOpen2Buses1ms.obj
 0003:00005ee8       c12_g_debug_family_names   0000000180071ee8     c12_SpeedgoatCANOpen2Buses1ms.obj
 0003:00005f00       c12_h_debug_family_names   0000000180071f00     c12_SpeedgoatCANOpen2Buses1ms.obj
 0003:00005f18       c12_i_debug_family_names   0000000180071f18     c12_SpeedgoatCANOpen2Buses1ms.obj
 0003:00005f30       c12_j_debug_family_names   0000000180071f30     c12_SpeedgoatCANOpen2Buses1ms.obj
 0003:00005f40       c12_k_debug_family_names   0000000180071f40     c12_SpeedgoatCANOpen2Buses1ms.obj
 0003:00005f58       $SG25547                   0000000180071f58     c12_SpeedgoatCANOpen2Buses1ms.obj
 0003:00005f5c       $SG25548                   0000000180071f5c     c12_SpeedgoatCANOpen2Buses1ms.obj
 0003:00005f60       $SG25549                   0000000180071f60     c12_SpeedgoatCANOpen2Buses1ms.obj
 0003:00005f64       $SG25550                   0000000180071f64     c12_SpeedgoatCANOpen2Buses1ms.obj
 0003:00005f68       $SG25551                   0000000180071f68     c12_SpeedgoatCANOpen2Buses1ms.obj
 0003:00005f6c       $SG25552                   0000000180071f6c     c12_SpeedgoatCANOpen2Buses1ms.obj
 0003:00005f70       $SG25553                   0000000180071f70     c12_SpeedgoatCANOpen2Buses1ms.obj
 0003:00005f74       $SG25554                   0000000180071f74     c12_SpeedgoatCANOpen2Buses1ms.obj
 0003:00005f78       $SG25555                   0000000180071f78     c12_SpeedgoatCANOpen2Buses1ms.obj
 0003:00005f7c       $SG25572                   0000000180071f7c     c12_SpeedgoatCANOpen2Buses1ms.obj
 0003:00005f80       $SG25567                   0000000180071f80     c12_SpeedgoatCANOpen2Buses1ms.obj
 0003:00005f8c       $SG25824                   0000000180071f8c     c12_SpeedgoatCANOpen2Buses1ms.obj
 0003:00005f90       $SG25568                   0000000180071f90     c12_SpeedgoatCANOpen2Buses1ms.obj
 0003:00005f9c       $SG25868                   0000000180071f9c     c12_SpeedgoatCANOpen2Buses1ms.obj
 0003:00005fa0       $SG25569                   0000000180071fa0     c12_SpeedgoatCANOpen2Buses1ms.obj
 0003:00005fac       $SG25963                   0000000180071fac     c12_SpeedgoatCANOpen2Buses1ms.obj
 0003:00005fb0       $SG25570                   0000000180071fb0     c12_SpeedgoatCANOpen2Buses1ms.obj
 0003:00005fbc       $SG26474                   0000000180071fbc     c12_SpeedgoatCANOpen2Buses1ms.obj
 0003:00005fc0       $SG25571                   0000000180071fc0     c12_SpeedgoatCANOpen2Buses1ms.obj
 0003:00005fcc       $SG25573                   0000000180071fcc     c12_SpeedgoatCANOpen2Buses1ms.obj
 0003:00005fd4       $SG26175                   0000000180071fd4     c12_SpeedgoatCANOpen2Buses1ms.obj
 0003:00005fe0       $SG25574                   0000000180071fe0     c12_SpeedgoatCANOpen2Buses1ms.obj
 0003:00006008       $SG25575                   0000000180072008     c12_SpeedgoatCANOpen2Buses1ms.obj
 0003:00006030       $SG25576                   0000000180072030     c12_SpeedgoatCANOpen2Buses1ms.obj
 0003:00006048       $SG25577                   0000000180072048     c12_SpeedgoatCANOpen2Buses1ms.obj
 0003:00006068       $SG25903                   0000000180072068     c12_SpeedgoatCANOpen2Buses1ms.obj
 0003:00006078       $SG26173                   0000000180072078     c12_SpeedgoatCANOpen2Buses1ms.obj
 0003:00006088       $SG26177                   0000000180072088     c12_SpeedgoatCANOpen2Buses1ms.obj
 0003:00006098       $SG26179                   0000000180072098     c12_SpeedgoatCANOpen2Buses1ms.obj
 0003:000060a0       $SG26181                   00000001800720a0     c12_SpeedgoatCANOpen2Buses1ms.obj
 0003:000060a8       $SG26183                   00000001800720a8     c12_SpeedgoatCANOpen2Buses1ms.obj
 0003:000060b8       $SG26184                   00000001800720b8     c12_SpeedgoatCANOpen2Buses1ms.obj
 0003:000060d0       $SG26185                   00000001800720d0     c12_SpeedgoatCANOpen2Buses1ms.obj
 0003:000060dc       $SG26187                   00000001800720dc     c12_SpeedgoatCANOpen2Buses1ms.obj
 0003:000060e4       $SG26189                   00000001800720e4     c12_SpeedgoatCANOpen2Buses1ms.obj
 0003:000060f0       $SG26191                   00000001800720f0     c12_SpeedgoatCANOpen2Buses1ms.obj
 0003:000060fc       $SG26192                   00000001800720fc     c12_SpeedgoatCANOpen2Buses1ms.obj
 0003:00006104       $SG26194                   0000000180072104     c12_SpeedgoatCANOpen2Buses1ms.obj
 0003:0000610c       $SG26196                   000000018007210c     c12_SpeedgoatCANOpen2Buses1ms.obj
 0003:00006118       $SG26198                   0000000180072118     c12_SpeedgoatCANOpen2Buses1ms.obj
 0003:0000612c       $SG26199                   000000018007212c     c12_SpeedgoatCANOpen2Buses1ms.obj
 0003:00006134       $SG26200                   0000000180072134     c12_SpeedgoatCANOpen2Buses1ms.obj
 0003:00006140       $SG26201                   0000000180072140     c12_SpeedgoatCANOpen2Buses1ms.obj
 0003:00006154       $SG26202                   0000000180072154     c12_SpeedgoatCANOpen2Buses1ms.obj
 0003:00006160       $SG26203                   0000000180072160     c12_SpeedgoatCANOpen2Buses1ms.obj
 0003:0000616c       $SG26204                   000000018007216c     c12_SpeedgoatCANOpen2Buses1ms.obj
 0003:00006174       $SG26206                   0000000180072174     c12_SpeedgoatCANOpen2Buses1ms.obj
 0003:0000617c       $SG26208                   000000018007217c     c12_SpeedgoatCANOpen2Buses1ms.obj
 0003:00006188       $SG26210                   0000000180072188     c12_SpeedgoatCANOpen2Buses1ms.obj
 0003:0000619c       $SG26211                   000000018007219c     c12_SpeedgoatCANOpen2Buses1ms.obj
 0003:000061a4       $SG26212                   00000001800721a4     c12_SpeedgoatCANOpen2Buses1ms.obj
 0003:000061b0       $SG26213                   00000001800721b0     c12_SpeedgoatCANOpen2Buses1ms.obj
 0003:000061c4       $SG26214                   00000001800721c4     c12_SpeedgoatCANOpen2Buses1ms.obj
 0003:000061d0       $SG26215                   00000001800721d0     c12_SpeedgoatCANOpen2Buses1ms.obj
 0003:000061dc       $SG26216                   00000001800721dc     c12_SpeedgoatCANOpen2Buses1ms.obj
 0003:000061e8       $SG26217                   00000001800721e8     c12_SpeedgoatCANOpen2Buses1ms.obj
 0003:000061f4       $SG26219                   00000001800721f4     c12_SpeedgoatCANOpen2Buses1ms.obj
 0003:000061fc       $SG26221                   00000001800721fc     c12_SpeedgoatCANOpen2Buses1ms.obj
 0003:00006208       $SG26223                   0000000180072208     c12_SpeedgoatCANOpen2Buses1ms.obj
 0003:00006214       $SG26224                   0000000180072214     c12_SpeedgoatCANOpen2Buses1ms.obj
 0003:0000621c       $SG26226                   000000018007221c     c12_SpeedgoatCANOpen2Buses1ms.obj
 0003:00006224       $SG26228                   0000000180072224     c12_SpeedgoatCANOpen2Buses1ms.obj
 0003:00006230       $SG26230                   0000000180072230     c12_SpeedgoatCANOpen2Buses1ms.obj
 0003:00006244       $SG26231                   0000000180072244     c12_SpeedgoatCANOpen2Buses1ms.obj
 0003:0000624c       $SG26232                   000000018007224c     c12_SpeedgoatCANOpen2Buses1ms.obj
 0003:00006258       $SG26233                   0000000180072258     c12_SpeedgoatCANOpen2Buses1ms.obj
 0003:0000626c       $SG26234                   000000018007226c     c12_SpeedgoatCANOpen2Buses1ms.obj
 0003:00006278       $SG26235                   0000000180072278     c12_SpeedgoatCANOpen2Buses1ms.obj
 0003:00006284       $SG26236                   0000000180072284     c12_SpeedgoatCANOpen2Buses1ms.obj
 0003:0000628c       $SG26238                   000000018007228c     c12_SpeedgoatCANOpen2Buses1ms.obj
 0003:00006294       $SG26240                   0000000180072294     c12_SpeedgoatCANOpen2Buses1ms.obj
 0003:000062a0       $SG26242                   00000001800722a0     c12_SpeedgoatCANOpen2Buses1ms.obj
 0003:000062b4       $SG26243                   00000001800722b4     c12_SpeedgoatCANOpen2Buses1ms.obj
 0003:000062bc       $SG26244                   00000001800722bc     c12_SpeedgoatCANOpen2Buses1ms.obj
 0003:000062c8       $SG26245                   00000001800722c8     c12_SpeedgoatCANOpen2Buses1ms.obj
 0003:000062dc       $SG26246                   00000001800722dc     c12_SpeedgoatCANOpen2Buses1ms.obj
 0003:000062e8       $SG26247                   00000001800722e8     c12_SpeedgoatCANOpen2Buses1ms.obj
 0003:000062f4       $SG26248                   00000001800722f4     c12_SpeedgoatCANOpen2Buses1ms.obj
 0003:000062fc       $SG26250                   00000001800722fc     c12_SpeedgoatCANOpen2Buses1ms.obj
 0003:00006304       $SG26252                   0000000180072304     c12_SpeedgoatCANOpen2Buses1ms.obj
 0003:00006310       $SG26254                   0000000180072310     c12_SpeedgoatCANOpen2Buses1ms.obj
 0003:00006324       $SG26255                   0000000180072324     c12_SpeedgoatCANOpen2Buses1ms.obj
 0003:0000632c       $SG26256                   000000018007232c     c12_SpeedgoatCANOpen2Buses1ms.obj
 0003:00006338       $SG26257                   0000000180072338     c12_SpeedgoatCANOpen2Buses1ms.obj
 0003:0000634c       $SG26258                   000000018007234c     c12_SpeedgoatCANOpen2Buses1ms.obj
 0003:00006358       $SG26259                   0000000180072358     c12_SpeedgoatCANOpen2Buses1ms.obj
 0003:00006364       $SG26260                   0000000180072364     c12_SpeedgoatCANOpen2Buses1ms.obj
 0003:0000636c       $SG26262                   000000018007236c     c12_SpeedgoatCANOpen2Buses1ms.obj
 0003:00006374       $SG26264                   0000000180072374     c12_SpeedgoatCANOpen2Buses1ms.obj
 0003:00006380       $SG26266                   0000000180072380     c12_SpeedgoatCANOpen2Buses1ms.obj
 0003:00006394       $SG26267                   0000000180072394     c12_SpeedgoatCANOpen2Buses1ms.obj
 0003:0000639c       $SG26268                   000000018007239c     c12_SpeedgoatCANOpen2Buses1ms.obj
 0003:000063a8       $SG26269                   00000001800723a8     c12_SpeedgoatCANOpen2Buses1ms.obj
 0003:000063bc       $SG26270                   00000001800723bc     c12_SpeedgoatCANOpen2Buses1ms.obj
 0003:000063c8       $SG26271                   00000001800723c8     c12_SpeedgoatCANOpen2Buses1ms.obj
 0003:000063d4       $SG26272                   00000001800723d4     c12_SpeedgoatCANOpen2Buses1ms.obj
 0003:000063dc       $SG26274                   00000001800723dc     c12_SpeedgoatCANOpen2Buses1ms.obj
 0003:000063e4       $SG26276                   00000001800723e4     c12_SpeedgoatCANOpen2Buses1ms.obj
 0003:000063f0       $SG26278                   00000001800723f0     c12_SpeedgoatCANOpen2Buses1ms.obj
 0003:00006404       $SG26279                   0000000180072404     c12_SpeedgoatCANOpen2Buses1ms.obj
 0003:0000640c       $SG26280                   000000018007240c     c12_SpeedgoatCANOpen2Buses1ms.obj
 0003:00006418       $SG26281                   0000000180072418     c12_SpeedgoatCANOpen2Buses1ms.obj
 0003:0000642c       $SG26282                   000000018007242c     c12_SpeedgoatCANOpen2Buses1ms.obj
 0003:00006438       $SG26283                   0000000180072438     c12_SpeedgoatCANOpen2Buses1ms.obj
 0003:00006448       $SG26284                   0000000180072448     c12_SpeedgoatCANOpen2Buses1ms.obj
 0003:00006450       $SG26286                   0000000180072450     c12_SpeedgoatCANOpen2Buses1ms.obj
 0003:00006458       $SG26288                   0000000180072458     c12_SpeedgoatCANOpen2Buses1ms.obj
 0003:00006460       $SG26290                   0000000180072460     c12_SpeedgoatCANOpen2Buses1ms.obj
 0003:0000646c       $SG26291                   000000018007246c     c12_SpeedgoatCANOpen2Buses1ms.obj
 0003:00006474       $SG26293                   0000000180072474     c12_SpeedgoatCANOpen2Buses1ms.obj
 0003:0000647c       $SG26295                   000000018007247c     c12_SpeedgoatCANOpen2Buses1ms.obj
 0003:00006488       $SG26297                   0000000180072488     c12_SpeedgoatCANOpen2Buses1ms.obj
 0003:0000649c       $SG26298                   000000018007249c     c12_SpeedgoatCANOpen2Buses1ms.obj
 0003:000064a4       $SG26299                   00000001800724a4     c12_SpeedgoatCANOpen2Buses1ms.obj
 0003:000064b0       $SG26300                   00000001800724b0     c12_SpeedgoatCANOpen2Buses1ms.obj
 0003:000064c4       $SG26301                   00000001800724c4     c12_SpeedgoatCANOpen2Buses1ms.obj
 0003:000064d0       $SG26302                   00000001800724d0     c12_SpeedgoatCANOpen2Buses1ms.obj
 0003:000064dc       $SG26303                   00000001800724dc     c12_SpeedgoatCANOpen2Buses1ms.obj
 0003:000064e4       $SG26305                   00000001800724e4     c12_SpeedgoatCANOpen2Buses1ms.obj
 0003:000064ec       $SG26307                   00000001800724ec     c12_SpeedgoatCANOpen2Buses1ms.obj
 0003:000064f8       $SG26309                   00000001800724f8     c12_SpeedgoatCANOpen2Buses1ms.obj
 0003:0000650c       $SG26310                   000000018007250c     c12_SpeedgoatCANOpen2Buses1ms.obj
 0003:00006514       $SG26311                   0000000180072514     c12_SpeedgoatCANOpen2Buses1ms.obj
 0003:00006520       $SG26312                   0000000180072520     c12_SpeedgoatCANOpen2Buses1ms.obj
 0003:00006534       $SG26313                   0000000180072534     c12_SpeedgoatCANOpen2Buses1ms.obj
 0003:00006540       $SG26314                   0000000180072540     c12_SpeedgoatCANOpen2Buses1ms.obj
 0003:0000654c       $SG26315                   000000018007254c     c12_SpeedgoatCANOpen2Buses1ms.obj
 0003:00006558       $SG26316                   0000000180072558     c12_SpeedgoatCANOpen2Buses1ms.obj
 0003:00006568       $SG26332                   0000000180072568     c12_SpeedgoatCANOpen2Buses1ms.obj
 0003:00006578       $SG26334                   0000000180072578     c12_SpeedgoatCANOpen2Buses1ms.obj
 0003:00006588       $SG26336                   0000000180072588     c12_SpeedgoatCANOpen2Buses1ms.obj
 0003:000065a0       $SG26338                   00000001800725a0     c12_SpeedgoatCANOpen2Buses1ms.obj
 0003:000065b8       $SG26340                   00000001800725b8     c12_SpeedgoatCANOpen2Buses1ms.obj
 0003:000065cc       $SG26341                   00000001800725cc     c12_SpeedgoatCANOpen2Buses1ms.obj
 0003:000065d8       $SG26342                   00000001800725d8     c12_SpeedgoatCANOpen2Buses1ms.obj
 0003:000065e8       $SG26359                   00000001800725e8     c12_SpeedgoatCANOpen2Buses1ms.obj
 0003:00006610       $SG26361                   0000000180072610     c12_SpeedgoatCANOpen2Buses1ms.obj
 0003:00006630       $SG26363                   0000000180072630     c12_SpeedgoatCANOpen2Buses1ms.obj
 0003:00006658       $SG26364                   0000000180072658     c12_SpeedgoatCANOpen2Buses1ms.obj
 0003:00006678       $SG26374                   0000000180072678     c12_SpeedgoatCANOpen2Buses1ms.obj
 0003:00006688       $SG26376                   0000000180072688     c12_SpeedgoatCANOpen2Buses1ms.obj
 0003:00006690       $SG26378                   0000000180072690     c12_SpeedgoatCANOpen2Buses1ms.obj
 0003:00006800       ?condStart@?L@??chart_debug_initialization@@9@9 0000000180072800     c12_SpeedgoatCANOpen2Buses1ms.obj
 0003:00006808       ?condEnd@?L@??chart_debug_initialization@@9@9 0000000180072808     c12_SpeedgoatCANOpen2Buses1ms.obj
 0003:00006810       ?pfixExpr@?L@??chart_debug_initialization@@9@9 0000000180072810     c12_SpeedgoatCANOpen2Buses1ms.obj
 0003:00006820       ?condStart@?M@??chart_debug_initialization@@9@9 0000000180072820     c12_SpeedgoatCANOpen2Buses1ms.obj
 0003:00006828       ?condEnd@?M@??chart_debug_initialization@@9@9 0000000180072828     c12_SpeedgoatCANOpen2Buses1ms.obj
 0003:00006830       ?pfixExpr@?M@??chart_debug_initialization@@9@9 0000000180072830     c12_SpeedgoatCANOpen2Buses1ms.obj
 0003:0000683c       $SG26475                   000000018007283c     c12_SpeedgoatCANOpen2Buses1ms.obj
 0003:00006848       $SG26476                   0000000180072848     c12_SpeedgoatCANOpen2Buses1ms.obj
 0003:00006858       $SG26477                   0000000180072858     c12_SpeedgoatCANOpen2Buses1ms.obj
 0003:00006868       $SG26478                   0000000180072868     c12_SpeedgoatCANOpen2Buses1ms.obj
 0003:00006878       $SG26479                   0000000180072878     c12_SpeedgoatCANOpen2Buses1ms.obj
 0003:00006888       $SG26480                   0000000180072888     c12_SpeedgoatCANOpen2Buses1ms.obj
 0003:00006898       $SG26481                   0000000180072898     c12_SpeedgoatCANOpen2Buses1ms.obj
 0003:000068a8       $SG26482                   00000001800728a8     c12_SpeedgoatCANOpen2Buses1ms.obj
 0003:000068b8       $SG26511                   00000001800728b8     c12_SpeedgoatCANOpen2Buses1ms.obj
 0003:000068d0       $SG26527                   00000001800728d0     c12_SpeedgoatCANOpen2Buses1ms.obj
 0003:000068e0       $SG26531                   00000001800728e0     c12_SpeedgoatCANOpen2Buses1ms.obj
 0003:00006b60       $SG26616                   0000000180072b60     c12_SpeedgoatCANOpen2Buses1ms.obj
 0003:00006cc8       ?checksum@?1??sf_get_sfun_dwork_checksum@@9@9 0000000180072cc8     c12_SpeedgoatCANOpen2Buses1ms.obj
 0003:00006cd8       $SG26658                   0000000180072cd8     c12_SpeedgoatCANOpen2Buses1ms.obj
 0003:00006d00       $SG26666                   0000000180072d00     c12_SpeedgoatCANOpen2Buses1ms.obj
 0003:00006d10       $SG26667                   0000000180072d10     c12_SpeedgoatCANOpen2Buses1ms.obj
 0003:00006d28       $SG26690                   0000000180072d28     c12_SpeedgoatCANOpen2Buses1ms.obj
 0003:00006d60       $SG26705                   0000000180072d60     c12_SpeedgoatCANOpen2Buses1ms.obj
 0003:00006de0       $SG25208                   0000000180072de0     c13_SpeedgoatCANOpen2Buses1ms.obj
 0003:00006de8       $SG25209                   0000000180072de8     c13_SpeedgoatCANOpen2Buses1ms.obj
 0003:00006df0       $SG25211                   0000000180072df0     c13_SpeedgoatCANOpen2Buses1ms.obj
 0003:00006df8       $SG25212                   0000000180072df8     c13_SpeedgoatCANOpen2Buses1ms.obj
 0003:00006e00       $SG25214                   0000000180072e00     c13_SpeedgoatCANOpen2Buses1ms.obj
 0003:00006e08       $SG25215                   0000000180072e08     c13_SpeedgoatCANOpen2Buses1ms.obj
 0003:00006e10       $SG25216                   0000000180072e10     c13_SpeedgoatCANOpen2Buses1ms.obj
 0003:00006e2c       $SG25218                   0000000180072e2c     c13_SpeedgoatCANOpen2Buses1ms.obj
 0003:00006e38       $SG25219                   0000000180072e38     c13_SpeedgoatCANOpen2Buses1ms.obj
 0003:00006e40       $SG25220                   0000000180072e40     c13_SpeedgoatCANOpen2Buses1ms.obj
 0003:00006e5c       $SG25492                   0000000180072e5c     c13_SpeedgoatCANOpen2Buses1ms.obj
 0003:00006e60       c13_debug_family_names     0000000180072e60     c13_SpeedgoatCANOpen2Buses1ms.obj
 0003:00006e70       c13_b_debug_family_names   0000000180072e70     c13_SpeedgoatCANOpen2Buses1ms.obj
 0003:00006e80       c13_c_debug_family_names   0000000180072e80     c13_SpeedgoatCANOpen2Buses1ms.obj
 0003:00006e98       c13_d_debug_family_names   0000000180072e98     c13_SpeedgoatCANOpen2Buses1ms.obj
 0003:00006eb0       $SG25493                   0000000180072eb0     c13_SpeedgoatCANOpen2Buses1ms.obj
 0003:00006eb4       $SG25494                   0000000180072eb4     c13_SpeedgoatCANOpen2Buses1ms.obj
 0003:00006eb8       $SG25495                   0000000180072eb8     c13_SpeedgoatCANOpen2Buses1ms.obj
 0003:00006ebc       $SG25496                   0000000180072ebc     c13_SpeedgoatCANOpen2Buses1ms.obj
 0003:00006ec0       $SG25497                   0000000180072ec0     c13_SpeedgoatCANOpen2Buses1ms.obj
 0003:00006ec4       $SG25498                   0000000180072ec4     c13_SpeedgoatCANOpen2Buses1ms.obj
 0003:00006ec8       $SG25510                   0000000180072ec8     c13_SpeedgoatCANOpen2Buses1ms.obj
 0003:00006ed4       $SG25653                   0000000180072ed4     c13_SpeedgoatCANOpen2Buses1ms.obj
 0003:00006ed8       $SG25511                   0000000180072ed8     c13_SpeedgoatCANOpen2Buses1ms.obj
 0003:00006ef0       $SG25512                   0000000180072ef0     c13_SpeedgoatCANOpen2Buses1ms.obj
 0003:00006f00       $SG25513                   0000000180072f00     c13_SpeedgoatCANOpen2Buses1ms.obj
 0003:00006f10       $SG25514                   0000000180072f10     c13_SpeedgoatCANOpen2Buses1ms.obj
 0003:00006f38       $SG25515                   0000000180072f38     c13_SpeedgoatCANOpen2Buses1ms.obj
 0003:00006f5c       $SG25708                   0000000180072f5c     c13_SpeedgoatCANOpen2Buses1ms.obj
 0003:00006f60       $SG25516                   0000000180072f60     c13_SpeedgoatCANOpen2Buses1ms.obj
 0003:00006f74       $SG25803                   0000000180072f74     c13_SpeedgoatCANOpen2Buses1ms.obj
 0003:00006f78       $SG25517                   0000000180072f78     c13_SpeedgoatCANOpen2Buses1ms.obj
 0003:00006f94       $SG25858                   0000000180072f94     c13_SpeedgoatCANOpen2Buses1ms.obj
 0003:00006f98       $SG25743                   0000000180072f98     c13_SpeedgoatCANOpen2Buses1ms.obj
 0003:00006fa8       $SG26008                   0000000180072fa8     c13_SpeedgoatCANOpen2Buses1ms.obj
 0003:00006fb4       $SG26010                   0000000180072fb4     c13_SpeedgoatCANOpen2Buses1ms.obj
 0003:00006fc0       $SG26012                   0000000180072fc0     c13_SpeedgoatCANOpen2Buses1ms.obj
 0003:00006fd0       $SG26014                   0000000180072fd0     c13_SpeedgoatCANOpen2Buses1ms.obj
 0003:00006fd8       $SG26016                   0000000180072fd8     c13_SpeedgoatCANOpen2Buses1ms.obj
 0003:00006fe0       $SG26018                   0000000180072fe0     c13_SpeedgoatCANOpen2Buses1ms.obj
 0003:00006ff0       $SG26019                   0000000180072ff0     c13_SpeedgoatCANOpen2Buses1ms.obj
 0003:00007008       $SG26020                   0000000180073008     c13_SpeedgoatCANOpen2Buses1ms.obj
 0003:00007014       $SG26022                   0000000180073014     c13_SpeedgoatCANOpen2Buses1ms.obj
 0003:0000701c       $SG26024                   000000018007301c     c13_SpeedgoatCANOpen2Buses1ms.obj
 0003:00007028       $SG26026                   0000000180073028     c13_SpeedgoatCANOpen2Buses1ms.obj
 0003:00007034       $SG26027                   0000000180073034     c13_SpeedgoatCANOpen2Buses1ms.obj
 0003:0000703c       $SG26029                   000000018007303c     c13_SpeedgoatCANOpen2Buses1ms.obj
 0003:00007044       $SG26031                   0000000180073044     c13_SpeedgoatCANOpen2Buses1ms.obj
 0003:00007050       $SG26033                   0000000180073050     c13_SpeedgoatCANOpen2Buses1ms.obj
 0003:00007064       $SG26034                   0000000180073064     c13_SpeedgoatCANOpen2Buses1ms.obj
 0003:0000706c       $SG26035                   000000018007306c     c13_SpeedgoatCANOpen2Buses1ms.obj
 0003:00007078       $SG26036                   0000000180073078     c13_SpeedgoatCANOpen2Buses1ms.obj
 0003:0000708c       $SG26037                   000000018007308c     c13_SpeedgoatCANOpen2Buses1ms.obj
 0003:00007098       $SG26038                   0000000180073098     c13_SpeedgoatCANOpen2Buses1ms.obj
 0003:000070a4       $SG26039                   00000001800730a4     c13_SpeedgoatCANOpen2Buses1ms.obj
 0003:000070ac       $SG26041                   00000001800730ac     c13_SpeedgoatCANOpen2Buses1ms.obj
 0003:000070b4       $SG26043                   00000001800730b4     c13_SpeedgoatCANOpen2Buses1ms.obj
 0003:000070c0       $SG26045                   00000001800730c0     c13_SpeedgoatCANOpen2Buses1ms.obj
 0003:000070d4       $SG26046                   00000001800730d4     c13_SpeedgoatCANOpen2Buses1ms.obj
 0003:000070dc       $SG26047                   00000001800730dc     c13_SpeedgoatCANOpen2Buses1ms.obj
 0003:000070e8       $SG26048                   00000001800730e8     c13_SpeedgoatCANOpen2Buses1ms.obj
 0003:000070fc       $SG26049                   00000001800730fc     c13_SpeedgoatCANOpen2Buses1ms.obj
 0003:00007108       $SG26050                   0000000180073108     c13_SpeedgoatCANOpen2Buses1ms.obj
 0003:00007114       $SG26051                   0000000180073114     c13_SpeedgoatCANOpen2Buses1ms.obj
 0003:0000711c       $SG26053                   000000018007311c     c13_SpeedgoatCANOpen2Buses1ms.obj
 0003:00007124       $SG26055                   0000000180073124     c13_SpeedgoatCANOpen2Buses1ms.obj
 0003:00007130       $SG26057                   0000000180073130     c13_SpeedgoatCANOpen2Buses1ms.obj
 0003:00007144       $SG26058                   0000000180073144     c13_SpeedgoatCANOpen2Buses1ms.obj
 0003:0000714c       $SG26059                   000000018007314c     c13_SpeedgoatCANOpen2Buses1ms.obj
 0003:00007158       $SG26060                   0000000180073158     c13_SpeedgoatCANOpen2Buses1ms.obj
 0003:0000716c       $SG26061                   000000018007316c     c13_SpeedgoatCANOpen2Buses1ms.obj
 0003:00007178       $SG26062                   0000000180073178     c13_SpeedgoatCANOpen2Buses1ms.obj
 0003:00007184       $SG26063                   0000000180073184     c13_SpeedgoatCANOpen2Buses1ms.obj
 0003:0000718c       $SG26065                   000000018007318c     c13_SpeedgoatCANOpen2Buses1ms.obj
 0003:00007194       $SG26067                   0000000180073194     c13_SpeedgoatCANOpen2Buses1ms.obj
 0003:000071a0       $SG26069                   00000001800731a0     c13_SpeedgoatCANOpen2Buses1ms.obj
 0003:000071b4       $SG26070                   00000001800731b4     c13_SpeedgoatCANOpen2Buses1ms.obj
 0003:000071bc       $SG26071                   00000001800731bc     c13_SpeedgoatCANOpen2Buses1ms.obj
 0003:000071c8       $SG26072                   00000001800731c8     c13_SpeedgoatCANOpen2Buses1ms.obj
 0003:000071dc       $SG26073                   00000001800731dc     c13_SpeedgoatCANOpen2Buses1ms.obj
 0003:000071e8       $SG26074                   00000001800731e8     c13_SpeedgoatCANOpen2Buses1ms.obj
 0003:000071f4       $SG26075                   00000001800731f4     c13_SpeedgoatCANOpen2Buses1ms.obj
 0003:000071fc       $SG26077                   00000001800731fc     c13_SpeedgoatCANOpen2Buses1ms.obj
 0003:00007204       $SG26079                   0000000180073204     c13_SpeedgoatCANOpen2Buses1ms.obj
 0003:00007210       $SG26081                   0000000180073210     c13_SpeedgoatCANOpen2Buses1ms.obj
 0003:00007224       $SG26082                   0000000180073224     c13_SpeedgoatCANOpen2Buses1ms.obj
 0003:0000722c       $SG26083                   000000018007322c     c13_SpeedgoatCANOpen2Buses1ms.obj
 0003:00007238       $SG26084                   0000000180073238     c13_SpeedgoatCANOpen2Buses1ms.obj
 0003:0000724c       $SG26085                   000000018007324c     c13_SpeedgoatCANOpen2Buses1ms.obj
 0003:00007258       $SG26086                   0000000180073258     c13_SpeedgoatCANOpen2Buses1ms.obj
 0003:00007264       $SG26087                   0000000180073264     c13_SpeedgoatCANOpen2Buses1ms.obj
 0003:00007270       $SG26088                   0000000180073270     c13_SpeedgoatCANOpen2Buses1ms.obj
 0003:0000727c       $SG26090                   000000018007327c     c13_SpeedgoatCANOpen2Buses1ms.obj
 0003:00007284       $SG26092                   0000000180073284     c13_SpeedgoatCANOpen2Buses1ms.obj
 0003:00007290       $SG26094                   0000000180073290     c13_SpeedgoatCANOpen2Buses1ms.obj
 0003:0000729c       $SG26095                   000000018007329c     c13_SpeedgoatCANOpen2Buses1ms.obj
 0003:000072a4       $SG26097                   00000001800732a4     c13_SpeedgoatCANOpen2Buses1ms.obj
 0003:000072ac       $SG26099                   00000001800732ac     c13_SpeedgoatCANOpen2Buses1ms.obj
 0003:000072b8       $SG26101                   00000001800732b8     c13_SpeedgoatCANOpen2Buses1ms.obj
 0003:000072cc       $SG26102                   00000001800732cc     c13_SpeedgoatCANOpen2Buses1ms.obj
 0003:000072d4       $SG26103                   00000001800732d4     c13_SpeedgoatCANOpen2Buses1ms.obj
 0003:000072e0       $SG26104                   00000001800732e0     c13_SpeedgoatCANOpen2Buses1ms.obj
 0003:000072f4       $SG26105                   00000001800732f4     c13_SpeedgoatCANOpen2Buses1ms.obj
 0003:00007300       $SG26106                   0000000180073300     c13_SpeedgoatCANOpen2Buses1ms.obj
 0003:0000730c       $SG26107                   000000018007330c     c13_SpeedgoatCANOpen2Buses1ms.obj
 0003:00007314       $SG26109                   0000000180073314     c13_SpeedgoatCANOpen2Buses1ms.obj
 0003:0000731c       $SG26111                   000000018007331c     c13_SpeedgoatCANOpen2Buses1ms.obj
 0003:00007328       $SG26113                   0000000180073328     c13_SpeedgoatCANOpen2Buses1ms.obj
 0003:0000733c       $SG26114                   000000018007333c     c13_SpeedgoatCANOpen2Buses1ms.obj
 0003:00007344       $SG26115                   0000000180073344     c13_SpeedgoatCANOpen2Buses1ms.obj
 0003:00007350       $SG26116                   0000000180073350     c13_SpeedgoatCANOpen2Buses1ms.obj
 0003:00007364       $SG26117                   0000000180073364     c13_SpeedgoatCANOpen2Buses1ms.obj
 0003:00007370       $SG26118                   0000000180073370     c13_SpeedgoatCANOpen2Buses1ms.obj
 0003:00007380       $SG26119                   0000000180073380     c13_SpeedgoatCANOpen2Buses1ms.obj
 0003:00007388       $SG26121                   0000000180073388     c13_SpeedgoatCANOpen2Buses1ms.obj
 0003:00007390       $SG26123                   0000000180073390     c13_SpeedgoatCANOpen2Buses1ms.obj
 0003:00007398       $SG26125                   0000000180073398     c13_SpeedgoatCANOpen2Buses1ms.obj
 0003:000073a4       $SG26126                   00000001800733a4     c13_SpeedgoatCANOpen2Buses1ms.obj
 0003:000073ac       $SG26128                   00000001800733ac     c13_SpeedgoatCANOpen2Buses1ms.obj
 0003:000073b4       $SG26130                   00000001800733b4     c13_SpeedgoatCANOpen2Buses1ms.obj
 0003:000073c0       $SG26132                   00000001800733c0     c13_SpeedgoatCANOpen2Buses1ms.obj
 0003:000073d4       $SG26133                   00000001800733d4     c13_SpeedgoatCANOpen2Buses1ms.obj
 0003:000073dc       $SG26134                   00000001800733dc     c13_SpeedgoatCANOpen2Buses1ms.obj
 0003:000073e8       $SG26135                   00000001800733e8     c13_SpeedgoatCANOpen2Buses1ms.obj
 0003:000073fc       $SG26136                   00000001800733fc     c13_SpeedgoatCANOpen2Buses1ms.obj
 0003:00007408       $SG26137                   0000000180073408     c13_SpeedgoatCANOpen2Buses1ms.obj
 0003:00007414       $SG26138                   0000000180073414     c13_SpeedgoatCANOpen2Buses1ms.obj
 0003:0000741c       $SG26140                   000000018007341c     c13_SpeedgoatCANOpen2Buses1ms.obj
 0003:00007424       $SG26142                   0000000180073424     c13_SpeedgoatCANOpen2Buses1ms.obj
 0003:00007430       $SG26144                   0000000180073430     c13_SpeedgoatCANOpen2Buses1ms.obj
 0003:00007444       $SG26145                   0000000180073444     c13_SpeedgoatCANOpen2Buses1ms.obj
 0003:0000744c       $SG26146                   000000018007344c     c13_SpeedgoatCANOpen2Buses1ms.obj
 0003:00007458       $SG26147                   0000000180073458     c13_SpeedgoatCANOpen2Buses1ms.obj
 0003:0000746c       $SG26148                   000000018007346c     c13_SpeedgoatCANOpen2Buses1ms.obj
 0003:00007478       $SG26149                   0000000180073478     c13_SpeedgoatCANOpen2Buses1ms.obj
 0003:00007484       $SG26150                   0000000180073484     c13_SpeedgoatCANOpen2Buses1ms.obj
 0003:00007490       $SG26151                   0000000180073490     c13_SpeedgoatCANOpen2Buses1ms.obj
 0003:000074a0       $SG26167                   00000001800734a0     c13_SpeedgoatCANOpen2Buses1ms.obj
 0003:000074b0       $SG26169                   00000001800734b0     c13_SpeedgoatCANOpen2Buses1ms.obj
 0003:000074c0       $SG26171                   00000001800734c0     c13_SpeedgoatCANOpen2Buses1ms.obj
 0003:000074d8       $SG26173                   00000001800734d8     c13_SpeedgoatCANOpen2Buses1ms.obj
 0003:000074f0       $SG26175                   00000001800734f0     c13_SpeedgoatCANOpen2Buses1ms.obj
 0003:00007504       $SG26176                   0000000180073504     c13_SpeedgoatCANOpen2Buses1ms.obj
 0003:00007510       $SG26177                   0000000180073510     c13_SpeedgoatCANOpen2Buses1ms.obj
 0003:00007520       $SG26194                   0000000180073520     c13_SpeedgoatCANOpen2Buses1ms.obj
 0003:00007548       $SG26196                   0000000180073548     c13_SpeedgoatCANOpen2Buses1ms.obj
 0003:00007568       $SG26198                   0000000180073568     c13_SpeedgoatCANOpen2Buses1ms.obj
 0003:00007590       $SG26199                   0000000180073590     c13_SpeedgoatCANOpen2Buses1ms.obj
 0003:000075b0       $SG26209                   00000001800735b0     c13_SpeedgoatCANOpen2Buses1ms.obj
 0003:000075c0       $SG26211                   00000001800735c0     c13_SpeedgoatCANOpen2Buses1ms.obj
 0003:000075c8       ?condStart@?8??chart_debug_initialization@@9@9 00000001800735c8     c13_SpeedgoatCANOpen2Buses1ms.obj
 0003:000075d0       $SG26213                   00000001800735d0     c13_SpeedgoatCANOpen2Buses1ms.obj
 0003:00007710       ?condEnd@?8??chart_debug_initialization@@9@9 0000000180073710     c13_SpeedgoatCANOpen2Buses1ms.obj
 0003:00007718       ?pfixExpr@?8??chart_debug_initialization@@9@9 0000000180073718     c13_SpeedgoatCANOpen2Buses1ms.obj
 0003:00007728       ?condStart@?9??chart_debug_initialization@@9@9 0000000180073728     c13_SpeedgoatCANOpen2Buses1ms.obj
 0003:00007730       ?condEnd@?9??chart_debug_initialization@@9@9 0000000180073730     c13_SpeedgoatCANOpen2Buses1ms.obj
 0003:00007738       ?pfixExpr@?9??chart_debug_initialization@@9@9 0000000180073738     c13_SpeedgoatCANOpen2Buses1ms.obj
 0003:00007748       $SG26290                   0000000180073748     c13_SpeedgoatCANOpen2Buses1ms.obj
 0003:00007758       $SG26291                   0000000180073758     c13_SpeedgoatCANOpen2Buses1ms.obj
 0003:00007768       $SG26292                   0000000180073768     c13_SpeedgoatCANOpen2Buses1ms.obj
 0003:00007788       $SG26293                   0000000180073788     c13_SpeedgoatCANOpen2Buses1ms.obj
 0003:00007798       $SG26294                   0000000180073798     c13_SpeedgoatCANOpen2Buses1ms.obj
 0003:000077a8       $SG26295                   00000001800737a8     c13_SpeedgoatCANOpen2Buses1ms.obj
 0003:000077b8       $SG26296                   00000001800737b8     c13_SpeedgoatCANOpen2Buses1ms.obj
 0003:000077c8       $SG26297                   00000001800737c8     c13_SpeedgoatCANOpen2Buses1ms.obj
 0003:000077e0       $SG26298                   00000001800737e0     c13_SpeedgoatCANOpen2Buses1ms.obj
 0003:000077f0       $SG26327                   00000001800737f0     c13_SpeedgoatCANOpen2Buses1ms.obj
 0003:00007808       $SG26343                   0000000180073808     c13_SpeedgoatCANOpen2Buses1ms.obj
 0003:00007818       ?checksum@?1??sf_get_sfun_dwork_checksum@@9@9 0000000180073818     c13_SpeedgoatCANOpen2Buses1ms.obj
 0003:00007828       $SG26474                   0000000180073828     c13_SpeedgoatCANOpen2Buses1ms.obj
 0003:00007850       $SG26347                   0000000180073850     c13_SpeedgoatCANOpen2Buses1ms.obj
 0003:00007ad0       $SG26432                   0000000180073ad0     c13_SpeedgoatCANOpen2Buses1ms.obj
 0003:00007c38       $SG26482                   0000000180073c38     c13_SpeedgoatCANOpen2Buses1ms.obj
 0003:00007c48       $SG26483                   0000000180073c48     c13_SpeedgoatCANOpen2Buses1ms.obj
 0003:00007c60       $SG26506                   0000000180073c60     c13_SpeedgoatCANOpen2Buses1ms.obj
 0003:00007c90       $SG26521                   0000000180073c90     c13_SpeedgoatCANOpen2Buses1ms.obj
 0003:00007d10       $SG25204                   0000000180073d10     c14_SpeedgoatCANOpen2Buses1ms.obj
 0003:00007d18       $SG25205                   0000000180073d18     c14_SpeedgoatCANOpen2Buses1ms.obj
 0003:00007d20       $SG25207                   0000000180073d20     c14_SpeedgoatCANOpen2Buses1ms.obj
 0003:00007d28       $SG25208                   0000000180073d28     c14_SpeedgoatCANOpen2Buses1ms.obj
 0003:00007d30       $SG25210                   0000000180073d30     c14_SpeedgoatCANOpen2Buses1ms.obj
 0003:00007d38       $SG25211                   0000000180073d38     c14_SpeedgoatCANOpen2Buses1ms.obj
 0003:00007d40       $SG25213                   0000000180073d40     c14_SpeedgoatCANOpen2Buses1ms.obj
 0003:00007d48       $SG25214                   0000000180073d48     c14_SpeedgoatCANOpen2Buses1ms.obj
 0003:00007d50       $SG25216                   0000000180073d50     c14_SpeedgoatCANOpen2Buses1ms.obj
 0003:00007d58       $SG25217                   0000000180073d58     c14_SpeedgoatCANOpen2Buses1ms.obj
 0003:00007d60       $SG25219                   0000000180073d60     c14_SpeedgoatCANOpen2Buses1ms.obj
 0003:00007d68       $SG25220                   0000000180073d68     c14_SpeedgoatCANOpen2Buses1ms.obj
 0003:00007d70       $SG25221                   0000000180073d70     c14_SpeedgoatCANOpen2Buses1ms.obj
 0003:00007d8c       $SG25223                   0000000180073d8c     c14_SpeedgoatCANOpen2Buses1ms.obj
 0003:00007d98       $SG25224                   0000000180073d98     c14_SpeedgoatCANOpen2Buses1ms.obj
 0003:00007da0       $SG25225                   0000000180073da0     c14_SpeedgoatCANOpen2Buses1ms.obj
 0003:00007dbc       $SG25227                   0000000180073dbc     c14_SpeedgoatCANOpen2Buses1ms.obj
 0003:00007dc8       $SG25228                   0000000180073dc8     c14_SpeedgoatCANOpen2Buses1ms.obj
 0003:00007dd0       $SG25229                   0000000180073dd0     c14_SpeedgoatCANOpen2Buses1ms.obj
 0003:00007dec       $SG25231                   0000000180073dec     c14_SpeedgoatCANOpen2Buses1ms.obj
 0003:00007df8       $SG25232                   0000000180073df8     c14_SpeedgoatCANOpen2Buses1ms.obj
 0003:00007e00       $SG25233                   0000000180073e00     c14_SpeedgoatCANOpen2Buses1ms.obj
 0003:00007e1c       $SG25487                   0000000180073e1c     c14_SpeedgoatCANOpen2Buses1ms.obj
 0003:00007e20       c14_debug_family_names     0000000180073e20     c14_SpeedgoatCANOpen2Buses1ms.obj
 0003:00007e30       c14_b_debug_family_names   0000000180073e30     c14_SpeedgoatCANOpen2Buses1ms.obj
 0003:00007e40       c14_c_debug_family_names   0000000180073e40     c14_SpeedgoatCANOpen2Buses1ms.obj
 0003:00007e50       c14_d_debug_family_names   0000000180073e50     c14_SpeedgoatCANOpen2Buses1ms.obj
 0003:00007e60       c14_e_debug_family_names   0000000180073e60     c14_SpeedgoatCANOpen2Buses1ms.obj
 0003:00007e70       c14_f_debug_family_names   0000000180073e70     c14_SpeedgoatCANOpen2Buses1ms.obj
 0003:00007e88       c14_g_debug_family_names   0000000180073e88     c14_SpeedgoatCANOpen2Buses1ms.obj
 0003:00007ea0       c14_h_debug_family_names   0000000180073ea0     c14_SpeedgoatCANOpen2Buses1ms.obj
 0003:00007eb8       c14_i_debug_family_names   0000000180073eb8     c14_SpeedgoatCANOpen2Buses1ms.obj
 0003:00007ed0       $SG25488                   0000000180073ed0     c14_SpeedgoatCANOpen2Buses1ms.obj
 0003:00007ed4       $SG25489                   0000000180073ed4     c14_SpeedgoatCANOpen2Buses1ms.obj
 0003:00007ed8       $SG25490                   0000000180073ed8     c14_SpeedgoatCANOpen2Buses1ms.obj
 0003:00007edc       $SG25491                   0000000180073edc     c14_SpeedgoatCANOpen2Buses1ms.obj
 0003:00007ee0       $SG25492                   0000000180073ee0     c14_SpeedgoatCANOpen2Buses1ms.obj
 0003:00007ee4       $SG25504                   0000000180073ee4     c14_SpeedgoatCANOpen2Buses1ms.obj
 0003:00007eec       $SG25505                   0000000180073eec     c14_SpeedgoatCANOpen2Buses1ms.obj
 0003:00007ef4       $SG25714                   0000000180073ef4     c14_SpeedgoatCANOpen2Buses1ms.obj
 0003:00007ef8       $SG25506                   0000000180073ef8     c14_SpeedgoatCANOpen2Buses1ms.obj
 0003:00007f20       $SG25507                   0000000180073f20     c14_SpeedgoatCANOpen2Buses1ms.obj
 0003:00007f44       $SG25769                   0000000180073f44     c14_SpeedgoatCANOpen2Buses1ms.obj
 0003:00007f48       $SG25508                   0000000180073f48     c14_SpeedgoatCANOpen2Buses1ms.obj
 0003:00007f60       $SG25509                   0000000180073f60     c14_SpeedgoatCANOpen2Buses1ms.obj
 0003:00007f78       $SG25510                   0000000180073f78     c14_SpeedgoatCANOpen2Buses1ms.obj
 0003:00007f98       $SG25517                   0000000180073f98     c14_SpeedgoatCANOpen2Buses1ms.obj
 0003:00007fb8       $SG25804                   0000000180073fb8     c14_SpeedgoatCANOpen2Buses1ms.obj
 0003:00007fc8       $SG25993                   0000000180073fc8     c14_SpeedgoatCANOpen2Buses1ms.obj
 0003:00007fd4       $SG25995                   0000000180073fd4     c14_SpeedgoatCANOpen2Buses1ms.obj
 0003:00007fe0       $SG25997                   0000000180073fe0     c14_SpeedgoatCANOpen2Buses1ms.obj
 0003:00007ff0       $SG25999                   0000000180073ff0     c14_SpeedgoatCANOpen2Buses1ms.obj
 0003:00007ff8       $SG26001                   0000000180073ff8     c14_SpeedgoatCANOpen2Buses1ms.obj
 0003:00008000       $SG26003                   0000000180074000     c14_SpeedgoatCANOpen2Buses1ms.obj
 0003:00008010       $SG26004                   0000000180074010     c14_SpeedgoatCANOpen2Buses1ms.obj
 0003:00008028       $SG26005                   0000000180074028     c14_SpeedgoatCANOpen2Buses1ms.obj
 0003:00008034       $SG26007                   0000000180074034     c14_SpeedgoatCANOpen2Buses1ms.obj
 0003:0000803c       $SG26009                   000000018007403c     c14_SpeedgoatCANOpen2Buses1ms.obj
 0003:00008048       $SG26011                   0000000180074048     c14_SpeedgoatCANOpen2Buses1ms.obj
 0003:00008054       $SG26012                   0000000180074054     c14_SpeedgoatCANOpen2Buses1ms.obj
 0003:0000805c       $SG26014                   000000018007405c     c14_SpeedgoatCANOpen2Buses1ms.obj
 0003:00008064       $SG26016                   0000000180074064     c14_SpeedgoatCANOpen2Buses1ms.obj
 0003:00008070       $SG26018                   0000000180074070     c14_SpeedgoatCANOpen2Buses1ms.obj
 0003:00008084       $SG26019                   0000000180074084     c14_SpeedgoatCANOpen2Buses1ms.obj
 0003:0000808c       $SG26020                   000000018007408c     c14_SpeedgoatCANOpen2Buses1ms.obj
 0003:00008098       $SG26021                   0000000180074098     c14_SpeedgoatCANOpen2Buses1ms.obj
 0003:000080ac       $SG26022                   00000001800740ac     c14_SpeedgoatCANOpen2Buses1ms.obj
 0003:000080b8       $SG26023                   00000001800740b8     c14_SpeedgoatCANOpen2Buses1ms.obj
 0003:000080c4       $SG26024                   00000001800740c4     c14_SpeedgoatCANOpen2Buses1ms.obj
 0003:000080cc       $SG26026                   00000001800740cc     c14_SpeedgoatCANOpen2Buses1ms.obj
 0003:000080d4       $SG26028                   00000001800740d4     c14_SpeedgoatCANOpen2Buses1ms.obj
 0003:000080e0       $SG26030                   00000001800740e0     c14_SpeedgoatCANOpen2Buses1ms.obj
 0003:000080f4       $SG26031                   00000001800740f4     c14_SpeedgoatCANOpen2Buses1ms.obj
 0003:000080fc       $SG26032                   00000001800740fc     c14_SpeedgoatCANOpen2Buses1ms.obj
 0003:00008108       $SG26033                   0000000180074108     c14_SpeedgoatCANOpen2Buses1ms.obj
 0003:0000811c       $SG26034                   000000018007411c     c14_SpeedgoatCANOpen2Buses1ms.obj
 0003:00008128       $SG26035                   0000000180074128     c14_SpeedgoatCANOpen2Buses1ms.obj
 0003:00008134       $SG26036                   0000000180074134     c14_SpeedgoatCANOpen2Buses1ms.obj
 0003:00008140       $SG26037                   0000000180074140     c14_SpeedgoatCANOpen2Buses1ms.obj
 0003:0000814c       $SG26039                   000000018007414c     c14_SpeedgoatCANOpen2Buses1ms.obj
 0003:00008154       $SG26041                   0000000180074154     c14_SpeedgoatCANOpen2Buses1ms.obj
 0003:00008160       $SG26043                   0000000180074160     c14_SpeedgoatCANOpen2Buses1ms.obj
 0003:0000816c       $SG26044                   000000018007416c     c14_SpeedgoatCANOpen2Buses1ms.obj
 0003:00008174       $SG26046                   0000000180074174     c14_SpeedgoatCANOpen2Buses1ms.obj
 0003:0000817c       $SG26048                   000000018007417c     c14_SpeedgoatCANOpen2Buses1ms.obj
 0003:00008188       $SG26050                   0000000180074188     c14_SpeedgoatCANOpen2Buses1ms.obj
 0003:0000819c       $SG26051                   000000018007419c     c14_SpeedgoatCANOpen2Buses1ms.obj
 0003:000081a4       $SG26052                   00000001800741a4     c14_SpeedgoatCANOpen2Buses1ms.obj
 0003:000081b0       $SG26053                   00000001800741b0     c14_SpeedgoatCANOpen2Buses1ms.obj
 0003:000081c4       $SG26054                   00000001800741c4     c14_SpeedgoatCANOpen2Buses1ms.obj
 0003:000081d0       $SG26055                   00000001800741d0     c14_SpeedgoatCANOpen2Buses1ms.obj
 0003:000081dc       $SG26056                   00000001800741dc     c14_SpeedgoatCANOpen2Buses1ms.obj
 0003:000081e4       $SG26058                   00000001800741e4     c14_SpeedgoatCANOpen2Buses1ms.obj
 0003:000081ec       $SG26060                   00000001800741ec     c14_SpeedgoatCANOpen2Buses1ms.obj
 0003:000081f8       $SG26062                   00000001800741f8     c14_SpeedgoatCANOpen2Buses1ms.obj
 0003:0000820c       $SG26063                   000000018007420c     c14_SpeedgoatCANOpen2Buses1ms.obj
 0003:00008214       $SG26064                   0000000180074214     c14_SpeedgoatCANOpen2Buses1ms.obj
 0003:00008220       $SG26065                   0000000180074220     c14_SpeedgoatCANOpen2Buses1ms.obj
 0003:00008234       $SG26066                   0000000180074234     c14_SpeedgoatCANOpen2Buses1ms.obj
 0003:00008240       $SG26067                   0000000180074240     c14_SpeedgoatCANOpen2Buses1ms.obj
 0003:00008250       $SG26068                   0000000180074250     c14_SpeedgoatCANOpen2Buses1ms.obj
 0003:00008258       $SG26069                   0000000180074258     c14_SpeedgoatCANOpen2Buses1ms.obj
 0003:00008260       $SG26070                   0000000180074260     c14_SpeedgoatCANOpen2Buses1ms.obj
 0003:00008270       $SG26086                   0000000180074270     c14_SpeedgoatCANOpen2Buses1ms.obj
 0003:00008280       $SG26088                   0000000180074280     c14_SpeedgoatCANOpen2Buses1ms.obj
 0003:00008290       $SG26090                   0000000180074290     c14_SpeedgoatCANOpen2Buses1ms.obj
 0003:000082a8       $SG26092                   00000001800742a8     c14_SpeedgoatCANOpen2Buses1ms.obj
 0003:000082c0       $SG26094                   00000001800742c0     c14_SpeedgoatCANOpen2Buses1ms.obj
 0003:000082d4       $SG26095                   00000001800742d4     c14_SpeedgoatCANOpen2Buses1ms.obj
 0003:000082e0       $SG26096                   00000001800742e0     c14_SpeedgoatCANOpen2Buses1ms.obj
 0003:000082f0       $SG26113                   00000001800742f0     c14_SpeedgoatCANOpen2Buses1ms.obj
 0003:00008318       $SG26115                   0000000180074318     c14_SpeedgoatCANOpen2Buses1ms.obj
 0003:00008338       $SG26117                   0000000180074338     c14_SpeedgoatCANOpen2Buses1ms.obj
 0003:00008360       $SG26118                   0000000180074360     c14_SpeedgoatCANOpen2Buses1ms.obj
 0003:00008380       $SG26128                   0000000180074380     c14_SpeedgoatCANOpen2Buses1ms.obj
 0003:00008390       $SG26130                   0000000180074390     c14_SpeedgoatCANOpen2Buses1ms.obj
 0003:00008398       ?condStart@?9??chart_debug_initialization@@9@9 0000000180074398     c14_SpeedgoatCANOpen2Buses1ms.obj
 0003:000083a0       $SG26132                   00000001800743a0     c14_SpeedgoatCANOpen2Buses1ms.obj
 0003:000084d0       ?condEnd@?9??chart_debug_initialization@@9@9 00000001800744d0     c14_SpeedgoatCANOpen2Buses1ms.obj
 0003:000084d8       ?pfixExpr@?9??chart_debug_initialization@@9@9 00000001800744d8     c14_SpeedgoatCANOpen2Buses1ms.obj
 0003:000084e8       ?condStart@?L@??chart_debug_initialization@@9@9 00000001800744e8     c14_SpeedgoatCANOpen2Buses1ms.obj
 0003:000084f0       ?condEnd@?L@??chart_debug_initialization@@9@9 00000001800744f0     c14_SpeedgoatCANOpen2Buses1ms.obj
 0003:000084f8       ?pfixExpr@?L@??chart_debug_initialization@@9@9 00000001800744f8     c14_SpeedgoatCANOpen2Buses1ms.obj
 0003:00008508       ?condStart@?M@??chart_debug_initialization@@9@9 0000000180074508     c14_SpeedgoatCANOpen2Buses1ms.obj
 0003:00008518       ?condEnd@?M@??chart_debug_initialization@@9@9 0000000180074518     c14_SpeedgoatCANOpen2Buses1ms.obj
 0003:00008528       ?pfixExpr@?M@??chart_debug_initialization@@9@9 0000000180074528     c14_SpeedgoatCANOpen2Buses1ms.obj
 0003:00008540       ?condStart@?N@??chart_debug_initialization@@9@9 0000000180074540     c14_SpeedgoatCANOpen2Buses1ms.obj
 0003:00008550       ?condEnd@?N@??chart_debug_initialization@@9@9 0000000180074550     c14_SpeedgoatCANOpen2Buses1ms.obj
 0003:00008560       ?pfixExpr@?N@??chart_debug_initialization@@9@9 0000000180074560     c14_SpeedgoatCANOpen2Buses1ms.obj
 0003:00008574       $SG26214                   0000000180074574     c14_SpeedgoatCANOpen2Buses1ms.obj
 0003:0000857c       $SG26215                   000000018007457c     c14_SpeedgoatCANOpen2Buses1ms.obj
 0003:00008584       $SG26216                   0000000180074584     c14_SpeedgoatCANOpen2Buses1ms.obj
 0003:0000858c       $SG26217                   000000018007458c     c14_SpeedgoatCANOpen2Buses1ms.obj
 0003:00008598       $SG26236                   0000000180074598     c14_SpeedgoatCANOpen2Buses1ms.obj
 0003:000085b0       $SG26252                   00000001800745b0     c14_SpeedgoatCANOpen2Buses1ms.obj
 0003:000085c0       $SG26256                   00000001800745c0     c14_SpeedgoatCANOpen2Buses1ms.obj
 0003:00008840       $SG26341                   0000000180074840     c14_SpeedgoatCANOpen2Buses1ms.obj
 0003:00008980       ?checksum@?1??sf_get_sfun_dwork_checksum@@9@9 0000000180074980     c14_SpeedgoatCANOpen2Buses1ms.obj
 0003:00008990       $SG26379                   0000000180074990     c14_SpeedgoatCANOpen2Buses1ms.obj
 0003:000089b8       $SG26387                   00000001800749b8     c14_SpeedgoatCANOpen2Buses1ms.obj
 0003:000089c8       $SG26388                   00000001800749c8     c14_SpeedgoatCANOpen2Buses1ms.obj
 0003:000089e0       $SG26411                   00000001800749e0     c14_SpeedgoatCANOpen2Buses1ms.obj
 0003:00008a10       $SG26426                   0000000180074a10     c14_SpeedgoatCANOpen2Buses1ms.obj
 0003:00008a90       $SG25204                   0000000180074a90     c18_SpeedgoatCANOpen2Buses1ms.obj
 0003:00008a98       $SG25205                   0000000180074a98     c18_SpeedgoatCANOpen2Buses1ms.obj
 0003:00008aa0       $SG25207                   0000000180074aa0     c18_SpeedgoatCANOpen2Buses1ms.obj
 0003:00008aa8       $SG25208                   0000000180074aa8     c18_SpeedgoatCANOpen2Buses1ms.obj
 0003:00008ab0       $SG25210                   0000000180074ab0     c18_SpeedgoatCANOpen2Buses1ms.obj
 0003:00008ab8       $SG25211                   0000000180074ab8     c18_SpeedgoatCANOpen2Buses1ms.obj
 0003:00008ac0       $SG25213                   0000000180074ac0     c18_SpeedgoatCANOpen2Buses1ms.obj
 0003:00008ac8       $SG25214                   0000000180074ac8     c18_SpeedgoatCANOpen2Buses1ms.obj
 0003:00008ad0       $SG25216                   0000000180074ad0     c18_SpeedgoatCANOpen2Buses1ms.obj
 0003:00008ad8       $SG25217                   0000000180074ad8     c18_SpeedgoatCANOpen2Buses1ms.obj
 0003:00008ae0       $SG25219                   0000000180074ae0     c18_SpeedgoatCANOpen2Buses1ms.obj
 0003:00008ae8       $SG25220                   0000000180074ae8     c18_SpeedgoatCANOpen2Buses1ms.obj
 0003:00008af0       $SG25221                   0000000180074af0     c18_SpeedgoatCANOpen2Buses1ms.obj
 0003:00008b0c       $SG25223                   0000000180074b0c     c18_SpeedgoatCANOpen2Buses1ms.obj
 0003:00008b18       $SG25224                   0000000180074b18     c18_SpeedgoatCANOpen2Buses1ms.obj
 0003:00008b20       $SG25225                   0000000180074b20     c18_SpeedgoatCANOpen2Buses1ms.obj
 0003:00008b3c       $SG25227                   0000000180074b3c     c18_SpeedgoatCANOpen2Buses1ms.obj
 0003:00008b48       $SG25228                   0000000180074b48     c18_SpeedgoatCANOpen2Buses1ms.obj
 0003:00008b50       $SG25229                   0000000180074b50     c18_SpeedgoatCANOpen2Buses1ms.obj
 0003:00008b6c       $SG25231                   0000000180074b6c     c18_SpeedgoatCANOpen2Buses1ms.obj
 0003:00008b78       $SG25232                   0000000180074b78     c18_SpeedgoatCANOpen2Buses1ms.obj
 0003:00008b80       $SG25233                   0000000180074b80     c18_SpeedgoatCANOpen2Buses1ms.obj
 0003:00008b9c       $SG25487                   0000000180074b9c     c18_SpeedgoatCANOpen2Buses1ms.obj
 0003:00008ba0       c18_debug_family_names     0000000180074ba0     c18_SpeedgoatCANOpen2Buses1ms.obj
 0003:00008bb0       c18_b_debug_family_names   0000000180074bb0     c18_SpeedgoatCANOpen2Buses1ms.obj
 0003:00008bc0       c18_c_debug_family_names   0000000180074bc0     c18_SpeedgoatCANOpen2Buses1ms.obj
 0003:00008bd0       c18_d_debug_family_names   0000000180074bd0     c18_SpeedgoatCANOpen2Buses1ms.obj
 0003:00008be0       c18_e_debug_family_names   0000000180074be0     c18_SpeedgoatCANOpen2Buses1ms.obj
 0003:00008bf0       c18_f_debug_family_names   0000000180074bf0     c18_SpeedgoatCANOpen2Buses1ms.obj
 0003:00008c08       c18_g_debug_family_names   0000000180074c08     c18_SpeedgoatCANOpen2Buses1ms.obj
 0003:00008c20       c18_h_debug_family_names   0000000180074c20     c18_SpeedgoatCANOpen2Buses1ms.obj
 0003:00008c38       c18_i_debug_family_names   0000000180074c38     c18_SpeedgoatCANOpen2Buses1ms.obj
 0003:00008c50       $SG25488                   0000000180074c50     c18_SpeedgoatCANOpen2Buses1ms.obj
 0003:00008c54       $SG25489                   0000000180074c54     c18_SpeedgoatCANOpen2Buses1ms.obj
 0003:00008c58       $SG25490                   0000000180074c58     c18_SpeedgoatCANOpen2Buses1ms.obj
 0003:00008c5c       $SG25491                   0000000180074c5c     c18_SpeedgoatCANOpen2Buses1ms.obj
 0003:00008c60       $SG25492                   0000000180074c60     c18_SpeedgoatCANOpen2Buses1ms.obj
 0003:00008c64       $SG25504                   0000000180074c64     c18_SpeedgoatCANOpen2Buses1ms.obj
 0003:00008c6c       $SG25505                   0000000180074c6c     c18_SpeedgoatCANOpen2Buses1ms.obj
 0003:00008c74       $SG25714                   0000000180074c74     c18_SpeedgoatCANOpen2Buses1ms.obj
 0003:00008c78       $SG25506                   0000000180074c78     c18_SpeedgoatCANOpen2Buses1ms.obj
 0003:00008ca0       $SG25507                   0000000180074ca0     c18_SpeedgoatCANOpen2Buses1ms.obj
 0003:00008cc4       $SG25769                   0000000180074cc4     c18_SpeedgoatCANOpen2Buses1ms.obj
 0003:00008cc8       $SG25508                   0000000180074cc8     c18_SpeedgoatCANOpen2Buses1ms.obj
 0003:00008ce0       $SG25509                   0000000180074ce0     c18_SpeedgoatCANOpen2Buses1ms.obj
 0003:00008cf8       $SG25510                   0000000180074cf8     c18_SpeedgoatCANOpen2Buses1ms.obj
 0003:00008d18       $SG25517                   0000000180074d18     c18_SpeedgoatCANOpen2Buses1ms.obj
 0003:00008d38       $SG25804                   0000000180074d38     c18_SpeedgoatCANOpen2Buses1ms.obj
 0003:00008d48       $SG25993                   0000000180074d48     c18_SpeedgoatCANOpen2Buses1ms.obj
 0003:00008d54       $SG25995                   0000000180074d54     c18_SpeedgoatCANOpen2Buses1ms.obj
 0003:00008d60       $SG25997                   0000000180074d60     c18_SpeedgoatCANOpen2Buses1ms.obj
 0003:00008d70       $SG25999                   0000000180074d70     c18_SpeedgoatCANOpen2Buses1ms.obj
 0003:00008d78       $SG26001                   0000000180074d78     c18_SpeedgoatCANOpen2Buses1ms.obj
 0003:00008d80       $SG26003                   0000000180074d80     c18_SpeedgoatCANOpen2Buses1ms.obj
 0003:00008d90       $SG26004                   0000000180074d90     c18_SpeedgoatCANOpen2Buses1ms.obj
 0003:00008da8       $SG26005                   0000000180074da8     c18_SpeedgoatCANOpen2Buses1ms.obj
 0003:00008db4       $SG26007                   0000000180074db4     c18_SpeedgoatCANOpen2Buses1ms.obj
 0003:00008dbc       $SG26009                   0000000180074dbc     c18_SpeedgoatCANOpen2Buses1ms.obj
 0003:00008dc8       $SG26011                   0000000180074dc8     c18_SpeedgoatCANOpen2Buses1ms.obj
 0003:00008dd4       $SG26012                   0000000180074dd4     c18_SpeedgoatCANOpen2Buses1ms.obj
 0003:00008ddc       $SG26014                   0000000180074ddc     c18_SpeedgoatCANOpen2Buses1ms.obj
 0003:00008de4       $SG26016                   0000000180074de4     c18_SpeedgoatCANOpen2Buses1ms.obj
 0003:00008df0       $SG26018                   0000000180074df0     c18_SpeedgoatCANOpen2Buses1ms.obj
 0003:00008e04       $SG26019                   0000000180074e04     c18_SpeedgoatCANOpen2Buses1ms.obj
 0003:00008e0c       $SG26020                   0000000180074e0c     c18_SpeedgoatCANOpen2Buses1ms.obj
 0003:00008e18       $SG26021                   0000000180074e18     c18_SpeedgoatCANOpen2Buses1ms.obj
 0003:00008e2c       $SG26022                   0000000180074e2c     c18_SpeedgoatCANOpen2Buses1ms.obj
 0003:00008e38       $SG26023                   0000000180074e38     c18_SpeedgoatCANOpen2Buses1ms.obj
 0003:00008e44       $SG26024                   0000000180074e44     c18_SpeedgoatCANOpen2Buses1ms.obj
 0003:00008e4c       $SG26026                   0000000180074e4c     c18_SpeedgoatCANOpen2Buses1ms.obj
 0003:00008e54       $SG26028                   0000000180074e54     c18_SpeedgoatCANOpen2Buses1ms.obj
 0003:00008e60       $SG26030                   0000000180074e60     c18_SpeedgoatCANOpen2Buses1ms.obj
 0003:00008e74       $SG26031                   0000000180074e74     c18_SpeedgoatCANOpen2Buses1ms.obj
 0003:00008e7c       $SG26032                   0000000180074e7c     c18_SpeedgoatCANOpen2Buses1ms.obj
 0003:00008e88       $SG26033                   0000000180074e88     c18_SpeedgoatCANOpen2Buses1ms.obj
 0003:00008e9c       $SG26034                   0000000180074e9c     c18_SpeedgoatCANOpen2Buses1ms.obj
 0003:00008ea8       $SG26035                   0000000180074ea8     c18_SpeedgoatCANOpen2Buses1ms.obj
 0003:00008eb4       $SG26036                   0000000180074eb4     c18_SpeedgoatCANOpen2Buses1ms.obj
 0003:00008ec0       $SG26037                   0000000180074ec0     c18_SpeedgoatCANOpen2Buses1ms.obj
 0003:00008ecc       $SG26039                   0000000180074ecc     c18_SpeedgoatCANOpen2Buses1ms.obj
 0003:00008ed4       $SG26041                   0000000180074ed4     c18_SpeedgoatCANOpen2Buses1ms.obj
 0003:00008ee0       $SG26043                   0000000180074ee0     c18_SpeedgoatCANOpen2Buses1ms.obj
 0003:00008eec       $SG26044                   0000000180074eec     c18_SpeedgoatCANOpen2Buses1ms.obj
 0003:00008ef4       $SG26046                   0000000180074ef4     c18_SpeedgoatCANOpen2Buses1ms.obj
 0003:00008efc       $SG26048                   0000000180074efc     c18_SpeedgoatCANOpen2Buses1ms.obj
 0003:00008f08       $SG26050                   0000000180074f08     c18_SpeedgoatCANOpen2Buses1ms.obj
 0003:00008f1c       $SG26051                   0000000180074f1c     c18_SpeedgoatCANOpen2Buses1ms.obj
 0003:00008f24       $SG26052                   0000000180074f24     c18_SpeedgoatCANOpen2Buses1ms.obj
 0003:00008f30       $SG26053                   0000000180074f30     c18_SpeedgoatCANOpen2Buses1ms.obj
 0003:00008f44       $SG26054                   0000000180074f44     c18_SpeedgoatCANOpen2Buses1ms.obj
 0003:00008f50       $SG26055                   0000000180074f50     c18_SpeedgoatCANOpen2Buses1ms.obj
 0003:00008f5c       $SG26056                   0000000180074f5c     c18_SpeedgoatCANOpen2Buses1ms.obj
 0003:00008f64       $SG26058                   0000000180074f64     c18_SpeedgoatCANOpen2Buses1ms.obj
 0003:00008f6c       $SG26060                   0000000180074f6c     c18_SpeedgoatCANOpen2Buses1ms.obj
 0003:00008f78       $SG26062                   0000000180074f78     c18_SpeedgoatCANOpen2Buses1ms.obj
 0003:00008f8c       $SG26063                   0000000180074f8c     c18_SpeedgoatCANOpen2Buses1ms.obj
 0003:00008f94       $SG26064                   0000000180074f94     c18_SpeedgoatCANOpen2Buses1ms.obj
 0003:00008fa0       $SG26065                   0000000180074fa0     c18_SpeedgoatCANOpen2Buses1ms.obj
 0003:00008fb4       $SG26066                   0000000180074fb4     c18_SpeedgoatCANOpen2Buses1ms.obj
 0003:00008fc0       $SG26067                   0000000180074fc0     c18_SpeedgoatCANOpen2Buses1ms.obj
 0003:00008fd0       $SG26068                   0000000180074fd0     c18_SpeedgoatCANOpen2Buses1ms.obj
 0003:00008fd8       $SG26069                   0000000180074fd8     c18_SpeedgoatCANOpen2Buses1ms.obj
 0003:00008fe0       $SG26070                   0000000180074fe0     c18_SpeedgoatCANOpen2Buses1ms.obj
 0003:00008ff0       $SG26086                   0000000180074ff0     c18_SpeedgoatCANOpen2Buses1ms.obj
 0003:00009000       $SG26088                   0000000180075000     c18_SpeedgoatCANOpen2Buses1ms.obj
 0003:00009010       $SG26090                   0000000180075010     c18_SpeedgoatCANOpen2Buses1ms.obj
 0003:00009028       $SG26092                   0000000180075028     c18_SpeedgoatCANOpen2Buses1ms.obj
 0003:00009040       $SG26094                   0000000180075040     c18_SpeedgoatCANOpen2Buses1ms.obj
 0003:00009054       $SG26095                   0000000180075054     c18_SpeedgoatCANOpen2Buses1ms.obj
 0003:00009060       $SG26096                   0000000180075060     c18_SpeedgoatCANOpen2Buses1ms.obj
 0003:00009070       $SG26113                   0000000180075070     c18_SpeedgoatCANOpen2Buses1ms.obj
 0003:00009098       $SG26115                   0000000180075098     c18_SpeedgoatCANOpen2Buses1ms.obj
 0003:000090b8       $SG26117                   00000001800750b8     c18_SpeedgoatCANOpen2Buses1ms.obj
 0003:000090e0       $SG26118                   00000001800750e0     c18_SpeedgoatCANOpen2Buses1ms.obj
 0003:00009100       $SG26128                   0000000180075100     c18_SpeedgoatCANOpen2Buses1ms.obj
 0003:00009110       $SG26130                   0000000180075110     c18_SpeedgoatCANOpen2Buses1ms.obj
 0003:00009118       ?condStart@?9??chart_debug_initialization@@9@9 0000000180075118     c18_SpeedgoatCANOpen2Buses1ms.obj
 0003:00009120       $SG26132                   0000000180075120     c18_SpeedgoatCANOpen2Buses1ms.obj
 0003:00009250       ?condEnd@?9??chart_debug_initialization@@9@9 0000000180075250     c18_SpeedgoatCANOpen2Buses1ms.obj
 0003:00009258       ?pfixExpr@?9??chart_debug_initialization@@9@9 0000000180075258     c18_SpeedgoatCANOpen2Buses1ms.obj
 0003:00009268       ?condStart@?L@??chart_debug_initialization@@9@9 0000000180075268     c18_SpeedgoatCANOpen2Buses1ms.obj
 0003:00009270       ?condEnd@?L@??chart_debug_initialization@@9@9 0000000180075270     c18_SpeedgoatCANOpen2Buses1ms.obj
 0003:00009278       ?pfixExpr@?L@??chart_debug_initialization@@9@9 0000000180075278     c18_SpeedgoatCANOpen2Buses1ms.obj
 0003:00009288       ?condStart@?M@??chart_debug_initialization@@9@9 0000000180075288     c18_SpeedgoatCANOpen2Buses1ms.obj
 0003:00009298       ?condEnd@?M@??chart_debug_initialization@@9@9 0000000180075298     c18_SpeedgoatCANOpen2Buses1ms.obj
 0003:000092a8       ?pfixExpr@?M@??chart_debug_initialization@@9@9 00000001800752a8     c18_SpeedgoatCANOpen2Buses1ms.obj
 0003:000092c0       ?condStart@?N@??chart_debug_initialization@@9@9 00000001800752c0     c18_SpeedgoatCANOpen2Buses1ms.obj
 0003:000092d0       ?condEnd@?N@??chart_debug_initialization@@9@9 00000001800752d0     c18_SpeedgoatCANOpen2Buses1ms.obj
 0003:000092e0       ?pfixExpr@?N@??chart_debug_initialization@@9@9 00000001800752e0     c18_SpeedgoatCANOpen2Buses1ms.obj
 0003:000092f4       $SG26214                   00000001800752f4     c18_SpeedgoatCANOpen2Buses1ms.obj
 0003:000092fc       $SG26215                   00000001800752fc     c18_SpeedgoatCANOpen2Buses1ms.obj
 0003:00009304       $SG26216                   0000000180075304     c18_SpeedgoatCANOpen2Buses1ms.obj
 0003:0000930c       $SG26217                   000000018007530c     c18_SpeedgoatCANOpen2Buses1ms.obj
 0003:00009318       $SG26236                   0000000180075318     c18_SpeedgoatCANOpen2Buses1ms.obj
 0003:00009330       $SG26252                   0000000180075330     c18_SpeedgoatCANOpen2Buses1ms.obj
 0003:00009340       $SG26256                   0000000180075340     c18_SpeedgoatCANOpen2Buses1ms.obj
 0003:000095c0       $SG26341                   00000001800755c0     c18_SpeedgoatCANOpen2Buses1ms.obj
 0003:00009700       ?checksum@?1??sf_get_sfun_dwork_checksum@@9@9 0000000180075700     c18_SpeedgoatCANOpen2Buses1ms.obj
 0003:00009710       $SG26379                   0000000180075710     c18_SpeedgoatCANOpen2Buses1ms.obj
 0003:00009738       $SG26387                   0000000180075738     c18_SpeedgoatCANOpen2Buses1ms.obj
 0003:00009748       $SG26388                   0000000180075748     c18_SpeedgoatCANOpen2Buses1ms.obj
 0003:00009760       $SG26411                   0000000180075760     c18_SpeedgoatCANOpen2Buses1ms.obj
 0003:00009790       $SG26426                   0000000180075790     c18_SpeedgoatCANOpen2Buses1ms.obj
 0003:00009810       $SG25204                   0000000180075810     c20_SpeedgoatCANOpen2Buses1ms.obj
 0003:00009818       $SG25205                   0000000180075818     c20_SpeedgoatCANOpen2Buses1ms.obj
 0003:00009820       $SG25207                   0000000180075820     c20_SpeedgoatCANOpen2Buses1ms.obj
 0003:00009828       $SG25208                   0000000180075828     c20_SpeedgoatCANOpen2Buses1ms.obj
 0003:00009830       $SG25210                   0000000180075830     c20_SpeedgoatCANOpen2Buses1ms.obj
 0003:00009838       $SG25211                   0000000180075838     c20_SpeedgoatCANOpen2Buses1ms.obj
 0003:00009840       $SG25213                   0000000180075840     c20_SpeedgoatCANOpen2Buses1ms.obj
 0003:00009848       $SG25214                   0000000180075848     c20_SpeedgoatCANOpen2Buses1ms.obj
 0003:00009850       $SG25216                   0000000180075850     c20_SpeedgoatCANOpen2Buses1ms.obj
 0003:00009858       $SG25217                   0000000180075858     c20_SpeedgoatCANOpen2Buses1ms.obj
 0003:00009860       $SG25219                   0000000180075860     c20_SpeedgoatCANOpen2Buses1ms.obj
 0003:00009868       $SG25220                   0000000180075868     c20_SpeedgoatCANOpen2Buses1ms.obj
 0003:00009870       $SG25221                   0000000180075870     c20_SpeedgoatCANOpen2Buses1ms.obj
 0003:0000988c       $SG25223                   000000018007588c     c20_SpeedgoatCANOpen2Buses1ms.obj
 0003:00009898       $SG25224                   0000000180075898     c20_SpeedgoatCANOpen2Buses1ms.obj
 0003:000098a0       $SG25225                   00000001800758a0     c20_SpeedgoatCANOpen2Buses1ms.obj
 0003:000098bc       $SG25227                   00000001800758bc     c20_SpeedgoatCANOpen2Buses1ms.obj
 0003:000098c8       $SG25228                   00000001800758c8     c20_SpeedgoatCANOpen2Buses1ms.obj
 0003:000098d0       $SG25229                   00000001800758d0     c20_SpeedgoatCANOpen2Buses1ms.obj
 0003:000098ec       $SG25231                   00000001800758ec     c20_SpeedgoatCANOpen2Buses1ms.obj
 0003:000098f8       $SG25232                   00000001800758f8     c20_SpeedgoatCANOpen2Buses1ms.obj
 0003:00009900       $SG25233                   0000000180075900     c20_SpeedgoatCANOpen2Buses1ms.obj
 0003:0000991c       $SG25487                   000000018007591c     c20_SpeedgoatCANOpen2Buses1ms.obj
 0003:00009920       c20_debug_family_names     0000000180075920     c20_SpeedgoatCANOpen2Buses1ms.obj
 0003:00009930       c20_b_debug_family_names   0000000180075930     c20_SpeedgoatCANOpen2Buses1ms.obj
 0003:00009940       c20_c_debug_family_names   0000000180075940     c20_SpeedgoatCANOpen2Buses1ms.obj
 0003:00009950       c20_d_debug_family_names   0000000180075950     c20_SpeedgoatCANOpen2Buses1ms.obj
 0003:00009960       c20_e_debug_family_names   0000000180075960     c20_SpeedgoatCANOpen2Buses1ms.obj
 0003:00009970       c20_f_debug_family_names   0000000180075970     c20_SpeedgoatCANOpen2Buses1ms.obj
 0003:00009988       c20_g_debug_family_names   0000000180075988     c20_SpeedgoatCANOpen2Buses1ms.obj
 0003:000099a0       c20_h_debug_family_names   00000001800759a0     c20_SpeedgoatCANOpen2Buses1ms.obj
 0003:000099b8       c20_i_debug_family_names   00000001800759b8     c20_SpeedgoatCANOpen2Buses1ms.obj
 0003:000099d0       $SG25488                   00000001800759d0     c20_SpeedgoatCANOpen2Buses1ms.obj
 0003:000099d4       $SG25489                   00000001800759d4     c20_SpeedgoatCANOpen2Buses1ms.obj
 0003:000099d8       $SG25490                   00000001800759d8     c20_SpeedgoatCANOpen2Buses1ms.obj
 0003:000099dc       $SG25491                   00000001800759dc     c20_SpeedgoatCANOpen2Buses1ms.obj
 0003:000099e0       $SG25492                   00000001800759e0     c20_SpeedgoatCANOpen2Buses1ms.obj
 0003:000099e4       $SG25504                   00000001800759e4     c20_SpeedgoatCANOpen2Buses1ms.obj
 0003:000099ec       $SG25505                   00000001800759ec     c20_SpeedgoatCANOpen2Buses1ms.obj
 0003:000099f4       $SG25714                   00000001800759f4     c20_SpeedgoatCANOpen2Buses1ms.obj
 0003:000099f8       $SG25506                   00000001800759f8     c20_SpeedgoatCANOpen2Buses1ms.obj
 0003:00009a20       $SG25507                   0000000180075a20     c20_SpeedgoatCANOpen2Buses1ms.obj
 0003:00009a44       $SG25769                   0000000180075a44     c20_SpeedgoatCANOpen2Buses1ms.obj
 0003:00009a48       $SG25508                   0000000180075a48     c20_SpeedgoatCANOpen2Buses1ms.obj
 0003:00009a60       $SG25509                   0000000180075a60     c20_SpeedgoatCANOpen2Buses1ms.obj
 0003:00009a78       $SG25510                   0000000180075a78     c20_SpeedgoatCANOpen2Buses1ms.obj
 0003:00009a98       $SG25517                   0000000180075a98     c20_SpeedgoatCANOpen2Buses1ms.obj
 0003:00009ab8       $SG25804                   0000000180075ab8     c20_SpeedgoatCANOpen2Buses1ms.obj
 0003:00009ac8       $SG25993                   0000000180075ac8     c20_SpeedgoatCANOpen2Buses1ms.obj
 0003:00009ad4       $SG25995                   0000000180075ad4     c20_SpeedgoatCANOpen2Buses1ms.obj
 0003:00009ae0       $SG25997                   0000000180075ae0     c20_SpeedgoatCANOpen2Buses1ms.obj
 0003:00009af0       $SG25999                   0000000180075af0     c20_SpeedgoatCANOpen2Buses1ms.obj
 0003:00009af8       $SG26001                   0000000180075af8     c20_SpeedgoatCANOpen2Buses1ms.obj
 0003:00009b00       $SG26003                   0000000180075b00     c20_SpeedgoatCANOpen2Buses1ms.obj
 0003:00009b10       $SG26004                   0000000180075b10     c20_SpeedgoatCANOpen2Buses1ms.obj
 0003:00009b28       $SG26005                   0000000180075b28     c20_SpeedgoatCANOpen2Buses1ms.obj
 0003:00009b34       $SG26007                   0000000180075b34     c20_SpeedgoatCANOpen2Buses1ms.obj
 0003:00009b3c       $SG26009                   0000000180075b3c     c20_SpeedgoatCANOpen2Buses1ms.obj
 0003:00009b48       $SG26011                   0000000180075b48     c20_SpeedgoatCANOpen2Buses1ms.obj
 0003:00009b54       $SG26012                   0000000180075b54     c20_SpeedgoatCANOpen2Buses1ms.obj
 0003:00009b5c       $SG26014                   0000000180075b5c     c20_SpeedgoatCANOpen2Buses1ms.obj
 0003:00009b64       $SG26016                   0000000180075b64     c20_SpeedgoatCANOpen2Buses1ms.obj
 0003:00009b70       $SG26018                   0000000180075b70     c20_SpeedgoatCANOpen2Buses1ms.obj
 0003:00009b84       $SG26019                   0000000180075b84     c20_SpeedgoatCANOpen2Buses1ms.obj
 0003:00009b8c       $SG26020                   0000000180075b8c     c20_SpeedgoatCANOpen2Buses1ms.obj
 0003:00009b98       $SG26021                   0000000180075b98     c20_SpeedgoatCANOpen2Buses1ms.obj
 0003:00009bac       $SG26022                   0000000180075bac     c20_SpeedgoatCANOpen2Buses1ms.obj
 0003:00009bb8       $SG26023                   0000000180075bb8     c20_SpeedgoatCANOpen2Buses1ms.obj
 0003:00009bc4       $SG26024                   0000000180075bc4     c20_SpeedgoatCANOpen2Buses1ms.obj
 0003:00009bcc       $SG26026                   0000000180075bcc     c20_SpeedgoatCANOpen2Buses1ms.obj
 0003:00009bd4       $SG26028                   0000000180075bd4     c20_SpeedgoatCANOpen2Buses1ms.obj
 0003:00009be0       $SG26030                   0000000180075be0     c20_SpeedgoatCANOpen2Buses1ms.obj
 0003:00009bf4       $SG26031                   0000000180075bf4     c20_SpeedgoatCANOpen2Buses1ms.obj
 0003:00009bfc       $SG26032                   0000000180075bfc     c20_SpeedgoatCANOpen2Buses1ms.obj
 0003:00009c08       $SG26033                   0000000180075c08     c20_SpeedgoatCANOpen2Buses1ms.obj
 0003:00009c1c       $SG26034                   0000000180075c1c     c20_SpeedgoatCANOpen2Buses1ms.obj
 0003:00009c28       $SG26035                   0000000180075c28     c20_SpeedgoatCANOpen2Buses1ms.obj
 0003:00009c34       $SG26036                   0000000180075c34     c20_SpeedgoatCANOpen2Buses1ms.obj
 0003:00009c40       $SG26037                   0000000180075c40     c20_SpeedgoatCANOpen2Buses1ms.obj
 0003:00009c4c       $SG26039                   0000000180075c4c     c20_SpeedgoatCANOpen2Buses1ms.obj
 0003:00009c54       $SG26041                   0000000180075c54     c20_SpeedgoatCANOpen2Buses1ms.obj
 0003:00009c60       $SG26043                   0000000180075c60     c20_SpeedgoatCANOpen2Buses1ms.obj
 0003:00009c6c       $SG26044                   0000000180075c6c     c20_SpeedgoatCANOpen2Buses1ms.obj
 0003:00009c74       $SG26046                   0000000180075c74     c20_SpeedgoatCANOpen2Buses1ms.obj
 0003:00009c7c       $SG26048                   0000000180075c7c     c20_SpeedgoatCANOpen2Buses1ms.obj
 0003:00009c88       $SG26050                   0000000180075c88     c20_SpeedgoatCANOpen2Buses1ms.obj
 0003:00009c9c       $SG26051                   0000000180075c9c     c20_SpeedgoatCANOpen2Buses1ms.obj
 0003:00009ca4       $SG26052                   0000000180075ca4     c20_SpeedgoatCANOpen2Buses1ms.obj
 0003:00009cb0       $SG26053                   0000000180075cb0     c20_SpeedgoatCANOpen2Buses1ms.obj
 0003:00009cc4       $SG26054                   0000000180075cc4     c20_SpeedgoatCANOpen2Buses1ms.obj
 0003:00009cd0       $SG26055                   0000000180075cd0     c20_SpeedgoatCANOpen2Buses1ms.obj
 0003:00009cdc       $SG26056                   0000000180075cdc     c20_SpeedgoatCANOpen2Buses1ms.obj
 0003:00009ce4       $SG26058                   0000000180075ce4     c20_SpeedgoatCANOpen2Buses1ms.obj
 0003:00009cec       $SG26060                   0000000180075cec     c20_SpeedgoatCANOpen2Buses1ms.obj
 0003:00009cf8       $SG26062                   0000000180075cf8     c20_SpeedgoatCANOpen2Buses1ms.obj
 0003:00009d0c       $SG26063                   0000000180075d0c     c20_SpeedgoatCANOpen2Buses1ms.obj
 0003:00009d14       $SG26064                   0000000180075d14     c20_SpeedgoatCANOpen2Buses1ms.obj
 0003:00009d20       $SG26065                   0000000180075d20     c20_SpeedgoatCANOpen2Buses1ms.obj
 0003:00009d34       $SG26066                   0000000180075d34     c20_SpeedgoatCANOpen2Buses1ms.obj
 0003:00009d40       $SG26067                   0000000180075d40     c20_SpeedgoatCANOpen2Buses1ms.obj
 0003:00009d50       $SG26068                   0000000180075d50     c20_SpeedgoatCANOpen2Buses1ms.obj
 0003:00009d58       $SG26069                   0000000180075d58     c20_SpeedgoatCANOpen2Buses1ms.obj
 0003:00009d60       $SG26070                   0000000180075d60     c20_SpeedgoatCANOpen2Buses1ms.obj
 0003:00009d70       $SG26086                   0000000180075d70     c20_SpeedgoatCANOpen2Buses1ms.obj
 0003:00009d80       $SG26088                   0000000180075d80     c20_SpeedgoatCANOpen2Buses1ms.obj
 0003:00009d90       $SG26090                   0000000180075d90     c20_SpeedgoatCANOpen2Buses1ms.obj
 0003:00009da8       $SG26092                   0000000180075da8     c20_SpeedgoatCANOpen2Buses1ms.obj
 0003:00009dc0       $SG26094                   0000000180075dc0     c20_SpeedgoatCANOpen2Buses1ms.obj
 0003:00009dd4       $SG26095                   0000000180075dd4     c20_SpeedgoatCANOpen2Buses1ms.obj
 0003:00009de0       $SG26096                   0000000180075de0     c20_SpeedgoatCANOpen2Buses1ms.obj
 0003:00009df0       $SG26113                   0000000180075df0     c20_SpeedgoatCANOpen2Buses1ms.obj
 0003:00009e18       $SG26115                   0000000180075e18     c20_SpeedgoatCANOpen2Buses1ms.obj
 0003:00009e38       $SG26117                   0000000180075e38     c20_SpeedgoatCANOpen2Buses1ms.obj
 0003:00009e60       $SG26118                   0000000180075e60     c20_SpeedgoatCANOpen2Buses1ms.obj
 0003:00009e80       $SG26128                   0000000180075e80     c20_SpeedgoatCANOpen2Buses1ms.obj
 0003:00009e90       $SG26130                   0000000180075e90     c20_SpeedgoatCANOpen2Buses1ms.obj
 0003:00009e98       ?condStart@?9??chart_debug_initialization@@9@9 0000000180075e98     c20_SpeedgoatCANOpen2Buses1ms.obj
 0003:00009ea0       $SG26132                   0000000180075ea0     c20_SpeedgoatCANOpen2Buses1ms.obj
 0003:00009fd0       ?condEnd@?9??chart_debug_initialization@@9@9 0000000180075fd0     c20_SpeedgoatCANOpen2Buses1ms.obj
 0003:00009fd8       ?pfixExpr@?9??chart_debug_initialization@@9@9 0000000180075fd8     c20_SpeedgoatCANOpen2Buses1ms.obj
 0003:00009fe8       ?condStart@?L@??chart_debug_initialization@@9@9 0000000180075fe8     c20_SpeedgoatCANOpen2Buses1ms.obj
 0003:00009ff0       ?condEnd@?L@??chart_debug_initialization@@9@9 0000000180075ff0     c20_SpeedgoatCANOpen2Buses1ms.obj
 0003:00009ff8       ?pfixExpr@?L@??chart_debug_initialization@@9@9 0000000180075ff8     c20_SpeedgoatCANOpen2Buses1ms.obj
 0003:0000a008       ?condStart@?M@??chart_debug_initialization@@9@9 0000000180076008     c20_SpeedgoatCANOpen2Buses1ms.obj
 0003:0000a018       ?condEnd@?M@??chart_debug_initialization@@9@9 0000000180076018     c20_SpeedgoatCANOpen2Buses1ms.obj
 0003:0000a028       ?pfixExpr@?M@??chart_debug_initialization@@9@9 0000000180076028     c20_SpeedgoatCANOpen2Buses1ms.obj
 0003:0000a040       ?condStart@?N@??chart_debug_initialization@@9@9 0000000180076040     c20_SpeedgoatCANOpen2Buses1ms.obj
 0003:0000a050       ?condEnd@?N@??chart_debug_initialization@@9@9 0000000180076050     c20_SpeedgoatCANOpen2Buses1ms.obj
 0003:0000a060       ?pfixExpr@?N@??chart_debug_initialization@@9@9 0000000180076060     c20_SpeedgoatCANOpen2Buses1ms.obj
 0003:0000a074       $SG26214                   0000000180076074     c20_SpeedgoatCANOpen2Buses1ms.obj
 0003:0000a07c       $SG26215                   000000018007607c     c20_SpeedgoatCANOpen2Buses1ms.obj
 0003:0000a084       $SG26216                   0000000180076084     c20_SpeedgoatCANOpen2Buses1ms.obj
 0003:0000a08c       $SG26217                   000000018007608c     c20_SpeedgoatCANOpen2Buses1ms.obj
 0003:0000a098       $SG26236                   0000000180076098     c20_SpeedgoatCANOpen2Buses1ms.obj
 0003:0000a0b0       $SG26252                   00000001800760b0     c20_SpeedgoatCANOpen2Buses1ms.obj
 0003:0000a0c0       $SG26256                   00000001800760c0     c20_SpeedgoatCANOpen2Buses1ms.obj
 0003:0000a340       $SG26341                   0000000180076340     c20_SpeedgoatCANOpen2Buses1ms.obj
 0003:0000a480       ?checksum@?1??sf_get_sfun_dwork_checksum@@9@9 0000000180076480     c20_SpeedgoatCANOpen2Buses1ms.obj
 0003:0000a490       $SG26379                   0000000180076490     c20_SpeedgoatCANOpen2Buses1ms.obj
 0003:0000a4b8       $SG26387                   00000001800764b8     c20_SpeedgoatCANOpen2Buses1ms.obj
 0003:0000a4c8       $SG26388                   00000001800764c8     c20_SpeedgoatCANOpen2Buses1ms.obj
 0003:0000a4e0       $SG26411                   00000001800764e0     c20_SpeedgoatCANOpen2Buses1ms.obj
 0003:0000a510       $SG26426                   0000000180076510     c20_SpeedgoatCANOpen2Buses1ms.obj
 0003:0000a598       $SG25236                   0000000180076598     SpeedgoatCANOpen2Buses1ms_sfun_registry.obj
 0003:0000a5b8       $SG25238                   00000001800765b8     SpeedgoatCANOpen2Buses1ms_sfun_registry.obj
 0003:0000a5d4       $SG25571                   00000001800765d4     SpeedgoatCANOpen2Buses1ms_sfun_registry.obj
 0003:0000a5dc       $SG27201                   00000001800765dc     SpeedgoatCANOpen2Buses1ms_sfun_registry.obj
 0003:0000a5e0       $SG25274                   00000001800765e0     SpeedgoatCANOpen2Buses1ms_sfun_registry.obj
 0003:0000a5fc       $SG25577                   00000001800765fc     SpeedgoatCANOpen2Buses1ms_sfun_registry.obj
 0003:0000a604       $SG27279                   0000000180076604     SpeedgoatCANOpen2Buses1ms_sfun_registry.obj
 0003:0000a608       $SG25276                   0000000180076608     SpeedgoatCANOpen2Buses1ms_sfun_registry.obj
 0003:0000a624       $SG27665                   0000000180076624     SpeedgoatCANOpen2Buses1ms_sfun_registry.obj
 0003:0000a630       $SG25312                   0000000180076630     SpeedgoatCANOpen2Buses1ms_sfun_registry.obj
 0003:0000a648       $SG25314                   0000000180076648     SpeedgoatCANOpen2Buses1ms_sfun_registry.obj
 0003:0000a668       $SG25350                   0000000180076668     SpeedgoatCANOpen2Buses1ms_sfun_registry.obj
 0003:0000a688       $SG25352                   0000000180076688     SpeedgoatCANOpen2Buses1ms_sfun_registry.obj
 0003:0000a6a8       $SG25388                   00000001800766a8     SpeedgoatCANOpen2Buses1ms_sfun_registry.obj
 0003:0000a6c8       $SG25390                   00000001800766c8     SpeedgoatCANOpen2Buses1ms_sfun_registry.obj
 0003:0000a6e8       $SG25410                   00000001800766e8     SpeedgoatCANOpen2Buses1ms_sfun_registry.obj
 0003:0000a6f8       $SG25451                   00000001800766f8     SpeedgoatCANOpen2Buses1ms_sfun_registry.obj
 0003:0000a710       $SG25482                   0000000180076710     SpeedgoatCANOpen2Buses1ms_sfun_registry.obj
 0003:0000a730       $SG25493                   0000000180076730     SpeedgoatCANOpen2Buses1ms_sfun_registry.obj
 0003:0000a768       $SG25516                   0000000180076768     SpeedgoatCANOpen2Buses1ms_sfun_registry.obj
 0003:0000a7a0       $SG25572                   00000001800767a0     SpeedgoatCANOpen2Buses1ms_sfun_registry.obj
 0003:0000a7b8       $SG25578                   00000001800767b8     SpeedgoatCANOpen2Buses1ms_sfun_registry.obj
 0003:0000a7d8       $SG25719                   00000001800767d8     SpeedgoatCANOpen2Buses1ms_sfun_registry.obj
 0003:0000a800       _sfcnName                  0000000180076800     SpeedgoatCANOpen2Buses1ms_sfun_registry.obj
 0003:0000a820       $SG25736                   0000000180076820     SpeedgoatCANOpen2Buses1ms_sfun_registry.obj
 0003:0000a898       $SG26055                   0000000180076898     SpeedgoatCANOpen2Buses1ms_sfun_registry.obj
 0003:0000a8a0       $SG26056                   00000001800768a0     SpeedgoatCANOpen2Buses1ms_sfun_registry.obj
 0003:0000a8a8       $SG26070                   00000001800768a8     SpeedgoatCANOpen2Buses1ms_sfun_registry.obj
 0003:0000a8b8       $SG26260                   00000001800768b8     SpeedgoatCANOpen2Buses1ms_sfun_registry.obj
 0003:0000a8f8       $SG26261                   00000001800768f8     SpeedgoatCANOpen2Buses1ms_sfun_registry.obj
 0003:0000a900       $SG26262                   0000000180076900     SpeedgoatCANOpen2Buses1ms_sfun_registry.obj
 0003:0000a908       $SG26267                   0000000180076908     SpeedgoatCANOpen2Buses1ms_sfun_registry.obj
 0003:0000a910       $SG26266                   0000000180076910     SpeedgoatCANOpen2Buses1ms_sfun_registry.obj
 0003:0000a958       $SG26268                   0000000180076958     SpeedgoatCANOpen2Buses1ms_sfun_registry.obj
 0003:0000a960       $SG26269                   0000000180076960     SpeedgoatCANOpen2Buses1ms_sfun_registry.obj
 0003:0000a9b8       $SG26270                   00000001800769b8     SpeedgoatCANOpen2Buses1ms_sfun_registry.obj
 0003:0000a9c0       $SG26271                   00000001800769c0     SpeedgoatCANOpen2Buses1ms_sfun_registry.obj
 0003:0000a9c8       $SG26293                   00000001800769c8     SpeedgoatCANOpen2Buses1ms_sfun_registry.obj
 0003:0000aa08       $SG26294                   0000000180076a08     SpeedgoatCANOpen2Buses1ms_sfun_registry.obj
 0003:0000aa10       $SG26295                   0000000180076a10     SpeedgoatCANOpen2Buses1ms_sfun_registry.obj
 0003:0000aa18       $SG26300                   0000000180076a18     SpeedgoatCANOpen2Buses1ms_sfun_registry.obj
 0003:0000aa20       $SG26299                   0000000180076a20     SpeedgoatCANOpen2Buses1ms_sfun_registry.obj
 0003:0000aa68       $SG26301                   0000000180076a68     SpeedgoatCANOpen2Buses1ms_sfun_registry.obj
 0003:0000aa70       $SG26302                   0000000180076a70     SpeedgoatCANOpen2Buses1ms_sfun_registry.obj
 0003:0000aac8       $SG26303                   0000000180076ac8     SpeedgoatCANOpen2Buses1ms_sfun_registry.obj
 0003:0000aad0       $SG26304                   0000000180076ad0     SpeedgoatCANOpen2Buses1ms_sfun_registry.obj
 0003:0000aad8       $SG26320                   0000000180076ad8     SpeedgoatCANOpen2Buses1ms_sfun_registry.obj
 0003:0000aae0       $SG26319                   0000000180076ae0     SpeedgoatCANOpen2Buses1ms_sfun_registry.obj
 0003:0000ab30       $SG26321                   0000000180076b30     SpeedgoatCANOpen2Buses1ms_sfun_registry.obj
 0003:0000ab38       $SG26334                   0000000180076b38     SpeedgoatCANOpen2Buses1ms_sfun_registry.obj
 0003:0000ab40       $SG26333                   0000000180076b40     SpeedgoatCANOpen2Buses1ms_sfun_registry.obj
 0003:0000aba0       $SG26335                   0000000180076ba0     SpeedgoatCANOpen2Buses1ms_sfun_registry.obj
 0003:0000aba8       $SG26348                   0000000180076ba8     SpeedgoatCANOpen2Buses1ms_sfun_registry.obj
 0003:0000abb0       $SG26347                   0000000180076bb0     SpeedgoatCANOpen2Buses1ms_sfun_registry.obj
 0003:0000ac10       $SG26349                   0000000180076c10     SpeedgoatCANOpen2Buses1ms_sfun_registry.obj
 0003:0000ac18       $SG27186                   0000000180076c18     SpeedgoatCANOpen2Buses1ms_sfun_registry.obj
 0003:0000ac30       $SG26564                   0000000180076c30     SpeedgoatCANOpen2Buses1ms_sfun_registry.obj
 0003:0000aca8       $SG27253                   0000000180076ca8     SpeedgoatCANOpen2Buses1ms_sfun_registry.obj
 0003:0000acb0       $SG26567                   0000000180076cb0     SpeedgoatCANOpen2Buses1ms_sfun_registry.obj
 0003:0000ad24       $SG27254                   0000000180076d24     SpeedgoatCANOpen2Buses1ms_sfun_registry.obj
 0003:0000ad30       $SG26572                   0000000180076d30     SpeedgoatCANOpen2Buses1ms_sfun_registry.obj
 0003:0000ada8       $SG27255                   0000000180076da8     SpeedgoatCANOpen2Buses1ms_sfun_registry.obj
 0003:0000adb0       $SG26580                   0000000180076db0     SpeedgoatCANOpen2Buses1ms_sfun_registry.obj
 0003:0000ae20       $SG26855                   0000000180076e20     SpeedgoatCANOpen2Buses1ms_sfun_registry.obj
 0003:0000ae98       $SG27261                   0000000180076e98     SpeedgoatCANOpen2Buses1ms_sfun_registry.obj
 0003:0000aea0       $SG26860                   0000000180076ea0     SpeedgoatCANOpen2Buses1ms_sfun_registry.obj
 0003:0000af18       $SG27264                   0000000180076f18     SpeedgoatCANOpen2Buses1ms_sfun_registry.obj
 0003:0000af20       $SG27198                   0000000180076f20     SpeedgoatCANOpen2Buses1ms_sfun_registry.obj
 0003:0000af98       $SG27267                   0000000180076f98     SpeedgoatCANOpen2Buses1ms_sfun_registry.obj
 0003:0000afa0       $SG27256                   0000000180076fa0     SpeedgoatCANOpen2Buses1ms_sfun_registry.obj
 0003:0000b018       $SG27273                   0000000180077018     SpeedgoatCANOpen2Buses1ms_sfun_registry.obj
 0003:0000b020       $SG27258                   0000000180077020     SpeedgoatCANOpen2Buses1ms_sfun_registry.obj
 0003:0000b0a0       $SG27268                   00000001800770a0     SpeedgoatCANOpen2Buses1ms_sfun_registry.obj
 0003:0000b120       $SG27269                   0000000180077120     SpeedgoatCANOpen2Buses1ms_sfun_registry.obj
 0003:0000b130       $SG27271                   0000000180077130     SpeedgoatCANOpen2Buses1ms_sfun_registry.obj
 0003:0000b13c       $SG27275                   000000018007713c     SpeedgoatCANOpen2Buses1ms_sfun_registry.obj
 0003:0000b148       $SG27277                   0000000180077148     SpeedgoatCANOpen2Buses1ms_sfun_registry.obj
 0003:0000b158       $SG27387                   0000000180077158     SpeedgoatCANOpen2Buses1ms_sfun_registry.obj
 0003:0000b188       $SG27388                   0000000180077188     SpeedgoatCANOpen2Buses1ms_sfun_registry.obj
 0003:0000b190       $SG27282                   0000000180077190     SpeedgoatCANOpen2Buses1ms_sfun_registry.obj
 0003:0000b278       $SG27389                   0000000180077278     SpeedgoatCANOpen2Buses1ms_sfun_registry.obj
 0003:0000b280       $SG27391                   0000000180077280     SpeedgoatCANOpen2Buses1ms_sfun_registry.obj
 0003:0000b2b8       $SG27392                   00000001800772b8     SpeedgoatCANOpen2Buses1ms_sfun_registry.obj
 0003:0000b2c0       $SG27393                   00000001800772c0     SpeedgoatCANOpen2Buses1ms_sfun_registry.obj
 0003:0000b2c8       $SG27396                   00000001800772c8     SpeedgoatCANOpen2Buses1ms_sfun_registry.obj
 0003:0000b300       $SG27397                   0000000180077300     SpeedgoatCANOpen2Buses1ms_sfun_registry.obj
 0003:0000b308       $SG27398                   0000000180077308     SpeedgoatCANOpen2Buses1ms_sfun_registry.obj
 0003:0000b310       $SG27400                   0000000180077310     SpeedgoatCANOpen2Buses1ms_sfun_registry.obj
 0003:0000b348       $SG27401                   0000000180077348     SpeedgoatCANOpen2Buses1ms_sfun_registry.obj
 0003:0000b350       $SG27402                   0000000180077350     SpeedgoatCANOpen2Buses1ms_sfun_registry.obj
 0003:0000b358       $SG27404                   0000000180077358     SpeedgoatCANOpen2Buses1ms_sfun_registry.obj
 0003:0000b390       $SG27405                   0000000180077390     SpeedgoatCANOpen2Buses1ms_sfun_registry.obj
 0003:0000b398       $SG27406                   0000000180077398     SpeedgoatCANOpen2Buses1ms_sfun_registry.obj
 0003:0000b3a0       $SG27409                   00000001800773a0     SpeedgoatCANOpen2Buses1ms_sfun_registry.obj
 0003:0000b3a8       $SG27411                   00000001800773a8     SpeedgoatCANOpen2Buses1ms_sfun_registry.obj
 0003:0000b3c0       $SG27412                   00000001800773c0     SpeedgoatCANOpen2Buses1ms_sfun_registry.obj
 0003:0000b3f8       $SG27413                   00000001800773f8     SpeedgoatCANOpen2Buses1ms_sfun_registry.obj
 0003:0000b400       $SG27414                   0000000180077400     SpeedgoatCANOpen2Buses1ms_sfun_registry.obj
 0003:0000b408       $SG27574                   0000000180077408     SpeedgoatCANOpen2Buses1ms_sfun_registry.obj
 0003:0000b428       $SG27579                   0000000180077428     SpeedgoatCANOpen2Buses1ms_sfun_registry.obj
 0003:0000b440       $SG27575                   0000000180077440     SpeedgoatCANOpen2Buses1ms_sfun_registry.obj
 0003:0000b4d0       $SG27580                   00000001800774d0     SpeedgoatCANOpen2Buses1ms_sfun_registry.obj
 0003:0000b560       $SG27584                   0000000180077560     SpeedgoatCANOpen2Buses1ms_sfun_registry.obj
 0003:0000b578       $SG27599                   0000000180077578     SpeedgoatCANOpen2Buses1ms_sfun_registry.obj
 0003:0000b598       $SG27604                   0000000180077598     SpeedgoatCANOpen2Buses1ms_sfun_registry.obj
 0003:0000b5c0       $SG27585                   00000001800775c0     SpeedgoatCANOpen2Buses1ms_sfun_registry.obj
 0003:0000b650       $SG27589                   0000000180077650     SpeedgoatCANOpen2Buses1ms_sfun_registry.obj
 0003:0000b670       $SG27590                   0000000180077670     SpeedgoatCANOpen2Buses1ms_sfun_registry.obj
 0003:0000b700       $SG27594                   0000000180077700     SpeedgoatCANOpen2Buses1ms_sfun_registry.obj
 0003:0000b720       $SG27595                   0000000180077720     SpeedgoatCANOpen2Buses1ms_sfun_registry.obj
 0003:0000b7b0       $SG27600                   00000001800777b0     SpeedgoatCANOpen2Buses1ms_sfun_registry.obj
 0003:0000b840       $SG27605                   0000000180077840     SpeedgoatCANOpen2Buses1ms_sfun_registry.obj
 0003:0000b8d0       $SG27609                   00000001800778d0     SpeedgoatCANOpen2Buses1ms_sfun_registry.obj
 0003:0000b8f8       $SG27624                   00000001800778f8     SpeedgoatCANOpen2Buses1ms_sfun_registry.obj
 0003:0000b910       $SG27610                   0000000180077910     SpeedgoatCANOpen2Buses1ms_sfun_registry.obj
 0003:0000b9a0       $SG27614                   00000001800779a0     SpeedgoatCANOpen2Buses1ms_sfun_registry.obj
 0003:0000b9c0       $SG27615                   00000001800779c0     SpeedgoatCANOpen2Buses1ms_sfun_registry.obj
 0003:0000ba50       $SG27619                   0000000180077a50     SpeedgoatCANOpen2Buses1ms_sfun_registry.obj
 0003:0000ba70       $SG27620                   0000000180077a70     SpeedgoatCANOpen2Buses1ms_sfun_registry.obj
 0003:0000bb00       $SG27625                   0000000180077b00     SpeedgoatCANOpen2Buses1ms_sfun_registry.obj
 0003:0000bb90       $SG27629                   0000000180077b90     SpeedgoatCANOpen2Buses1ms_sfun_registry.obj
 0003:0000bbb0       $SG27630                   0000000180077bb0     SpeedgoatCANOpen2Buses1ms_sfun_registry.obj
 0003:0000bc40       $SG27634                   0000000180077c40     SpeedgoatCANOpen2Buses1ms_sfun_registry.obj
 0003:0000bc60       $SG27635                   0000000180077c60     SpeedgoatCANOpen2Buses1ms_sfun_registry.obj
 0003:0000bcf0       $SG27639                   0000000180077cf0     SpeedgoatCANOpen2Buses1ms_sfun_registry.obj
 0003:0000bd10       $SG27640                   0000000180077d10     SpeedgoatCANOpen2Buses1ms_sfun_registry.obj
 0003:0000bda0       $SG27644                   0000000180077da0     SpeedgoatCANOpen2Buses1ms_sfun_registry.obj
 0003:0000bdc0       $SG27645                   0000000180077dc0     SpeedgoatCANOpen2Buses1ms_sfun_registry.obj
 0003:0000be50       $SG27649                   0000000180077e50     SpeedgoatCANOpen2Buses1ms_sfun_registry.obj
 0003:0000be70       $SG27650                   0000000180077e70     SpeedgoatCANOpen2Buses1ms_sfun_registry.obj
 0003:0000bf00       $SG27654                   0000000180077f00     SpeedgoatCANOpen2Buses1ms_sfun_registry.obj
 0003:0000bf20       $SG27655                   0000000180077f20     SpeedgoatCANOpen2Buses1ms_sfun_registry.obj
 0003:0000bfb0       $SG27660                   0000000180077fb0     SpeedgoatCANOpen2Buses1ms_sfun_registry.obj
 0003:0000bfc8       $SG27670                   0000000180077fc8     SpeedgoatCANOpen2Buses1ms_sfun_registry.obj
 0003:0000bfe0       $SG27661                   0000000180077fe0     SpeedgoatCANOpen2Buses1ms_sfun_registry.obj
 0003:0000c070       $SG27666                   0000000180078070     SpeedgoatCANOpen2Buses1ms_sfun_registry.obj
 0003:0000c100       $SG27671                   0000000180078100     SpeedgoatCANOpen2Buses1ms_sfun_registry.obj
 0003:0000c190       $SG27675                   0000000180078190     SpeedgoatCANOpen2Buses1ms_sfun_registry.obj
 0003:0000c1a0       $SG27676                   00000001800781a0     SpeedgoatCANOpen2Buses1ms_sfun_registry.obj
 0003:0000c230       $SG27680                   0000000180078230     SpeedgoatCANOpen2Buses1ms_sfun_registry.obj
 0003:0000c240       $SG27681                   0000000180078240     SpeedgoatCANOpen2Buses1ms_sfun_registry.obj
 0003:0000c2d0       $SG27685                   00000001800782d0     SpeedgoatCANOpen2Buses1ms_sfun_registry.obj
 0003:0000c2e0       $SG27686                   00000001800782e0     SpeedgoatCANOpen2Buses1ms_sfun_registry.obj
 0003:0000c370       $SG27690                   0000000180078370     SpeedgoatCANOpen2Buses1ms_sfun_registry.obj
 0003:0000c388       $SG27695                   0000000180078388     SpeedgoatCANOpen2Buses1ms_sfun_registry.obj
 0003:0000c3a0       $SG27691                   00000001800783a0     SpeedgoatCANOpen2Buses1ms_sfun_registry.obj
 0003:0000c430       $SG27696                   0000000180078430     SpeedgoatCANOpen2Buses1ms_sfun_registry.obj
 0003:0000c4c0       $SG27700                   00000001800784c0     SpeedgoatCANOpen2Buses1ms_sfun_registry.obj
 0003:0000c4d0       $SG27701                   00000001800784d0     SpeedgoatCANOpen2Buses1ms_sfun_registry.obj
 0003:0000c560       $SG27709                   0000000180078560     SpeedgoatCANOpen2Buses1ms_sfun_registry.obj
 0003:0000c570       $SG27710                   0000000180078570     SpeedgoatCANOpen2Buses1ms_sfun_registry.obj
 0003:0000c600       $SG27714                   0000000180078600     SpeedgoatCANOpen2Buses1ms_sfun_registry.obj
 0003:0000c610       $SG27715                   0000000180078610     SpeedgoatCANOpen2Buses1ms_sfun_registry.obj
 0003:0000c6a0       $SG27719                   00000001800786a0     SpeedgoatCANOpen2Buses1ms_sfun_registry.obj
 0003:0000c6b0       $SG27720                   00000001800786b0     SpeedgoatCANOpen2Buses1ms_sfun_registry.obj
 0003:0000c740       $SG27725                   0000000180078740     SpeedgoatCANOpen2Buses1ms_sfun_registry.obj
 0003:0000c750       $SG27726                   0000000180078750     SpeedgoatCANOpen2Buses1ms_sfun_registry.obj
 0003:0000c7e0       $SG27730                   00000001800787e0     SpeedgoatCANOpen2Buses1ms_sfun_registry.obj
 0003:0000c858       $SG27767                   0000000180078858     SpeedgoatCANOpen2Buses1ms_sfun_registry.obj
 0003:0000c870       $SG27755                   0000000180078870     SpeedgoatCANOpen2Buses1ms_sfun_registry.obj
 0003:0000c988       $SG27777                   0000000180078988     SpeedgoatCANOpen2Buses1ms_sfun_registry.obj
 0003:0000c998       $SG27789                   0000000180078998     SpeedgoatCANOpen2Buses1ms_sfun_registry.obj
 0003:0000c9a8       $SG27799                   00000001800789a8     SpeedgoatCANOpen2Buses1ms_sfun_registry.obj
 0003:0000c9b8       $SG27811                   00000001800789b8     SpeedgoatCANOpen2Buses1ms_sfun_registry.obj
 0003:0000c9c8       $SG27821                   00000001800789c8     SpeedgoatCANOpen2Buses1ms_sfun_registry.obj
 0003:0000c9d8       $SG27831                   00000001800789d8     SpeedgoatCANOpen2Buses1ms_sfun_registry.obj
 0003:0000ca40       sRtwOptimizationInfoStruct 0000000180078a40     SpeedgoatCANOpen2Buses1ms_sfun.obj
 0003:0000ca48       sOptimizationInfoFlags     0000000180078a48     SpeedgoatCANOpen2Buses1ms_sfun.obj
 0003:0000ca50       _sfTime_                   0000000180078a50     c1_SpeedgoatCANOpen2Buses1ms.obj
 0003:0000ca58       $SG26351                   0000000180078a58     c1_SpeedgoatCANOpen2Buses1ms.obj
 0003:0000ca59       $SG26352                   0000000180078a59     c1_SpeedgoatCANOpen2Buses1ms.obj
 0003:0000ca5a       $SG26353                   0000000180078a5a     c1_SpeedgoatCANOpen2Buses1ms.obj
 0003:0000ca5b       $SG26370                   0000000180078a5b     c1_SpeedgoatCANOpen2Buses1ms.obj
 0003:0000ca60       _sfTime_                   0000000180078a60     c2_SpeedgoatCANOpen2Buses1ms.obj
 0003:0000ca68       $SG26351                   0000000180078a68     c2_SpeedgoatCANOpen2Buses1ms.obj
 0003:0000ca69       $SG26352                   0000000180078a69     c2_SpeedgoatCANOpen2Buses1ms.obj
 0003:0000ca6a       $SG26353                   0000000180078a6a     c2_SpeedgoatCANOpen2Buses1ms.obj
 0003:0000ca6b       $SG26370                   0000000180078a6b     c2_SpeedgoatCANOpen2Buses1ms.obj
 0003:0000ca70       _sfTime_                   0000000180078a70     c3_SpeedgoatCANOpen2Buses1ms.obj
 0003:0000ca78       $SG26458                   0000000180078a78     c3_SpeedgoatCANOpen2Buses1ms.obj
 0003:0000ca79       $SG26459                   0000000180078a79     c3_SpeedgoatCANOpen2Buses1ms.obj
 0003:0000ca7a       $SG26460                   0000000180078a7a     c3_SpeedgoatCANOpen2Buses1ms.obj
 0003:0000ca7b       $SG26477                   0000000180078a7b     c3_SpeedgoatCANOpen2Buses1ms.obj
 0003:0000ca80       _sfTime_                   0000000180078a80     c4_SpeedgoatCANOpen2Buses1ms.obj
 0003:0000ca88       $SG25987                   0000000180078a88     c4_SpeedgoatCANOpen2Buses1ms.obj
 0003:0000ca89       $SG25988                   0000000180078a89     c4_SpeedgoatCANOpen2Buses1ms.obj
 0003:0000ca8a       $SG25989                   0000000180078a8a     c4_SpeedgoatCANOpen2Buses1ms.obj
 0003:0000ca8b       $SG26006                   0000000180078a8b     c4_SpeedgoatCANOpen2Buses1ms.obj
 0003:0000ca90       _sfTime_                   0000000180078a90     c5_SpeedgoatCANOpen2Buses1ms.obj
 0003:0000ca98       $SG26061                   0000000180078a98     c5_SpeedgoatCANOpen2Buses1ms.obj
 0003:0000ca99       $SG26062                   0000000180078a99     c5_SpeedgoatCANOpen2Buses1ms.obj
 0003:0000ca9a       $SG26063                   0000000180078a9a     c5_SpeedgoatCANOpen2Buses1ms.obj
 0003:0000ca9b       $SG26080                   0000000180078a9b     c5_SpeedgoatCANOpen2Buses1ms.obj
 0003:0000caa0       _sfTime_                   0000000180078aa0     c10_SpeedgoatCANOpen2Buses1ms.obj
 0003:0000caa8       $SG26105                   0000000180078aa8     c10_SpeedgoatCANOpen2Buses1ms.obj
 0003:0000caa9       $SG26106                   0000000180078aa9     c10_SpeedgoatCANOpen2Buses1ms.obj
 0003:0000caaa       $SG26107                   0000000180078aaa     c10_SpeedgoatCANOpen2Buses1ms.obj
 0003:0000caab       $SG26124                   0000000180078aab     c10_SpeedgoatCANOpen2Buses1ms.obj
 0003:0000cab0       _sfTime_                   0000000180078ab0     c12_SpeedgoatCANOpen2Buses1ms.obj
 0003:0000cab8       $SG26343                   0000000180078ab8     c12_SpeedgoatCANOpen2Buses1ms.obj
 0003:0000cab9       $SG26344                   0000000180078ab9     c12_SpeedgoatCANOpen2Buses1ms.obj
 0003:0000caba       $SG26345                   0000000180078aba     c12_SpeedgoatCANOpen2Buses1ms.obj
 0003:0000cabb       $SG26362                   0000000180078abb     c12_SpeedgoatCANOpen2Buses1ms.obj
 0003:0000cac0       _sfTime_                   0000000180078ac0     c13_SpeedgoatCANOpen2Buses1ms.obj
 0003:0000cac8       $SG26178                   0000000180078ac8     c13_SpeedgoatCANOpen2Buses1ms.obj
 0003:0000cac9       $SG26179                   0000000180078ac9     c13_SpeedgoatCANOpen2Buses1ms.obj
 0003:0000caca       $SG26180                   0000000180078aca     c13_SpeedgoatCANOpen2Buses1ms.obj
 0003:0000cacb       $SG26197                   0000000180078acb     c13_SpeedgoatCANOpen2Buses1ms.obj
 0003:0000cad0       _sfTime_                   0000000180078ad0     c14_SpeedgoatCANOpen2Buses1ms.obj
 0003:0000cad8       $SG26097                   0000000180078ad8     c14_SpeedgoatCANOpen2Buses1ms.obj
 0003:0000cad9       $SG26098                   0000000180078ad9     c14_SpeedgoatCANOpen2Buses1ms.obj
 0003:0000cada       $SG26099                   0000000180078ada     c14_SpeedgoatCANOpen2Buses1ms.obj
 0003:0000cadb       $SG26116                   0000000180078adb     c14_SpeedgoatCANOpen2Buses1ms.obj
 0003:0000cae0       _sfTime_                   0000000180078ae0     c18_SpeedgoatCANOpen2Buses1ms.obj
 0003:0000cae8       $SG26097                   0000000180078ae8     c18_SpeedgoatCANOpen2Buses1ms.obj
 0003:0000cae9       $SG26098                   0000000180078ae9     c18_SpeedgoatCANOpen2Buses1ms.obj
 0003:0000caea       $SG26099                   0000000180078aea     c18_SpeedgoatCANOpen2Buses1ms.obj
 0003:0000caeb       $SG26116                   0000000180078aeb     c18_SpeedgoatCANOpen2Buses1ms.obj
 0003:0000caf0       _sfTime_                   0000000180078af0     c20_SpeedgoatCANOpen2Buses1ms.obj
 0003:0000caf8       $SG26097                   0000000180078af8     c20_SpeedgoatCANOpen2Buses1ms.obj
 0003:0000caf9       $SG26098                   0000000180078af9     c20_SpeedgoatCANOpen2Buses1ms.obj
 0003:0000cafa       $SG26099                   0000000180078afa     c20_SpeedgoatCANOpen2Buses1ms.obj
 0003:0000cafb       $SG26116                   0000000180078afb     c20_SpeedgoatCANOpen2Buses1ms.obj
 0003:0000cb08       sfGlobalMdlStartCallCounts 0000000180078b08     SpeedgoatCANOpen2Buses1ms_sfun_registry.obj
 0003:0000cb0c       $SG27249                   0000000180078b0c     SpeedgoatCANOpen2Buses1ms_sfun_registry.obj
 0003:0000cb10       GS_ExceptionRecord         0000000180078b10     MSVCRT:gs_report.obj
 0003:0000cbb0       GS_ContextRecord           0000000180078bb0     MSVCRT:gs_report.obj
 0003:0000d080       ?__proc_attached@@3HA      0000000180079080     MSVCRT:dll_dllmain.obj
 0003:0000d0c0       ?is_initialized_as_dll@@3_NA 00000001800790c0     MSVCRT:utility.obj
 0003:0000d0c1       ?module_local_atexit_table_initialized@@3_NA 00000001800790c1     MSVCRT:utility.obj
 0003:0000d0c8       ?module_local_atexit_table@@3U_onexit_table_t@@A 00000001800790c8     MSVCRT:utility.obj
 0003:0000d0e0       ?module_local_at_quick_exit_table@@3U_onexit_table_t@@A 00000001800790e0     MSVCRT:utility.obj
 0004:00000000       $pdata$load_SpeedgoatCANOpen2Buses1ms_optimization_info 000000018007a000     SpeedgoatCANOpen2Buses1ms_sfun.obj
 0004:0000000c       $pdata$unload_SpeedgoatCANOpen2Buses1ms_optimization_info 000000018007a00c     SpeedgoatCANOpen2Buses1ms_sfun.obj
 0004:00000018       $pdata$sf_SpeedgoatCANOpen2Buses1ms_method_dispatcher 000000018007a018     SpeedgoatCANOpen2Buses1ms_sfun.obj
 0004:00000024       $pdata$sf_SpeedgoatCANOpen2Buses1ms_process_testpoint_info_call 000000018007a024     SpeedgoatCANOpen2Buses1ms_sfun.obj
 0004:00000030       $pdata$sf_SpeedgoatCANOpen2Buses1ms_process_check_sum_call 000000018007a030     SpeedgoatCANOpen2Buses1ms_sfun.obj
 0004:0000003c       $pdata$sf_SpeedgoatCANOpen2Buses1ms_autoinheritance_info 000000018007a03c     SpeedgoatCANOpen2Buses1ms_sfun.obj
 0004:00000048       $pdata$sf_SpeedgoatCANOpen2Buses1ms_get_eml_resolved_functions_info 000000018007a048     SpeedgoatCANOpen2Buses1ms_sfun.obj
 0004:00000054       $pdata$sf_SpeedgoatCANOpen2Buses1ms_third_party_uses_info 000000018007a054     SpeedgoatCANOpen2Buses1ms_sfun.obj
 0004:00000060       $pdata$sf_SpeedgoatCANOpen2Buses1ms_jit_fallback_info 000000018007a060     SpeedgoatCANOpen2Buses1ms_sfun.obj
 0004:0000006c       $pdata$sf_SpeedgoatCANOpen2Buses1ms_updateBuildInfo_args_info 000000018007a06c     SpeedgoatCANOpen2Buses1ms_sfun.obj
 0004:00000078       $pdata$SpeedgoatCANOpen2Buses1ms_debug_initialize 000000018007a078     SpeedgoatCANOpen2Buses1ms_sfun.obj
 0004:00000084       $pdata$sf_c1_SpeedgoatCANOpen2Buses1ms_get_eml_resolved_functions_info 000000018007a084     c1_SpeedgoatCANOpen2Buses1ms.obj
 0004:00000090       $pdata$sf_c1_SpeedgoatCANOpen2Buses1ms_get_check_sum 000000018007a090     c1_SpeedgoatCANOpen2Buses1ms.obj
 0004:0000009c       $pdata$c1_SpeedgoatCANOpen2Buses1ms_method_dispatcher 000000018007a09c     c1_SpeedgoatCANOpen2Buses1ms.obj
 0004:000000a8       $pdata$chart_debug_initialization 000000018007a0a8     c1_SpeedgoatCANOpen2Buses1ms.obj
 0004:000000b4       $pdata$chart_debug_initialize_data_addresses 000000018007a0b4     c1_SpeedgoatCANOpen2Buses1ms.obj
 0004:000000c0       $pdata$sf_opaque_get_hover_data_for_msg 000000018007a0c0     c1_SpeedgoatCANOpen2Buses1ms.obj
 0004:000000cc       $pdata$initialize_c1_SpeedgoatCANOpen2Buses1ms 000000018007a0cc     c1_SpeedgoatCANOpen2Buses1ms.obj
 0004:000000d8       $pdata$enable_c1_SpeedgoatCANOpen2Buses1ms 000000018007a0d8     c1_SpeedgoatCANOpen2Buses1ms.obj
 0004:000000e4       $pdata$disable_c1_SpeedgoatCANOpen2Buses1ms 000000018007a0e4     c1_SpeedgoatCANOpen2Buses1ms.obj
 0004:000000f0       $pdata$c1_update_debugger_state_c1_SpeedgoatCANOpen2Buses1ms 000000018007a0f0     c1_SpeedgoatCANOpen2Buses1ms.obj
 0004:000000fc       $pdata$ext_mode_exec_c1_SpeedgoatCANOpen2Buses1ms 000000018007a0fc     c1_SpeedgoatCANOpen2Buses1ms.obj
 0004:00000108       $pdata$get_sim_state_c1_SpeedgoatCANOpen2Buses1ms 000000018007a108     c1_SpeedgoatCANOpen2Buses1ms.obj
 0004:00000114       $pdata$set_sim_state_c1_SpeedgoatCANOpen2Buses1ms 000000018007a114     c1_SpeedgoatCANOpen2Buses1ms.obj
 0004:00000120       $pdata$finalize_c1_SpeedgoatCANOpen2Buses1ms 000000018007a120     c1_SpeedgoatCANOpen2Buses1ms.obj
 0004:0000012c       $pdata$sf_gateway_c1_SpeedgoatCANOpen2Buses1ms 000000018007a12c     c1_SpeedgoatCANOpen2Buses1ms.obj
 0004:00000138       $pdata$mdl_start_c1_SpeedgoatCANOpen2Buses1ms 000000018007a138     c1_SpeedgoatCANOpen2Buses1ms.obj
 0004:00000144       $pdata$c1_chartstep_c1_SpeedgoatCANOpen2Buses1ms 000000018007a144     c1_SpeedgoatCANOpen2Buses1ms.obj
 0004:00000150       $pdata$c1_enter_atomic_Init 000000018007a150     c1_SpeedgoatCANOpen2Buses1ms.obj
 0004:0000015c       $pdata$c1_enter_atomic_Wait 000000018007a15c     c1_SpeedgoatCANOpen2Buses1ms.obj
 0004:00000168       $pdata$c1_sf_marshallOut   000000018007a168     c1_SpeedgoatCANOpen2Buses1ms.obj
 0004:00000174       $pdata$c1_emlrt_marshallIn 000000018007a174     c1_SpeedgoatCANOpen2Buses1ms.obj
 0004:00000180       $pdata$c1_sf_marshallIn    000000018007a180     c1_SpeedgoatCANOpen2Buses1ms.obj
 0004:0000018c       $pdata$c1_b_sf_marshallOut 000000018007a18c     c1_SpeedgoatCANOpen2Buses1ms.obj
 0004:00000198       $pdata$c1_b_emlrt_marshallIn 000000018007a198     c1_SpeedgoatCANOpen2Buses1ms.obj
 0004:000001a4       $pdata$c1_b_sf_marshallIn  000000018007a1a4     c1_SpeedgoatCANOpen2Buses1ms.obj
 0004:000001b0       $pdata$c1_d_sf_marshallOut 000000018007a1b0     c1_SpeedgoatCANOpen2Buses1ms.obj
 0004:000001bc       $pdata$c1_d_emlrt_marshallIn 000000018007a1bc     c1_SpeedgoatCANOpen2Buses1ms.obj
 0004:000001c8       $pdata$c1_e_emlrt_marshallIn 000000018007a1c8     c1_SpeedgoatCANOpen2Buses1ms.obj
 0004:000001d4       $pdata$c1_d_sf_marshallIn  000000018007a1d4     c1_SpeedgoatCANOpen2Buses1ms.obj
 0004:000001e0       $pdata$c1_f_emlrt_marshallIn 000000018007a1e0     c1_SpeedgoatCANOpen2Buses1ms.obj
 0004:000001ec       $pdata$c1_g_emlrt_marshallIn 000000018007a1ec     c1_SpeedgoatCANOpen2Buses1ms.obj
 0004:000001f8       $pdata$c1_h_emlrt_marshallIn 000000018007a1f8     c1_SpeedgoatCANOpen2Buses1ms.obj
 0004:00000204       $pdata$c1_i_emlrt_marshallIn 000000018007a204     c1_SpeedgoatCANOpen2Buses1ms.obj
 0004:00000210       $pdata$c1_j_emlrt_marshallIn 000000018007a210     c1_SpeedgoatCANOpen2Buses1ms.obj
 0004:0000021c       $pdata$c1_k_emlrt_marshallIn 000000018007a21c     c1_SpeedgoatCANOpen2Buses1ms.obj
 0004:00000228       $pdata$init_simulink_io_address 000000018007a228     c1_SpeedgoatCANOpen2Buses1ms.obj
 0004:00000234       $pdata$sf_c1_SpeedgoatCANOpen2Buses1ms_get_post_codegen_info 000000018007a234     c1_SpeedgoatCANOpen2Buses1ms.obj
 0004:00000240       $pdata$sf_c1_SpeedgoatCANOpen2Buses1ms_get_autoinheritance_info 000000018007a240     c1_SpeedgoatCANOpen2Buses1ms.obj
 0004:0000024c       $pdata$sf_c1_SpeedgoatCANOpen2Buses1ms_third_party_uses_info 000000018007a24c     c1_SpeedgoatCANOpen2Buses1ms.obj
 0004:00000258       $pdata$sf_c1_SpeedgoatCANOpen2Buses1ms_jit_fallback_info 000000018007a258     c1_SpeedgoatCANOpen2Buses1ms.obj
 0004:00000264       $pdata$sf_c1_SpeedgoatCANOpen2Buses1ms_updateBuildInfo_args_info 000000018007a264     c1_SpeedgoatCANOpen2Buses1ms.obj
 0004:00000270       $pdata$sf_get_sim_state_info_c1_SpeedgoatCANOpen2Buses1ms 000000018007a270     c1_SpeedgoatCANOpen2Buses1ms.obj
 0004:0000027c       $pdata$sf_check_dwork_consistency 000000018007a27c     c1_SpeedgoatCANOpen2Buses1ms.obj
 0004:00000288       $pdata$sf_opaque_initialize_c1_SpeedgoatCANOpen2Buses1ms 000000018007a288     c1_SpeedgoatCANOpen2Buses1ms.obj
 0004:00000294       $pdata$sf_opaque_enable_c1_SpeedgoatCANOpen2Buses1ms 000000018007a294     c1_SpeedgoatCANOpen2Buses1ms.obj
 0004:000002a0       $pdata$sf_opaque_disable_c1_SpeedgoatCANOpen2Buses1ms 000000018007a2a0     c1_SpeedgoatCANOpen2Buses1ms.obj
 0004:000002ac       $pdata$sf_opaque_gateway_c1_SpeedgoatCANOpen2Buses1ms 000000018007a2ac     c1_SpeedgoatCANOpen2Buses1ms.obj
 0004:000002b8       $pdata$sf_opaque_ext_mode_exec_c1_SpeedgoatCANOpen2Buses1ms 000000018007a2b8     c1_SpeedgoatCANOpen2Buses1ms.obj
 0004:000002c4       $pdata$sf_opaque_get_sim_state_c1_SpeedgoatCANOpen2Buses1ms 000000018007a2c4     c1_SpeedgoatCANOpen2Buses1ms.obj
 0004:000002d0       $pdata$sf_opaque_set_sim_state_c1_SpeedgoatCANOpen2Buses1ms 000000018007a2d0     c1_SpeedgoatCANOpen2Buses1ms.obj
 0004:000002dc       $pdata$sf_opaque_terminate_c1_SpeedgoatCANOpen2Buses1ms 000000018007a2dc     c1_SpeedgoatCANOpen2Buses1ms.obj
 0004:000002e8       $pdata$mdlProcessParameters_c1_SpeedgoatCANOpen2Buses1ms 000000018007a2e8     c1_SpeedgoatCANOpen2Buses1ms.obj
 0004:000002f4       $pdata$sf_set_sfun_dwork_info 000000018007a2f4     c1_SpeedgoatCANOpen2Buses1ms.obj
 0004:00000300       $pdata$mdlSetWorkWidths_c1_SpeedgoatCANOpen2Buses1ms 000000018007a300     c1_SpeedgoatCANOpen2Buses1ms.obj
 0004:0000030c       $pdata$mdlRTW_c1_SpeedgoatCANOpen2Buses1ms 000000018007a30c     c1_SpeedgoatCANOpen2Buses1ms.obj
 0004:00000318       $pdata$mdlStart_c1_SpeedgoatCANOpen2Buses1ms 000000018007a318     c1_SpeedgoatCANOpen2Buses1ms.obj
 0004:00000324       $pdata$sf_c2_SpeedgoatCANOpen2Buses1ms_get_eml_resolved_functions_info 000000018007a324     c2_SpeedgoatCANOpen2Buses1ms.obj
 0004:00000330       $pdata$sf_c2_SpeedgoatCANOpen2Buses1ms_get_check_sum 000000018007a330     c2_SpeedgoatCANOpen2Buses1ms.obj
 0004:0000033c       $pdata$c2_SpeedgoatCANOpen2Buses1ms_method_dispatcher 000000018007a33c     c2_SpeedgoatCANOpen2Buses1ms.obj
 0004:00000348       $pdata$chart_debug_initialization 000000018007a348     c2_SpeedgoatCANOpen2Buses1ms.obj
 0004:00000354       $pdata$chart_debug_initialize_data_addresses 000000018007a354     c2_SpeedgoatCANOpen2Buses1ms.obj
 0004:00000360       $pdata$sf_opaque_get_hover_data_for_msg 000000018007a360     c2_SpeedgoatCANOpen2Buses1ms.obj
 0004:0000036c       $pdata$initialize_c2_SpeedgoatCANOpen2Buses1ms 000000018007a36c     c2_SpeedgoatCANOpen2Buses1ms.obj
 0004:00000378       $pdata$enable_c2_SpeedgoatCANOpen2Buses1ms 000000018007a378     c2_SpeedgoatCANOpen2Buses1ms.obj
 0004:00000384       $pdata$disable_c2_SpeedgoatCANOpen2Buses1ms 000000018007a384     c2_SpeedgoatCANOpen2Buses1ms.obj
 0004:00000390       $pdata$c2_update_debugger_state_c2_SpeedgoatCANOpen2Buses1ms 000000018007a390     c2_SpeedgoatCANOpen2Buses1ms.obj
 0004:0000039c       $pdata$ext_mode_exec_c2_SpeedgoatCANOpen2Buses1ms 000000018007a39c     c2_SpeedgoatCANOpen2Buses1ms.obj
 0004:000003a8       $pdata$get_sim_state_c2_SpeedgoatCANOpen2Buses1ms 000000018007a3a8     c2_SpeedgoatCANOpen2Buses1ms.obj
 0004:000003b4       $pdata$set_sim_state_c2_SpeedgoatCANOpen2Buses1ms 000000018007a3b4     c2_SpeedgoatCANOpen2Buses1ms.obj
 0004:000003c0       $pdata$finalize_c2_SpeedgoatCANOpen2Buses1ms 000000018007a3c0     c2_SpeedgoatCANOpen2Buses1ms.obj
 0004:000003cc       $pdata$sf_gateway_c2_SpeedgoatCANOpen2Buses1ms 000000018007a3cc     c2_SpeedgoatCANOpen2Buses1ms.obj
 0004:000003d8       $pdata$mdl_start_c2_SpeedgoatCANOpen2Buses1ms 000000018007a3d8     c2_SpeedgoatCANOpen2Buses1ms.obj
 0004:000003e4       $pdata$c2_chartstep_c2_SpeedgoatCANOpen2Buses1ms 000000018007a3e4     c2_SpeedgoatCANOpen2Buses1ms.obj
 0004:000003f0       $pdata$c2_enter_atomic_Init 000000018007a3f0     c2_SpeedgoatCANOpen2Buses1ms.obj
 0004:000003fc       $pdata$c2_enter_atomic_Wait 000000018007a3fc     c2_SpeedgoatCANOpen2Buses1ms.obj
 0004:00000408       $pdata$c2_sf_marshallOut   000000018007a408     c2_SpeedgoatCANOpen2Buses1ms.obj
 0004:00000414       $pdata$c2_emlrt_marshallIn 000000018007a414     c2_SpeedgoatCANOpen2Buses1ms.obj
 0004:00000420       $pdata$c2_sf_marshallIn    000000018007a420     c2_SpeedgoatCANOpen2Buses1ms.obj
 0004:0000042c       $pdata$c2_b_sf_marshallOut 000000018007a42c     c2_SpeedgoatCANOpen2Buses1ms.obj
 0004:00000438       $pdata$c2_b_emlrt_marshallIn 000000018007a438     c2_SpeedgoatCANOpen2Buses1ms.obj
 0004:00000444       $pdata$c2_b_sf_marshallIn  000000018007a444     c2_SpeedgoatCANOpen2Buses1ms.obj
 0004:00000450       $pdata$c2_d_sf_marshallOut 000000018007a450     c2_SpeedgoatCANOpen2Buses1ms.obj
 0004:0000045c       $pdata$c2_d_emlrt_marshallIn 000000018007a45c     c2_SpeedgoatCANOpen2Buses1ms.obj
 0004:00000468       $pdata$c2_e_emlrt_marshallIn 000000018007a468     c2_SpeedgoatCANOpen2Buses1ms.obj
 0004:00000474       $pdata$c2_d_sf_marshallIn  000000018007a474     c2_SpeedgoatCANOpen2Buses1ms.obj
 0004:00000480       $pdata$c2_f_emlrt_marshallIn 000000018007a480     c2_SpeedgoatCANOpen2Buses1ms.obj
 0004:0000048c       $pdata$c2_g_emlrt_marshallIn 000000018007a48c     c2_SpeedgoatCANOpen2Buses1ms.obj
 0004:00000498       $pdata$c2_h_emlrt_marshallIn 000000018007a498     c2_SpeedgoatCANOpen2Buses1ms.obj
 0004:000004a4       $pdata$c2_i_emlrt_marshallIn 000000018007a4a4     c2_SpeedgoatCANOpen2Buses1ms.obj
 0004:000004b0       $pdata$c2_j_emlrt_marshallIn 000000018007a4b0     c2_SpeedgoatCANOpen2Buses1ms.obj
 0004:000004bc       $pdata$c2_k_emlrt_marshallIn 000000018007a4bc     c2_SpeedgoatCANOpen2Buses1ms.obj
 0004:000004c8       $pdata$init_simulink_io_address 000000018007a4c8     c2_SpeedgoatCANOpen2Buses1ms.obj
 0004:000004d4       $pdata$sf_c2_SpeedgoatCANOpen2Buses1ms_get_post_codegen_info 000000018007a4d4     c2_SpeedgoatCANOpen2Buses1ms.obj
 0004:000004e0       $pdata$sf_c2_SpeedgoatCANOpen2Buses1ms_get_autoinheritance_info 000000018007a4e0     c2_SpeedgoatCANOpen2Buses1ms.obj
 0004:000004ec       $pdata$sf_c2_SpeedgoatCANOpen2Buses1ms_third_party_uses_info 000000018007a4ec     c2_SpeedgoatCANOpen2Buses1ms.obj
 0004:000004f8       $pdata$sf_c2_SpeedgoatCANOpen2Buses1ms_jit_fallback_info 000000018007a4f8     c2_SpeedgoatCANOpen2Buses1ms.obj
 0004:00000504       $pdata$sf_c2_SpeedgoatCANOpen2Buses1ms_updateBuildInfo_args_info 000000018007a504     c2_SpeedgoatCANOpen2Buses1ms.obj
 0004:00000510       $pdata$sf_get_sim_state_info_c2_SpeedgoatCANOpen2Buses1ms 000000018007a510     c2_SpeedgoatCANOpen2Buses1ms.obj
 0004:0000051c       $pdata$sf_check_dwork_consistency 000000018007a51c     c2_SpeedgoatCANOpen2Buses1ms.obj
 0004:00000528       $pdata$sf_opaque_initialize_c2_SpeedgoatCANOpen2Buses1ms 000000018007a528     c2_SpeedgoatCANOpen2Buses1ms.obj
 0004:00000534       $pdata$sf_opaque_enable_c2_SpeedgoatCANOpen2Buses1ms 000000018007a534     c2_SpeedgoatCANOpen2Buses1ms.obj
 0004:00000540       $pdata$sf_opaque_disable_c2_SpeedgoatCANOpen2Buses1ms 000000018007a540     c2_SpeedgoatCANOpen2Buses1ms.obj
 0004:0000054c       $pdata$sf_opaque_gateway_c2_SpeedgoatCANOpen2Buses1ms 000000018007a54c     c2_SpeedgoatCANOpen2Buses1ms.obj
 0004:00000558       $pdata$sf_opaque_ext_mode_exec_c2_SpeedgoatCANOpen2Buses1ms 000000018007a558     c2_SpeedgoatCANOpen2Buses1ms.obj
 0004:00000564       $pdata$sf_opaque_get_sim_state_c2_SpeedgoatCANOpen2Buses1ms 000000018007a564     c2_SpeedgoatCANOpen2Buses1ms.obj
 0004:00000570       $pdata$sf_opaque_set_sim_state_c2_SpeedgoatCANOpen2Buses1ms 000000018007a570     c2_SpeedgoatCANOpen2Buses1ms.obj
 0004:0000057c       $pdata$sf_opaque_terminate_c2_SpeedgoatCANOpen2Buses1ms 000000018007a57c     c2_SpeedgoatCANOpen2Buses1ms.obj
 0004:00000588       $pdata$mdlProcessParameters_c2_SpeedgoatCANOpen2Buses1ms 000000018007a588     c2_SpeedgoatCANOpen2Buses1ms.obj
 0004:00000594       $pdata$sf_set_sfun_dwork_info 000000018007a594     c2_SpeedgoatCANOpen2Buses1ms.obj
 0004:000005a0       $pdata$mdlSetWorkWidths_c2_SpeedgoatCANOpen2Buses1ms 000000018007a5a0     c2_SpeedgoatCANOpen2Buses1ms.obj
 0004:000005ac       $pdata$mdlRTW_c2_SpeedgoatCANOpen2Buses1ms 000000018007a5ac     c2_SpeedgoatCANOpen2Buses1ms.obj
 0004:000005b8       $pdata$mdlStart_c2_SpeedgoatCANOpen2Buses1ms 000000018007a5b8     c2_SpeedgoatCANOpen2Buses1ms.obj
 0004:000005c4       $pdata$sf_c3_SpeedgoatCANOpen2Buses1ms_get_eml_resolved_functions_info 000000018007a5c4     c3_SpeedgoatCANOpen2Buses1ms.obj
 0004:000005d0       $pdata$sf_c3_SpeedgoatCANOpen2Buses1ms_get_check_sum 000000018007a5d0     c3_SpeedgoatCANOpen2Buses1ms.obj
 0004:000005dc       $pdata$c3_SpeedgoatCANOpen2Buses1ms_method_dispatcher 000000018007a5dc     c3_SpeedgoatCANOpen2Buses1ms.obj
 0004:000005e8       $pdata$chart_debug_initialization 000000018007a5e8     c3_SpeedgoatCANOpen2Buses1ms.obj
 0004:000005f4       $pdata$chart_debug_initialize_data_addresses 000000018007a5f4     c3_SpeedgoatCANOpen2Buses1ms.obj
 0004:00000600       $pdata$sf_opaque_get_hover_data_for_msg 000000018007a600     c3_SpeedgoatCANOpen2Buses1ms.obj
 0004:0000060c       $pdata$initialize_c3_SpeedgoatCANOpen2Buses1ms 000000018007a60c     c3_SpeedgoatCANOpen2Buses1ms.obj
 0004:00000618       $pdata$enable_c3_SpeedgoatCANOpen2Buses1ms 000000018007a618     c3_SpeedgoatCANOpen2Buses1ms.obj
 0004:00000624       $pdata$disable_c3_SpeedgoatCANOpen2Buses1ms 000000018007a624     c3_SpeedgoatCANOpen2Buses1ms.obj
 0004:00000630       $pdata$c3_update_debugger_state_c3_SpeedgoatCANOpen2Buses1ms 000000018007a630     c3_SpeedgoatCANOpen2Buses1ms.obj
 0004:0000063c       $pdata$ext_mode_exec_c3_SpeedgoatCANOpen2Buses1ms 000000018007a63c     c3_SpeedgoatCANOpen2Buses1ms.obj
 0004:00000648       $pdata$get_sim_state_c3_SpeedgoatCANOpen2Buses1ms 000000018007a648     c3_SpeedgoatCANOpen2Buses1ms.obj
 0004:00000654       $pdata$set_sim_state_c3_SpeedgoatCANOpen2Buses1ms 000000018007a654     c3_SpeedgoatCANOpen2Buses1ms.obj
 0004:00000660       $pdata$finalize_c3_SpeedgoatCANOpen2Buses1ms 000000018007a660     c3_SpeedgoatCANOpen2Buses1ms.obj
 0004:0000066c       $pdata$sf_gateway_c3_SpeedgoatCANOpen2Buses1ms 000000018007a66c     c3_SpeedgoatCANOpen2Buses1ms.obj
 0004:00000678       $pdata$mdl_start_c3_SpeedgoatCANOpen2Buses1ms 000000018007a678     c3_SpeedgoatCANOpen2Buses1ms.obj
 0004:00000684       $pdata$c3_chartstep_c3_SpeedgoatCANOpen2Buses1ms 000000018007a684     c3_SpeedgoatCANOpen2Buses1ms.obj
 0004:00000690       $pdata$c3_enter_atomic_Init 000000018007a690     c3_SpeedgoatCANOpen2Buses1ms.obj
 0004:0000069c       $pdata$c3_Clear_Error      000000018007a69c     c3_SpeedgoatCANOpen2Buses1ms.obj
 0004:000006a8       $pdata$c3_enter_atomic_Wait 000000018007a6a8     c3_SpeedgoatCANOpen2Buses1ms.obj
 0004:000006b4       $pdata$c3_sf_marshallOut   000000018007a6b4     c3_SpeedgoatCANOpen2Buses1ms.obj
 0004:000006c0       $pdata$c3_emlrt_marshallIn 000000018007a6c0     c3_SpeedgoatCANOpen2Buses1ms.obj
 0004:000006cc       $pdata$c3_sf_marshallIn    000000018007a6cc     c3_SpeedgoatCANOpen2Buses1ms.obj
 0004:000006d8       $pdata$c3_b_sf_marshallOut 000000018007a6d8     c3_SpeedgoatCANOpen2Buses1ms.obj
 0004:000006e4       $pdata$c3_b_emlrt_marshallIn 000000018007a6e4     c3_SpeedgoatCANOpen2Buses1ms.obj
 0004:000006f0       $pdata$c3_b_sf_marshallIn  000000018007a6f0     c3_SpeedgoatCANOpen2Buses1ms.obj
 0004:000006fc       $pdata$c3_d_sf_marshallOut 000000018007a6fc     c3_SpeedgoatCANOpen2Buses1ms.obj
 0004:00000708       $pdata$c3_d_emlrt_marshallIn 000000018007a708     c3_SpeedgoatCANOpen2Buses1ms.obj
 0004:00000714       $pdata$c3_e_emlrt_marshallIn 000000018007a714     c3_SpeedgoatCANOpen2Buses1ms.obj
 0004:00000720       $pdata$c3_d_sf_marshallIn  000000018007a720     c3_SpeedgoatCANOpen2Buses1ms.obj
 0004:0000072c       $pdata$c3_f_emlrt_marshallIn 000000018007a72c     c3_SpeedgoatCANOpen2Buses1ms.obj
 0004:00000738       $pdata$c3_g_emlrt_marshallIn 000000018007a738     c3_SpeedgoatCANOpen2Buses1ms.obj
 0004:00000744       $pdata$c3_h_emlrt_marshallIn 000000018007a744     c3_SpeedgoatCANOpen2Buses1ms.obj
 0004:00000750       $pdata$c3_i_emlrt_marshallIn 000000018007a750     c3_SpeedgoatCANOpen2Buses1ms.obj
 0004:0000075c       $pdata$c3_j_emlrt_marshallIn 000000018007a75c     c3_SpeedgoatCANOpen2Buses1ms.obj
 0004:00000768       $pdata$c3_k_emlrt_marshallIn 000000018007a768     c3_SpeedgoatCANOpen2Buses1ms.obj
 0004:00000774       $pdata$init_simulink_io_address 000000018007a774     c3_SpeedgoatCANOpen2Buses1ms.obj
 0004:00000780       $pdata$sf_c3_SpeedgoatCANOpen2Buses1ms_get_post_codegen_info 000000018007a780     c3_SpeedgoatCANOpen2Buses1ms.obj
 0004:0000078c       $pdata$sf_c3_SpeedgoatCANOpen2Buses1ms_get_autoinheritance_info 000000018007a78c     c3_SpeedgoatCANOpen2Buses1ms.obj
 0004:00000798       $pdata$sf_c3_SpeedgoatCANOpen2Buses1ms_third_party_uses_info 000000018007a798     c3_SpeedgoatCANOpen2Buses1ms.obj
 0004:000007a4       $pdata$sf_c3_SpeedgoatCANOpen2Buses1ms_jit_fallback_info 000000018007a7a4     c3_SpeedgoatCANOpen2Buses1ms.obj
 0004:000007b0       $pdata$sf_c3_SpeedgoatCANOpen2Buses1ms_updateBuildInfo_args_info 000000018007a7b0     c3_SpeedgoatCANOpen2Buses1ms.obj
 0004:000007bc       $pdata$sf_get_sim_state_info_c3_SpeedgoatCANOpen2Buses1ms 000000018007a7bc     c3_SpeedgoatCANOpen2Buses1ms.obj
 0004:000007c8       $pdata$sf_check_dwork_consistency 000000018007a7c8     c3_SpeedgoatCANOpen2Buses1ms.obj
 0004:000007d4       $pdata$sf_opaque_initialize_c3_SpeedgoatCANOpen2Buses1ms 000000018007a7d4     c3_SpeedgoatCANOpen2Buses1ms.obj
 0004:000007e0       $pdata$sf_opaque_enable_c3_SpeedgoatCANOpen2Buses1ms 000000018007a7e0     c3_SpeedgoatCANOpen2Buses1ms.obj
 0004:000007ec       $pdata$sf_opaque_disable_c3_SpeedgoatCANOpen2Buses1ms 000000018007a7ec     c3_SpeedgoatCANOpen2Buses1ms.obj
 0004:000007f8       $pdata$sf_opaque_gateway_c3_SpeedgoatCANOpen2Buses1ms 000000018007a7f8     c3_SpeedgoatCANOpen2Buses1ms.obj
 0004:00000804       $pdata$sf_opaque_ext_mode_exec_c3_SpeedgoatCANOpen2Buses1ms 000000018007a804     c3_SpeedgoatCANOpen2Buses1ms.obj
 0004:00000810       $pdata$sf_opaque_get_sim_state_c3_SpeedgoatCANOpen2Buses1ms 000000018007a810     c3_SpeedgoatCANOpen2Buses1ms.obj
 0004:0000081c       $pdata$sf_opaque_set_sim_state_c3_SpeedgoatCANOpen2Buses1ms 000000018007a81c     c3_SpeedgoatCANOpen2Buses1ms.obj
 0004:00000828       $pdata$sf_opaque_terminate_c3_SpeedgoatCANOpen2Buses1ms 000000018007a828     c3_SpeedgoatCANOpen2Buses1ms.obj
 0004:00000834       $pdata$mdlProcessParameters_c3_SpeedgoatCANOpen2Buses1ms 000000018007a834     c3_SpeedgoatCANOpen2Buses1ms.obj
 0004:00000840       $pdata$sf_set_sfun_dwork_info 000000018007a840     c3_SpeedgoatCANOpen2Buses1ms.obj
 0004:0000084c       $pdata$mdlSetWorkWidths_c3_SpeedgoatCANOpen2Buses1ms 000000018007a84c     c3_SpeedgoatCANOpen2Buses1ms.obj
 0004:00000858       $pdata$mdlRTW_c3_SpeedgoatCANOpen2Buses1ms 000000018007a858     c3_SpeedgoatCANOpen2Buses1ms.obj
 0004:00000864       $pdata$mdlStart_c3_SpeedgoatCANOpen2Buses1ms 000000018007a864     c3_SpeedgoatCANOpen2Buses1ms.obj
 0004:00000870       $pdata$sf_c4_SpeedgoatCANOpen2Buses1ms_get_eml_resolved_functions_info 000000018007a870     c4_SpeedgoatCANOpen2Buses1ms.obj
 0004:0000087c       $pdata$sf_c4_SpeedgoatCANOpen2Buses1ms_get_check_sum 000000018007a87c     c4_SpeedgoatCANOpen2Buses1ms.obj
 0004:00000888       $pdata$c4_SpeedgoatCANOpen2Buses1ms_method_dispatcher 000000018007a888     c4_SpeedgoatCANOpen2Buses1ms.obj
 0004:00000894       $pdata$chart_debug_initialization 000000018007a894     c4_SpeedgoatCANOpen2Buses1ms.obj
 0004:000008a0       $pdata$chart_debug_initialize_data_addresses 000000018007a8a0     c4_SpeedgoatCANOpen2Buses1ms.obj
 0004:000008ac       $pdata$sf_opaque_get_hover_data_for_msg 000000018007a8ac     c4_SpeedgoatCANOpen2Buses1ms.obj
 0004:000008b8       $pdata$initialize_c4_SpeedgoatCANOpen2Buses1ms 000000018007a8b8     c4_SpeedgoatCANOpen2Buses1ms.obj
 0004:000008c4       $pdata$enable_c4_SpeedgoatCANOpen2Buses1ms 000000018007a8c4     c4_SpeedgoatCANOpen2Buses1ms.obj
 0004:000008d0       $pdata$disable_c4_SpeedgoatCANOpen2Buses1ms 000000018007a8d0     c4_SpeedgoatCANOpen2Buses1ms.obj
 0004:000008dc       $pdata$c4_update_debugger_state_c4_SpeedgoatCANOpen2Buses1ms 000000018007a8dc     c4_SpeedgoatCANOpen2Buses1ms.obj
 0004:000008e8       $pdata$ext_mode_exec_c4_SpeedgoatCANOpen2Buses1ms 000000018007a8e8     c4_SpeedgoatCANOpen2Buses1ms.obj
 0004:000008f4       $pdata$get_sim_state_c4_SpeedgoatCANOpen2Buses1ms 000000018007a8f4     c4_SpeedgoatCANOpen2Buses1ms.obj
 0004:00000900       $pdata$set_sim_state_c4_SpeedgoatCANOpen2Buses1ms 000000018007a900     c4_SpeedgoatCANOpen2Buses1ms.obj
 0004:0000090c       $pdata$finalize_c4_SpeedgoatCANOpen2Buses1ms 000000018007a90c     c4_SpeedgoatCANOpen2Buses1ms.obj
 0004:00000918       $pdata$sf_gateway_c4_SpeedgoatCANOpen2Buses1ms 000000018007a918     c4_SpeedgoatCANOpen2Buses1ms.obj
 0004:00000924       $pdata$mdl_start_c4_SpeedgoatCANOpen2Buses1ms 000000018007a924     c4_SpeedgoatCANOpen2Buses1ms.obj
 0004:00000930       $pdata$c4_sf_marshallOut   000000018007a930     c4_SpeedgoatCANOpen2Buses1ms.obj
 0004:0000093c       $pdata$c4_emlrt_marshallIn 000000018007a93c     c4_SpeedgoatCANOpen2Buses1ms.obj
 0004:00000948       $pdata$c4_sf_marshallIn    000000018007a948     c4_SpeedgoatCANOpen2Buses1ms.obj
 0004:00000954       $pdata$c4_b_sf_marshallOut 000000018007a954     c4_SpeedgoatCANOpen2Buses1ms.obj
 0004:00000960       $pdata$c4_b_emlrt_marshallIn 000000018007a960     c4_SpeedgoatCANOpen2Buses1ms.obj
 0004:0000096c       $pdata$c4_b_sf_marshallIn  000000018007a96c     c4_SpeedgoatCANOpen2Buses1ms.obj
 0004:00000978       $pdata$c4_d_sf_marshallOut 000000018007a978     c4_SpeedgoatCANOpen2Buses1ms.obj
 0004:00000984       $pdata$c4_d_emlrt_marshallIn 000000018007a984     c4_SpeedgoatCANOpen2Buses1ms.obj
 0004:00000990       $pdata$c4_e_emlrt_marshallIn 000000018007a990     c4_SpeedgoatCANOpen2Buses1ms.obj
 0004:0000099c       $pdata$c4_d_sf_marshallIn  000000018007a99c     c4_SpeedgoatCANOpen2Buses1ms.obj
 0004:000009a8       $pdata$c4_f_emlrt_marshallIn 000000018007a9a8     c4_SpeedgoatCANOpen2Buses1ms.obj
 0004:000009b4       $pdata$c4_g_emlrt_marshallIn 000000018007a9b4     c4_SpeedgoatCANOpen2Buses1ms.obj
 0004:000009c0       $pdata$c4_h_emlrt_marshallIn 000000018007a9c0     c4_SpeedgoatCANOpen2Buses1ms.obj
 0004:000009cc       $pdata$c4_i_emlrt_marshallIn 000000018007a9cc     c4_SpeedgoatCANOpen2Buses1ms.obj
 0004:000009d8       $pdata$c4_j_emlrt_marshallIn 000000018007a9d8     c4_SpeedgoatCANOpen2Buses1ms.obj
 0004:000009e4       $pdata$c4_k_emlrt_marshallIn 000000018007a9e4     c4_SpeedgoatCANOpen2Buses1ms.obj
 0004:000009f0       $pdata$init_simulink_io_address 000000018007a9f0     c4_SpeedgoatCANOpen2Buses1ms.obj
 0004:000009fc       $pdata$sf_c4_SpeedgoatCANOpen2Buses1ms_get_post_codegen_info 000000018007a9fc     c4_SpeedgoatCANOpen2Buses1ms.obj
 0004:00000a08       $pdata$sf_c4_SpeedgoatCANOpen2Buses1ms_get_autoinheritance_info 000000018007aa08     c4_SpeedgoatCANOpen2Buses1ms.obj
 0004:00000a14       $pdata$sf_c4_SpeedgoatCANOpen2Buses1ms_third_party_uses_info 000000018007aa14     c4_SpeedgoatCANOpen2Buses1ms.obj
 0004:00000a20       $pdata$sf_c4_SpeedgoatCANOpen2Buses1ms_jit_fallback_info 000000018007aa20     c4_SpeedgoatCANOpen2Buses1ms.obj
 0004:00000a2c       $pdata$sf_c4_SpeedgoatCANOpen2Buses1ms_updateBuildInfo_args_info 000000018007aa2c     c4_SpeedgoatCANOpen2Buses1ms.obj
 0004:00000a38       $pdata$sf_get_sim_state_info_c4_SpeedgoatCANOpen2Buses1ms 000000018007aa38     c4_SpeedgoatCANOpen2Buses1ms.obj
 0004:00000a44       $pdata$sf_check_dwork_consistency 000000018007aa44     c4_SpeedgoatCANOpen2Buses1ms.obj
 0004:00000a50       $pdata$sf_opaque_initialize_c4_SpeedgoatCANOpen2Buses1ms 000000018007aa50     c4_SpeedgoatCANOpen2Buses1ms.obj
 0004:00000a5c       $pdata$sf_opaque_enable_c4_SpeedgoatCANOpen2Buses1ms 000000018007aa5c     c4_SpeedgoatCANOpen2Buses1ms.obj
 0004:00000a68       $pdata$sf_opaque_disable_c4_SpeedgoatCANOpen2Buses1ms 000000018007aa68     c4_SpeedgoatCANOpen2Buses1ms.obj
 0004:00000a74       $pdata$sf_opaque_gateway_c4_SpeedgoatCANOpen2Buses1ms 000000018007aa74     c4_SpeedgoatCANOpen2Buses1ms.obj
 0004:00000a80       $pdata$sf_opaque_ext_mode_exec_c4_SpeedgoatCANOpen2Buses1ms 000000018007aa80     c4_SpeedgoatCANOpen2Buses1ms.obj
 0004:00000a8c       $pdata$sf_opaque_get_sim_state_c4_SpeedgoatCANOpen2Buses1ms 000000018007aa8c     c4_SpeedgoatCANOpen2Buses1ms.obj
 0004:00000a98       $pdata$sf_opaque_set_sim_state_c4_SpeedgoatCANOpen2Buses1ms 000000018007aa98     c4_SpeedgoatCANOpen2Buses1ms.obj
 0004:00000aa4       $pdata$sf_opaque_terminate_c4_SpeedgoatCANOpen2Buses1ms 000000018007aaa4     c4_SpeedgoatCANOpen2Buses1ms.obj
 0004:00000ab0       $pdata$mdlProcessParameters_c4_SpeedgoatCANOpen2Buses1ms 000000018007aab0     c4_SpeedgoatCANOpen2Buses1ms.obj
 0004:00000abc       $pdata$sf_set_sfun_dwork_info 000000018007aabc     c4_SpeedgoatCANOpen2Buses1ms.obj
 0004:00000ac8       $pdata$mdlSetWorkWidths_c4_SpeedgoatCANOpen2Buses1ms 000000018007aac8     c4_SpeedgoatCANOpen2Buses1ms.obj
 0004:00000ad4       $pdata$mdlRTW_c4_SpeedgoatCANOpen2Buses1ms 000000018007aad4     c4_SpeedgoatCANOpen2Buses1ms.obj
 0004:00000ae0       $pdata$mdlStart_c4_SpeedgoatCANOpen2Buses1ms 000000018007aae0     c4_SpeedgoatCANOpen2Buses1ms.obj
 0004:00000aec       $pdata$sf_c5_SpeedgoatCANOpen2Buses1ms_get_eml_resolved_functions_info 000000018007aaec     c5_SpeedgoatCANOpen2Buses1ms.obj
 0004:00000af8       $pdata$sf_c5_SpeedgoatCANOpen2Buses1ms_get_check_sum 000000018007aaf8     c5_SpeedgoatCANOpen2Buses1ms.obj
 0004:00000b04       $pdata$c5_SpeedgoatCANOpen2Buses1ms_method_dispatcher 000000018007ab04     c5_SpeedgoatCANOpen2Buses1ms.obj
 0004:00000b10       $pdata$chart_debug_initialization 000000018007ab10     c5_SpeedgoatCANOpen2Buses1ms.obj
 0004:00000b1c       $pdata$chart_debug_initialize_data_addresses 000000018007ab1c     c5_SpeedgoatCANOpen2Buses1ms.obj
 0004:00000b28       $pdata$sf_opaque_get_hover_data_for_msg 000000018007ab28     c5_SpeedgoatCANOpen2Buses1ms.obj
 0004:00000b34       $pdata$initialize_c5_SpeedgoatCANOpen2Buses1ms 000000018007ab34     c5_SpeedgoatCANOpen2Buses1ms.obj
 0004:00000b40       $pdata$enable_c5_SpeedgoatCANOpen2Buses1ms 000000018007ab40     c5_SpeedgoatCANOpen2Buses1ms.obj
 0004:00000b4c       $pdata$disable_c5_SpeedgoatCANOpen2Buses1ms 000000018007ab4c     c5_SpeedgoatCANOpen2Buses1ms.obj
 0004:00000b58       $pdata$c5_update_debugger_state_c5_SpeedgoatCANOpen2Buses1ms 000000018007ab58     c5_SpeedgoatCANOpen2Buses1ms.obj
 0004:00000b64       $pdata$ext_mode_exec_c5_SpeedgoatCANOpen2Buses1ms 000000018007ab64     c5_SpeedgoatCANOpen2Buses1ms.obj
 0004:00000b70       $pdata$get_sim_state_c5_SpeedgoatCANOpen2Buses1ms 000000018007ab70     c5_SpeedgoatCANOpen2Buses1ms.obj
 0004:00000b7c       $pdata$set_sim_state_c5_SpeedgoatCANOpen2Buses1ms 000000018007ab7c     c5_SpeedgoatCANOpen2Buses1ms.obj
 0004:00000b88       $pdata$c5_set_sim_state_side_effects_c5_SpeedgoatCANOpen2Buses1ms 000000018007ab88     c5_SpeedgoatCANOpen2Buses1ms.obj
 0004:00000b94       $pdata$finalize_c5_SpeedgoatCANOpen2Buses1ms 000000018007ab94     c5_SpeedgoatCANOpen2Buses1ms.obj
 0004:00000ba0       $pdata$sf_gateway_c5_SpeedgoatCANOpen2Buses1ms 000000018007aba0     c5_SpeedgoatCANOpen2Buses1ms.obj
 0004:00000bac       $pdata$mdl_start_c5_SpeedgoatCANOpen2Buses1ms 000000018007abac     c5_SpeedgoatCANOpen2Buses1ms.obj
 0004:00000bb8       $pdata$c5_sf_marshallOut   000000018007abb8     c5_SpeedgoatCANOpen2Buses1ms.obj
 0004:00000bc4       $pdata$c5_emlrt_marshallIn 000000018007abc4     c5_SpeedgoatCANOpen2Buses1ms.obj
 0004:00000bd0       $pdata$c5_sf_marshallIn    000000018007abd0     c5_SpeedgoatCANOpen2Buses1ms.obj
 0004:00000bdc       $pdata$c5_b_sf_marshallOut 000000018007abdc     c5_SpeedgoatCANOpen2Buses1ms.obj
 0004:00000be8       $pdata$c5_b_emlrt_marshallIn 000000018007abe8     c5_SpeedgoatCANOpen2Buses1ms.obj
 0004:00000bf4       $pdata$c5_b_sf_marshallIn  000000018007abf4     c5_SpeedgoatCANOpen2Buses1ms.obj
 0004:00000c00       $pdata$c5_d_sf_marshallOut 000000018007ac00     c5_SpeedgoatCANOpen2Buses1ms.obj
 0004:00000c0c       $pdata$c5_d_emlrt_marshallIn 000000018007ac0c     c5_SpeedgoatCANOpen2Buses1ms.obj
 0004:00000c18       $pdata$c5_e_emlrt_marshallIn 000000018007ac18     c5_SpeedgoatCANOpen2Buses1ms.obj
 0004:00000c24       $pdata$c5_d_sf_marshallIn  000000018007ac24     c5_SpeedgoatCANOpen2Buses1ms.obj
 0004:00000c30       $pdata$c5_f_emlrt_marshallIn 000000018007ac30     c5_SpeedgoatCANOpen2Buses1ms.obj
 0004:00000c3c       $pdata$c5_g_emlrt_marshallIn 000000018007ac3c     c5_SpeedgoatCANOpen2Buses1ms.obj
 0004:00000c48       $pdata$c5_h_emlrt_marshallIn 000000018007ac48     c5_SpeedgoatCANOpen2Buses1ms.obj
 0004:00000c54       $pdata$c5_i_emlrt_marshallIn 000000018007ac54     c5_SpeedgoatCANOpen2Buses1ms.obj
 0004:00000c60       $pdata$c5_j_emlrt_marshallIn 000000018007ac60     c5_SpeedgoatCANOpen2Buses1ms.obj
 0004:00000c6c       $pdata$c5_k_emlrt_marshallIn 000000018007ac6c     c5_SpeedgoatCANOpen2Buses1ms.obj
 0004:00000c78       $pdata$c5_l_emlrt_marshallIn 000000018007ac78     c5_SpeedgoatCANOpen2Buses1ms.obj
 0004:00000c84       $pdata$c5_m_emlrt_marshallIn 000000018007ac84     c5_SpeedgoatCANOpen2Buses1ms.obj
 0004:00000c90       $pdata$init_simulink_io_address 000000018007ac90     c5_SpeedgoatCANOpen2Buses1ms.obj
 0004:00000c9c       $pdata$sf_c5_SpeedgoatCANOpen2Buses1ms_get_post_codegen_info 000000018007ac9c     c5_SpeedgoatCANOpen2Buses1ms.obj
 0004:00000ca8       $pdata$sf_c5_SpeedgoatCANOpen2Buses1ms_get_autoinheritance_info 000000018007aca8     c5_SpeedgoatCANOpen2Buses1ms.obj
 0004:00000cb4       $pdata$sf_c5_SpeedgoatCANOpen2Buses1ms_third_party_uses_info 000000018007acb4     c5_SpeedgoatCANOpen2Buses1ms.obj
 0004:00000cc0       $pdata$sf_c5_SpeedgoatCANOpen2Buses1ms_jit_fallback_info 000000018007acc0     c5_SpeedgoatCANOpen2Buses1ms.obj
 0004:00000ccc       $pdata$sf_c5_SpeedgoatCANOpen2Buses1ms_updateBuildInfo_args_info 000000018007accc     c5_SpeedgoatCANOpen2Buses1ms.obj
 0004:00000cd8       $pdata$sf_get_sim_state_info_c5_SpeedgoatCANOpen2Buses1ms 000000018007acd8     c5_SpeedgoatCANOpen2Buses1ms.obj
 0004:00000ce4       $pdata$sf_check_dwork_consistency 000000018007ace4     c5_SpeedgoatCANOpen2Buses1ms.obj
 0004:00000cf0       $pdata$sf_opaque_initialize_c5_SpeedgoatCANOpen2Buses1ms 000000018007acf0     c5_SpeedgoatCANOpen2Buses1ms.obj
 0004:00000cfc       $pdata$sf_opaque_enable_c5_SpeedgoatCANOpen2Buses1ms 000000018007acfc     c5_SpeedgoatCANOpen2Buses1ms.obj
 0004:00000d08       $pdata$sf_opaque_disable_c5_SpeedgoatCANOpen2Buses1ms 000000018007ad08     c5_SpeedgoatCANOpen2Buses1ms.obj
 0004:00000d14       $pdata$sf_opaque_gateway_c5_SpeedgoatCANOpen2Buses1ms 000000018007ad14     c5_SpeedgoatCANOpen2Buses1ms.obj
 0004:00000d20       $pdata$sf_opaque_ext_mode_exec_c5_SpeedgoatCANOpen2Buses1ms 000000018007ad20     c5_SpeedgoatCANOpen2Buses1ms.obj
 0004:00000d2c       $pdata$sf_opaque_get_sim_state_c5_SpeedgoatCANOpen2Buses1ms 000000018007ad2c     c5_SpeedgoatCANOpen2Buses1ms.obj
 0004:00000d38       $pdata$sf_opaque_set_sim_state_c5_SpeedgoatCANOpen2Buses1ms 000000018007ad38     c5_SpeedgoatCANOpen2Buses1ms.obj
 0004:00000d44       $pdata$sf_opaque_terminate_c5_SpeedgoatCANOpen2Buses1ms 000000018007ad44     c5_SpeedgoatCANOpen2Buses1ms.obj
 0004:00000d50       $pdata$mdlProcessParameters_c5_SpeedgoatCANOpen2Buses1ms 000000018007ad50     c5_SpeedgoatCANOpen2Buses1ms.obj
 0004:00000d5c       $pdata$sf_set_sfun_dwork_info 000000018007ad5c     c5_SpeedgoatCANOpen2Buses1ms.obj
 0004:00000d68       $pdata$mdlSetWorkWidths_c5_SpeedgoatCANOpen2Buses1ms 000000018007ad68     c5_SpeedgoatCANOpen2Buses1ms.obj
 0004:00000d74       $pdata$mdlRTW_c5_SpeedgoatCANOpen2Buses1ms 000000018007ad74     c5_SpeedgoatCANOpen2Buses1ms.obj
 0004:00000d80       $pdata$mdlStart_c5_SpeedgoatCANOpen2Buses1ms 000000018007ad80     c5_SpeedgoatCANOpen2Buses1ms.obj
 0004:00000d8c       $pdata$sf_c10_SpeedgoatCANOpen2Buses1ms_get_eml_resolved_functions_info 000000018007ad8c     c10_SpeedgoatCANOpen2Buses1ms.obj
 0004:00000d98       $pdata$sf_c10_SpeedgoatCANOpen2Buses1ms_get_check_sum 000000018007ad98     c10_SpeedgoatCANOpen2Buses1ms.obj
 0004:00000da4       $pdata$c10_SpeedgoatCANOpen2Buses1ms_method_dispatcher 000000018007ada4     c10_SpeedgoatCANOpen2Buses1ms.obj
 0004:00000db0       $pdata$chart_debug_initialization 000000018007adb0     c10_SpeedgoatCANOpen2Buses1ms.obj
 0004:00000dbc       $pdata$chart_debug_initialize_data_addresses 000000018007adbc     c10_SpeedgoatCANOpen2Buses1ms.obj
 0004:00000dc8       $pdata$sf_opaque_get_hover_data_for_msg 000000018007adc8     c10_SpeedgoatCANOpen2Buses1ms.obj
 0004:00000dd4       $pdata$initialize_c10_SpeedgoatCANOpen2Buses1ms 000000018007add4     c10_SpeedgoatCANOpen2Buses1ms.obj
 0004:00000de0       $pdata$enable_c10_SpeedgoatCANOpen2Buses1ms 000000018007ade0     c10_SpeedgoatCANOpen2Buses1ms.obj
 0004:00000dec       $pdata$disable_c10_SpeedgoatCANOpen2Buses1ms 000000018007adec     c10_SpeedgoatCANOpen2Buses1ms.obj
 0004:00000df8       $pdata$c10_update_debugger_state_c10_SpeedgoatCANOpen2Buses1ms 000000018007adf8     c10_SpeedgoatCANOpen2Buses1ms.obj
 0004:00000e04       $pdata$ext_mode_exec_c10_SpeedgoatCANOpen2Buses1ms 000000018007ae04     c10_SpeedgoatCANOpen2Buses1ms.obj
 0004:00000e10       $pdata$get_sim_state_c10_SpeedgoatCANOpen2Buses1ms 000000018007ae10     c10_SpeedgoatCANOpen2Buses1ms.obj
 0004:00000e1c       $pdata$set_sim_state_c10_SpeedgoatCANOpen2Buses1ms 000000018007ae1c     c10_SpeedgoatCANOpen2Buses1ms.obj
 0004:00000e28       $pdata$c10_set_sim_state_side_effects_c10_SpeedgoatCANOpen2Buses1ms 000000018007ae28     c10_SpeedgoatCANOpen2Buses1ms.obj
 0004:00000e34       $pdata$finalize_c10_SpeedgoatCANOpen2Buses1ms 000000018007ae34     c10_SpeedgoatCANOpen2Buses1ms.obj
 0004:00000e40       $pdata$sf_gateway_c10_SpeedgoatCANOpen2Buses1ms 000000018007ae40     c10_SpeedgoatCANOpen2Buses1ms.obj
 0004:00000e4c       $pdata$mdl_start_c10_SpeedgoatCANOpen2Buses1ms 000000018007ae4c     c10_SpeedgoatCANOpen2Buses1ms.obj
 0004:00000e58       $pdata$c10_chartstep_c10_SpeedgoatCANOpen2Buses1ms 000000018007ae58     c10_SpeedgoatCANOpen2Buses1ms.obj
 0004:00000e64       $pdata$c10_sf_marshallOut  000000018007ae64     c10_SpeedgoatCANOpen2Buses1ms.obj
 0004:00000e70       $pdata$c10_emlrt_marshallIn 000000018007ae70     c10_SpeedgoatCANOpen2Buses1ms.obj
 0004:00000e7c       $pdata$c10_b_emlrt_marshallIn 000000018007ae7c     c10_SpeedgoatCANOpen2Buses1ms.obj
 0004:00000e88       $pdata$c10_sf_marshallIn   000000018007ae88     c10_SpeedgoatCANOpen2Buses1ms.obj
 0004:00000e94       $pdata$c10_b_sf_marshallOut 000000018007ae94     c10_SpeedgoatCANOpen2Buses1ms.obj
 0004:00000ea0       $pdata$c10_c_emlrt_marshallIn 000000018007aea0     c10_SpeedgoatCANOpen2Buses1ms.obj
 0004:00000eac       $pdata$c10_b_sf_marshallIn 000000018007aeac     c10_SpeedgoatCANOpen2Buses1ms.obj
 0004:00000eb8       $pdata$c10_e_emlrt_marshallIn 000000018007aeb8     c10_SpeedgoatCANOpen2Buses1ms.obj
 0004:00000ec4       $pdata$c10_f_emlrt_marshallIn 000000018007aec4     c10_SpeedgoatCANOpen2Buses1ms.obj
 0004:00000ed0       $pdata$c10_g_emlrt_marshallIn 000000018007aed0     c10_SpeedgoatCANOpen2Buses1ms.obj
 0004:00000edc       $pdata$c10_h_emlrt_marshallIn 000000018007aedc     c10_SpeedgoatCANOpen2Buses1ms.obj
 0004:00000ee8       $pdata$c10_i_emlrt_marshallIn 000000018007aee8     c10_SpeedgoatCANOpen2Buses1ms.obj
 0004:00000ef4       $pdata$c10_j_emlrt_marshallIn 000000018007aef4     c10_SpeedgoatCANOpen2Buses1ms.obj
 0004:00000f00       $pdata$init_simulink_io_address 000000018007af00     c10_SpeedgoatCANOpen2Buses1ms.obj
 0004:00000f0c       $pdata$sf_c10_SpeedgoatCANOpen2Buses1ms_get_post_codegen_info 000000018007af0c     c10_SpeedgoatCANOpen2Buses1ms.obj
 0004:00000f18       $pdata$sf_c10_SpeedgoatCANOpen2Buses1ms_get_autoinheritance_info 000000018007af18     c10_SpeedgoatCANOpen2Buses1ms.obj
 0004:00000f24       $pdata$sf_c10_SpeedgoatCANOpen2Buses1ms_third_party_uses_info 000000018007af24     c10_SpeedgoatCANOpen2Buses1ms.obj
 0004:00000f30       $pdata$sf_c10_SpeedgoatCANOpen2Buses1ms_jit_fallback_info 000000018007af30     c10_SpeedgoatCANOpen2Buses1ms.obj
 0004:00000f3c       $pdata$sf_c10_SpeedgoatCANOpen2Buses1ms_updateBuildInfo_args_info 000000018007af3c     c10_SpeedgoatCANOpen2Buses1ms.obj
 0004:00000f48       $pdata$sf_get_sim_state_info_c10_SpeedgoatCANOpen2Buses1ms 000000018007af48     c10_SpeedgoatCANOpen2Buses1ms.obj
 0004:00000f54       $pdata$sf_check_dwork_consistency 000000018007af54     c10_SpeedgoatCANOpen2Buses1ms.obj
 0004:00000f60       $pdata$sf_opaque_initialize_c10_SpeedgoatCANOpen2Buses1ms 000000018007af60     c10_SpeedgoatCANOpen2Buses1ms.obj
 0004:00000f6c       $pdata$sf_opaque_enable_c10_SpeedgoatCANOpen2Buses1ms 000000018007af6c     c10_SpeedgoatCANOpen2Buses1ms.obj
 0004:00000f78       $pdata$sf_opaque_disable_c10_SpeedgoatCANOpen2Buses1ms 000000018007af78     c10_SpeedgoatCANOpen2Buses1ms.obj
 0004:00000f84       $pdata$sf_opaque_gateway_c10_SpeedgoatCANOpen2Buses1ms 000000018007af84     c10_SpeedgoatCANOpen2Buses1ms.obj
 0004:00000f90       $pdata$sf_opaque_ext_mode_exec_c10_SpeedgoatCANOpen2Buses1ms 000000018007af90     c10_SpeedgoatCANOpen2Buses1ms.obj
 0004:00000f9c       $pdata$sf_opaque_get_sim_state_c10_SpeedgoatCANOpen2Buses1ms 000000018007af9c     c10_SpeedgoatCANOpen2Buses1ms.obj
 0004:00000fa8       $pdata$sf_opaque_set_sim_state_c10_SpeedgoatCANOpen2Buses1ms 000000018007afa8     c10_SpeedgoatCANOpen2Buses1ms.obj
 0004:00000fb4       $pdata$sf_opaque_terminate_c10_SpeedgoatCANOpen2Buses1ms 000000018007afb4     c10_SpeedgoatCANOpen2Buses1ms.obj
 0004:00000fc0       $pdata$mdlProcessParameters_c10_SpeedgoatCANOpen2Buses1ms 000000018007afc0     c10_SpeedgoatCANOpen2Buses1ms.obj
 0004:00000fcc       $pdata$sf_set_sfun_dwork_info 000000018007afcc     c10_SpeedgoatCANOpen2Buses1ms.obj
 0004:00000fd8       $pdata$mdlSetWorkWidths_c10_SpeedgoatCANOpen2Buses1ms 000000018007afd8     c10_SpeedgoatCANOpen2Buses1ms.obj
 0004:00000fe4       $pdata$mdlRTW_c10_SpeedgoatCANOpen2Buses1ms 000000018007afe4     c10_SpeedgoatCANOpen2Buses1ms.obj
 0004:00000ff0       $pdata$mdlStart_c10_SpeedgoatCANOpen2Buses1ms 000000018007aff0     c10_SpeedgoatCANOpen2Buses1ms.obj
 0004:00000ffc       $pdata$sf_c12_SpeedgoatCANOpen2Buses1ms_get_eml_resolved_functions_info 000000018007affc     c12_SpeedgoatCANOpen2Buses1ms.obj
 0004:00001008       $pdata$sf_c12_SpeedgoatCANOpen2Buses1ms_get_check_sum 000000018007b008     c12_SpeedgoatCANOpen2Buses1ms.obj
 0004:00001014       $pdata$c12_SpeedgoatCANOpen2Buses1ms_method_dispatcher 000000018007b014     c12_SpeedgoatCANOpen2Buses1ms.obj
 0004:00001020       $pdata$chart_debug_initialization 000000018007b020     c12_SpeedgoatCANOpen2Buses1ms.obj
 0004:0000102c       $pdata$chart_debug_initialize_data_addresses 000000018007b02c     c12_SpeedgoatCANOpen2Buses1ms.obj
 0004:00001038       $pdata$sf_opaque_get_hover_data_for_msg 000000018007b038     c12_SpeedgoatCANOpen2Buses1ms.obj
 0004:00001044       $pdata$initialize_c12_SpeedgoatCANOpen2Buses1ms 000000018007b044     c12_SpeedgoatCANOpen2Buses1ms.obj
 0004:00001050       $pdata$enable_c12_SpeedgoatCANOpen2Buses1ms 000000018007b050     c12_SpeedgoatCANOpen2Buses1ms.obj
 0004:0000105c       $pdata$disable_c12_SpeedgoatCANOpen2Buses1ms 000000018007b05c     c12_SpeedgoatCANOpen2Buses1ms.obj
 0004:00001068       $pdata$c12_update_debugger_state_c12_SpeedgoatCANOpen2Buses1ms 000000018007b068     c12_SpeedgoatCANOpen2Buses1ms.obj
 0004:00001074       $pdata$ext_mode_exec_c12_SpeedgoatCANOpen2Buses1ms 000000018007b074     c12_SpeedgoatCANOpen2Buses1ms.obj
 0004:00001080       $pdata$get_sim_state_c12_SpeedgoatCANOpen2Buses1ms 000000018007b080     c12_SpeedgoatCANOpen2Buses1ms.obj
 0004:0000108c       $pdata$set_sim_state_c12_SpeedgoatCANOpen2Buses1ms 000000018007b08c     c12_SpeedgoatCANOpen2Buses1ms.obj
 0004:00001098       $pdata$finalize_c12_SpeedgoatCANOpen2Buses1ms 000000018007b098     c12_SpeedgoatCANOpen2Buses1ms.obj
 0004:000010a4       $pdata$sf_gateway_c12_SpeedgoatCANOpen2Buses1ms 000000018007b0a4     c12_SpeedgoatCANOpen2Buses1ms.obj
 0004:000010b0       $pdata$mdl_start_c12_SpeedgoatCANOpen2Buses1ms 000000018007b0b0     c12_SpeedgoatCANOpen2Buses1ms.obj
 0004:000010bc       $pdata$c12_chartstep_c12_SpeedgoatCANOpen2Buses1ms 000000018007b0bc     c12_SpeedgoatCANOpen2Buses1ms.obj
 0004:000010c8       $pdata$c12_enter_atomic_Init 000000018007b0c8     c12_SpeedgoatCANOpen2Buses1ms.obj
 0004:000010d4       $pdata$c12_enter_atomic_Wait 000000018007b0d4     c12_SpeedgoatCANOpen2Buses1ms.obj
 0004:000010e0       $pdata$c12_sf_marshallOut  000000018007b0e0     c12_SpeedgoatCANOpen2Buses1ms.obj
 0004:000010ec       $pdata$c12_emlrt_marshallIn 000000018007b0ec     c12_SpeedgoatCANOpen2Buses1ms.obj
 0004:000010f8       $pdata$c12_sf_marshallIn   000000018007b0f8     c12_SpeedgoatCANOpen2Buses1ms.obj
 0004:00001104       $pdata$c12_b_sf_marshallOut 000000018007b104     c12_SpeedgoatCANOpen2Buses1ms.obj
 0004:00001110       $pdata$c12_b_emlrt_marshallIn 000000018007b110     c12_SpeedgoatCANOpen2Buses1ms.obj
 0004:0000111c       $pdata$c12_b_sf_marshallIn 000000018007b11c     c12_SpeedgoatCANOpen2Buses1ms.obj
 0004:00001128       $pdata$c12_d_sf_marshallOut 000000018007b128     c12_SpeedgoatCANOpen2Buses1ms.obj
 0004:00001134       $pdata$c12_d_emlrt_marshallIn 000000018007b134     c12_SpeedgoatCANOpen2Buses1ms.obj
 0004:00001140       $pdata$c12_e_emlrt_marshallIn 000000018007b140     c12_SpeedgoatCANOpen2Buses1ms.obj
 0004:0000114c       $pdata$c12_d_sf_marshallIn 000000018007b14c     c12_SpeedgoatCANOpen2Buses1ms.obj
 0004:00001158       $pdata$c12_f_emlrt_marshallIn 000000018007b158     c12_SpeedgoatCANOpen2Buses1ms.obj
 0004:00001164       $pdata$c12_g_emlrt_marshallIn 000000018007b164     c12_SpeedgoatCANOpen2Buses1ms.obj
 0004:00001170       $pdata$c12_h_emlrt_marshallIn 000000018007b170     c12_SpeedgoatCANOpen2Buses1ms.obj
 0004:0000117c       $pdata$c12_i_emlrt_marshallIn 000000018007b17c     c12_SpeedgoatCANOpen2Buses1ms.obj
 0004:00001188       $pdata$c12_j_emlrt_marshallIn 000000018007b188     c12_SpeedgoatCANOpen2Buses1ms.obj
 0004:00001194       $pdata$c12_k_emlrt_marshallIn 000000018007b194     c12_SpeedgoatCANOpen2Buses1ms.obj
 0004:000011a0       $pdata$init_simulink_io_address 000000018007b1a0     c12_SpeedgoatCANOpen2Buses1ms.obj
 0004:000011ac       $pdata$sf_c12_SpeedgoatCANOpen2Buses1ms_get_post_codegen_info 000000018007b1ac     c12_SpeedgoatCANOpen2Buses1ms.obj
 0004:000011b8       $pdata$sf_c12_SpeedgoatCANOpen2Buses1ms_get_autoinheritance_info 000000018007b1b8     c12_SpeedgoatCANOpen2Buses1ms.obj
 0004:000011c4       $pdata$sf_c12_SpeedgoatCANOpen2Buses1ms_third_party_uses_info 000000018007b1c4     c12_SpeedgoatCANOpen2Buses1ms.obj
 0004:000011d0       $pdata$sf_c12_SpeedgoatCANOpen2Buses1ms_jit_fallback_info 000000018007b1d0     c12_SpeedgoatCANOpen2Buses1ms.obj
 0004:000011dc       $pdata$sf_c12_SpeedgoatCANOpen2Buses1ms_updateBuildInfo_args_info 000000018007b1dc     c12_SpeedgoatCANOpen2Buses1ms.obj
 0004:000011e8       $pdata$sf_get_sim_state_info_c12_SpeedgoatCANOpen2Buses1ms 000000018007b1e8     c12_SpeedgoatCANOpen2Buses1ms.obj
 0004:000011f4       $pdata$sf_check_dwork_consistency 000000018007b1f4     c12_SpeedgoatCANOpen2Buses1ms.obj
 0004:00001200       $pdata$sf_opaque_initialize_c12_SpeedgoatCANOpen2Buses1ms 000000018007b200     c12_SpeedgoatCANOpen2Buses1ms.obj
 0004:0000120c       $pdata$sf_opaque_enable_c12_SpeedgoatCANOpen2Buses1ms 000000018007b20c     c12_SpeedgoatCANOpen2Buses1ms.obj
 0004:00001218       $pdata$sf_opaque_disable_c12_SpeedgoatCANOpen2Buses1ms 000000018007b218     c12_SpeedgoatCANOpen2Buses1ms.obj
 0004:00001224       $pdata$sf_opaque_gateway_c12_SpeedgoatCANOpen2Buses1ms 000000018007b224     c12_SpeedgoatCANOpen2Buses1ms.obj
 0004:00001230       $pdata$sf_opaque_ext_mode_exec_c12_SpeedgoatCANOpen2Buses1ms 000000018007b230     c12_SpeedgoatCANOpen2Buses1ms.obj
 0004:0000123c       $pdata$sf_opaque_get_sim_state_c12_SpeedgoatCANOpen2Buses1ms 000000018007b23c     c12_SpeedgoatCANOpen2Buses1ms.obj
 0004:00001248       $pdata$sf_opaque_set_sim_state_c12_SpeedgoatCANOpen2Buses1ms 000000018007b248     c12_SpeedgoatCANOpen2Buses1ms.obj
 0004:00001254       $pdata$sf_opaque_terminate_c12_SpeedgoatCANOpen2Buses1ms 000000018007b254     c12_SpeedgoatCANOpen2Buses1ms.obj
 0004:00001260       $pdata$mdlProcessParameters_c12_SpeedgoatCANOpen2Buses1ms 000000018007b260     c12_SpeedgoatCANOpen2Buses1ms.obj
 0004:0000126c       $pdata$sf_set_sfun_dwork_info 000000018007b26c     c12_SpeedgoatCANOpen2Buses1ms.obj
 0004:00001278       $pdata$mdlSetWorkWidths_c12_SpeedgoatCANOpen2Buses1ms 000000018007b278     c12_SpeedgoatCANOpen2Buses1ms.obj
 0004:00001284       $pdata$mdlRTW_c12_SpeedgoatCANOpen2Buses1ms 000000018007b284     c12_SpeedgoatCANOpen2Buses1ms.obj
 0004:00001290       $pdata$mdlStart_c12_SpeedgoatCANOpen2Buses1ms 000000018007b290     c12_SpeedgoatCANOpen2Buses1ms.obj
 0004:0000129c       $pdata$sf_c13_SpeedgoatCANOpen2Buses1ms_get_eml_resolved_functions_info 000000018007b29c     c13_SpeedgoatCANOpen2Buses1ms.obj
 0004:000012a8       $pdata$sf_c13_SpeedgoatCANOpen2Buses1ms_get_check_sum 000000018007b2a8     c13_SpeedgoatCANOpen2Buses1ms.obj
 0004:000012b4       $pdata$c13_SpeedgoatCANOpen2Buses1ms_method_dispatcher 000000018007b2b4     c13_SpeedgoatCANOpen2Buses1ms.obj
 0004:000012c0       $pdata$chart_debug_initialization 000000018007b2c0     c13_SpeedgoatCANOpen2Buses1ms.obj
 0004:000012cc       $pdata$chart_debug_initialize_data_addresses 000000018007b2cc     c13_SpeedgoatCANOpen2Buses1ms.obj
 0004:000012d8       $pdata$sf_opaque_get_hover_data_for_msg 000000018007b2d8     c13_SpeedgoatCANOpen2Buses1ms.obj
 0004:000012e4       $pdata$initialize_c13_SpeedgoatCANOpen2Buses1ms 000000018007b2e4     c13_SpeedgoatCANOpen2Buses1ms.obj
 0004:000012f0       $pdata$enable_c13_SpeedgoatCANOpen2Buses1ms 000000018007b2f0     c13_SpeedgoatCANOpen2Buses1ms.obj
 0004:000012fc       $pdata$disable_c13_SpeedgoatCANOpen2Buses1ms 000000018007b2fc     c13_SpeedgoatCANOpen2Buses1ms.obj
 0004:00001308       $pdata$c13_update_debugger_state_c13_SpeedgoatCANOpen2Buses1ms 000000018007b308     c13_SpeedgoatCANOpen2Buses1ms.obj
 0004:00001314       $pdata$ext_mode_exec_c13_SpeedgoatCANOpen2Buses1ms 000000018007b314     c13_SpeedgoatCANOpen2Buses1ms.obj
 0004:00001320       $pdata$get_sim_state_c13_SpeedgoatCANOpen2Buses1ms 000000018007b320     c13_SpeedgoatCANOpen2Buses1ms.obj
 0004:0000132c       $pdata$set_sim_state_c13_SpeedgoatCANOpen2Buses1ms 000000018007b32c     c13_SpeedgoatCANOpen2Buses1ms.obj
 0004:00001338       $pdata$finalize_c13_SpeedgoatCANOpen2Buses1ms 000000018007b338     c13_SpeedgoatCANOpen2Buses1ms.obj
 0004:00001344       $pdata$sf_gateway_c13_SpeedgoatCANOpen2Buses1ms 000000018007b344     c13_SpeedgoatCANOpen2Buses1ms.obj
 0004:00001350       $pdata$mdl_start_c13_SpeedgoatCANOpen2Buses1ms 000000018007b350     c13_SpeedgoatCANOpen2Buses1ms.obj
 0004:0000135c       $pdata$c13_enter_atomic_Init 000000018007b35c     c13_SpeedgoatCANOpen2Buses1ms.obj
 0004:00001368       $pdata$c13_sf_marshallOut  000000018007b368     c13_SpeedgoatCANOpen2Buses1ms.obj
 0004:00001374       $pdata$c13_emlrt_marshallIn 000000018007b374     c13_SpeedgoatCANOpen2Buses1ms.obj
 0004:00001380       $pdata$c13_b_emlrt_marshallIn 000000018007b380     c13_SpeedgoatCANOpen2Buses1ms.obj
 0004:0000138c       $pdata$c13_sf_marshallIn   000000018007b38c     c13_SpeedgoatCANOpen2Buses1ms.obj
 0004:00001398       $pdata$c13_b_sf_marshallOut 000000018007b398     c13_SpeedgoatCANOpen2Buses1ms.obj
 0004:000013a4       $pdata$c13_c_emlrt_marshallIn 000000018007b3a4     c13_SpeedgoatCANOpen2Buses1ms.obj
 0004:000013b0       $pdata$c13_b_sf_marshallIn 000000018007b3b0     c13_SpeedgoatCANOpen2Buses1ms.obj
 0004:000013bc       $pdata$c13_d_sf_marshallOut 000000018007b3bc     c13_SpeedgoatCANOpen2Buses1ms.obj
 0004:000013c8       $pdata$c13_e_emlrt_marshallIn 000000018007b3c8     c13_SpeedgoatCANOpen2Buses1ms.obj
 0004:000013d4       $pdata$c13_f_emlrt_marshallIn 000000018007b3d4     c13_SpeedgoatCANOpen2Buses1ms.obj
 0004:000013e0       $pdata$c13_d_sf_marshallIn 000000018007b3e0     c13_SpeedgoatCANOpen2Buses1ms.obj
 0004:000013ec       $pdata$c13_e_sf_marshallOut 000000018007b3ec     c13_SpeedgoatCANOpen2Buses1ms.obj
 0004:000013f8       $pdata$c13_g_emlrt_marshallIn 000000018007b3f8     c13_SpeedgoatCANOpen2Buses1ms.obj
 0004:00001404       $pdata$c13_h_emlrt_marshallIn 000000018007b404     c13_SpeedgoatCANOpen2Buses1ms.obj
 0004:00001410       $pdata$c13_i_emlrt_marshallIn 000000018007b410     c13_SpeedgoatCANOpen2Buses1ms.obj
 0004:0000141c       $pdata$c13_j_emlrt_marshallIn 000000018007b41c     c13_SpeedgoatCANOpen2Buses1ms.obj
 0004:00001428       $pdata$init_simulink_io_address 000000018007b428     c13_SpeedgoatCANOpen2Buses1ms.obj
 0004:00001434       $pdata$sf_c13_SpeedgoatCANOpen2Buses1ms_get_post_codegen_info 000000018007b434     c13_SpeedgoatCANOpen2Buses1ms.obj
 0004:00001440       $pdata$sf_c13_SpeedgoatCANOpen2Buses1ms_get_autoinheritance_info 000000018007b440     c13_SpeedgoatCANOpen2Buses1ms.obj
 0004:0000144c       $pdata$sf_c13_SpeedgoatCANOpen2Buses1ms_third_party_uses_info 000000018007b44c     c13_SpeedgoatCANOpen2Buses1ms.obj
 0004:00001458       $pdata$sf_c13_SpeedgoatCANOpen2Buses1ms_jit_fallback_info 000000018007b458     c13_SpeedgoatCANOpen2Buses1ms.obj
 0004:00001464       $pdata$sf_c13_SpeedgoatCANOpen2Buses1ms_updateBuildInfo_args_info 000000018007b464     c13_SpeedgoatCANOpen2Buses1ms.obj
 0004:00001470       $pdata$sf_get_sim_state_info_c13_SpeedgoatCANOpen2Buses1ms 000000018007b470     c13_SpeedgoatCANOpen2Buses1ms.obj
 0004:0000147c       $pdata$sf_check_dwork_consistency 000000018007b47c     c13_SpeedgoatCANOpen2Buses1ms.obj
 0004:00001488       $pdata$sf_opaque_initialize_c13_SpeedgoatCANOpen2Buses1ms 000000018007b488     c13_SpeedgoatCANOpen2Buses1ms.obj
 0004:00001494       $pdata$sf_opaque_enable_c13_SpeedgoatCANOpen2Buses1ms 000000018007b494     c13_SpeedgoatCANOpen2Buses1ms.obj
 0004:000014a0       $pdata$sf_opaque_disable_c13_SpeedgoatCANOpen2Buses1ms 000000018007b4a0     c13_SpeedgoatCANOpen2Buses1ms.obj
 0004:000014ac       $pdata$sf_opaque_gateway_c13_SpeedgoatCANOpen2Buses1ms 000000018007b4ac     c13_SpeedgoatCANOpen2Buses1ms.obj
 0004:000014b8       $pdata$sf_opaque_ext_mode_exec_c13_SpeedgoatCANOpen2Buses1ms 000000018007b4b8     c13_SpeedgoatCANOpen2Buses1ms.obj
 0004:000014c4       $pdata$sf_opaque_get_sim_state_c13_SpeedgoatCANOpen2Buses1ms 000000018007b4c4     c13_SpeedgoatCANOpen2Buses1ms.obj
 0004:000014d0       $pdata$sf_opaque_set_sim_state_c13_SpeedgoatCANOpen2Buses1ms 000000018007b4d0     c13_SpeedgoatCANOpen2Buses1ms.obj
 0004:000014dc       $pdata$sf_opaque_terminate_c13_SpeedgoatCANOpen2Buses1ms 000000018007b4dc     c13_SpeedgoatCANOpen2Buses1ms.obj
 0004:000014e8       $pdata$mdlProcessParameters_c13_SpeedgoatCANOpen2Buses1ms 000000018007b4e8     c13_SpeedgoatCANOpen2Buses1ms.obj
 0004:000014f4       $pdata$sf_set_sfun_dwork_info 000000018007b4f4     c13_SpeedgoatCANOpen2Buses1ms.obj
 0004:00001500       $pdata$mdlSetWorkWidths_c13_SpeedgoatCANOpen2Buses1ms 000000018007b500     c13_SpeedgoatCANOpen2Buses1ms.obj
 0004:0000150c       $pdata$mdlRTW_c13_SpeedgoatCANOpen2Buses1ms 000000018007b50c     c13_SpeedgoatCANOpen2Buses1ms.obj
 0004:00001518       $pdata$mdlStart_c13_SpeedgoatCANOpen2Buses1ms 000000018007b518     c13_SpeedgoatCANOpen2Buses1ms.obj
 0004:00001524       $pdata$sf_c14_SpeedgoatCANOpen2Buses1ms_get_eml_resolved_functions_info 000000018007b524     c14_SpeedgoatCANOpen2Buses1ms.obj
 0004:00001530       $pdata$sf_c14_SpeedgoatCANOpen2Buses1ms_get_check_sum 000000018007b530     c14_SpeedgoatCANOpen2Buses1ms.obj
 0004:0000153c       $pdata$c14_SpeedgoatCANOpen2Buses1ms_method_dispatcher 000000018007b53c     c14_SpeedgoatCANOpen2Buses1ms.obj
 0004:00001548       $pdata$chart_debug_initialization 000000018007b548     c14_SpeedgoatCANOpen2Buses1ms.obj
 0004:00001554       $pdata$chart_debug_initialize_data_addresses 000000018007b554     c14_SpeedgoatCANOpen2Buses1ms.obj
 0004:00001560       $pdata$sf_opaque_get_hover_data_for_msg 000000018007b560     c14_SpeedgoatCANOpen2Buses1ms.obj
 0004:0000156c       $pdata$initialize_c14_SpeedgoatCANOpen2Buses1ms 000000018007b56c     c14_SpeedgoatCANOpen2Buses1ms.obj
 0004:00001578       $pdata$enable_c14_SpeedgoatCANOpen2Buses1ms 000000018007b578     c14_SpeedgoatCANOpen2Buses1ms.obj
 0004:00001584       $pdata$disable_c14_SpeedgoatCANOpen2Buses1ms 000000018007b584     c14_SpeedgoatCANOpen2Buses1ms.obj
 0004:00001590       $pdata$c14_update_debugger_state_c14_SpeedgoatCANOpen2Buses1ms 000000018007b590     c14_SpeedgoatCANOpen2Buses1ms.obj
 0004:0000159c       $pdata$ext_mode_exec_c14_SpeedgoatCANOpen2Buses1ms 000000018007b59c     c14_SpeedgoatCANOpen2Buses1ms.obj
 0004:000015a8       $pdata$get_sim_state_c14_SpeedgoatCANOpen2Buses1ms 000000018007b5a8     c14_SpeedgoatCANOpen2Buses1ms.obj
 0004:000015b4       $pdata$set_sim_state_c14_SpeedgoatCANOpen2Buses1ms 000000018007b5b4     c14_SpeedgoatCANOpen2Buses1ms.obj
 0004:000015c0       $pdata$c14_set_sim_state_side_effects_c14_SpeedgoatCANOpen2Buses1ms 000000018007b5c0     c14_SpeedgoatCANOpen2Buses1ms.obj
 0004:000015cc       $pdata$finalize_c14_SpeedgoatCANOpen2Buses1ms 000000018007b5cc     c14_SpeedgoatCANOpen2Buses1ms.obj
 0004:000015d8       $pdata$sf_gateway_c14_SpeedgoatCANOpen2Buses1ms 000000018007b5d8     c14_SpeedgoatCANOpen2Buses1ms.obj
 0004:000015e4       $pdata$mdl_start_c14_SpeedgoatCANOpen2Buses1ms 000000018007b5e4     c14_SpeedgoatCANOpen2Buses1ms.obj
 0004:000015f0       $pdata$c14_chartstep_c14_SpeedgoatCANOpen2Buses1ms 000000018007b5f0     c14_SpeedgoatCANOpen2Buses1ms.obj
 0004:000015fc       $pdata$c14_sf_marshallOut  000000018007b5fc     c14_SpeedgoatCANOpen2Buses1ms.obj
 0004:00001608       $pdata$c14_emlrt_marshallIn 000000018007b608     c14_SpeedgoatCANOpen2Buses1ms.obj
 0004:00001614       $pdata$c14_b_emlrt_marshallIn 000000018007b614     c14_SpeedgoatCANOpen2Buses1ms.obj
 0004:00001620       $pdata$c14_sf_marshallIn   000000018007b620     c14_SpeedgoatCANOpen2Buses1ms.obj
 0004:0000162c       $pdata$c14_b_sf_marshallOut 000000018007b62c     c14_SpeedgoatCANOpen2Buses1ms.obj
 0004:00001638       $pdata$c14_c_emlrt_marshallIn 000000018007b638     c14_SpeedgoatCANOpen2Buses1ms.obj
 0004:00001644       $pdata$c14_b_sf_marshallIn 000000018007b644     c14_SpeedgoatCANOpen2Buses1ms.obj
 0004:00001650       $pdata$c14_e_emlrt_marshallIn 000000018007b650     c14_SpeedgoatCANOpen2Buses1ms.obj
 0004:0000165c       $pdata$c14_f_emlrt_marshallIn 000000018007b65c     c14_SpeedgoatCANOpen2Buses1ms.obj
 0004:00001668       $pdata$c14_g_emlrt_marshallIn 000000018007b668     c14_SpeedgoatCANOpen2Buses1ms.obj
 0004:00001674       $pdata$c14_h_emlrt_marshallIn 000000018007b674     c14_SpeedgoatCANOpen2Buses1ms.obj
 0004:00001680       $pdata$c14_i_emlrt_marshallIn 000000018007b680     c14_SpeedgoatCANOpen2Buses1ms.obj
 0004:0000168c       $pdata$c14_j_emlrt_marshallIn 000000018007b68c     c14_SpeedgoatCANOpen2Buses1ms.obj
 0004:00001698       $pdata$init_simulink_io_address 000000018007b698     c14_SpeedgoatCANOpen2Buses1ms.obj
 0004:000016a4       $pdata$sf_c14_SpeedgoatCANOpen2Buses1ms_get_post_codegen_info 000000018007b6a4     c14_SpeedgoatCANOpen2Buses1ms.obj
 0004:000016b0       $pdata$sf_c14_SpeedgoatCANOpen2Buses1ms_get_autoinheritance_info 000000018007b6b0     c14_SpeedgoatCANOpen2Buses1ms.obj
 0004:000016bc       $pdata$sf_c14_SpeedgoatCANOpen2Buses1ms_third_party_uses_info 000000018007b6bc     c14_SpeedgoatCANOpen2Buses1ms.obj
 0004:000016c8       $pdata$sf_c14_SpeedgoatCANOpen2Buses1ms_jit_fallback_info 000000018007b6c8     c14_SpeedgoatCANOpen2Buses1ms.obj
 0004:000016d4       $pdata$sf_c14_SpeedgoatCANOpen2Buses1ms_updateBuildInfo_args_info 000000018007b6d4     c14_SpeedgoatCANOpen2Buses1ms.obj
 0004:000016e0       $pdata$sf_get_sim_state_info_c14_SpeedgoatCANOpen2Buses1ms 000000018007b6e0     c14_SpeedgoatCANOpen2Buses1ms.obj
 0004:000016ec       $pdata$sf_check_dwork_consistency 000000018007b6ec     c14_SpeedgoatCANOpen2Buses1ms.obj
 0004:000016f8       $pdata$sf_opaque_initialize_c14_SpeedgoatCANOpen2Buses1ms 000000018007b6f8     c14_SpeedgoatCANOpen2Buses1ms.obj
 0004:00001704       $pdata$sf_opaque_enable_c14_SpeedgoatCANOpen2Buses1ms 000000018007b704     c14_SpeedgoatCANOpen2Buses1ms.obj
 0004:00001710       $pdata$sf_opaque_disable_c14_SpeedgoatCANOpen2Buses1ms 000000018007b710     c14_SpeedgoatCANOpen2Buses1ms.obj
 0004:0000171c       $pdata$sf_opaque_gateway_c14_SpeedgoatCANOpen2Buses1ms 000000018007b71c     c14_SpeedgoatCANOpen2Buses1ms.obj
 0004:00001728       $pdata$sf_opaque_ext_mode_exec_c14_SpeedgoatCANOpen2Buses1ms 000000018007b728     c14_SpeedgoatCANOpen2Buses1ms.obj
 0004:00001734       $pdata$sf_opaque_get_sim_state_c14_SpeedgoatCANOpen2Buses1ms 000000018007b734     c14_SpeedgoatCANOpen2Buses1ms.obj
 0004:00001740       $pdata$sf_opaque_set_sim_state_c14_SpeedgoatCANOpen2Buses1ms 000000018007b740     c14_SpeedgoatCANOpen2Buses1ms.obj
 0004:0000174c       $pdata$sf_opaque_terminate_c14_SpeedgoatCANOpen2Buses1ms 000000018007b74c     c14_SpeedgoatCANOpen2Buses1ms.obj
 0004:00001758       $pdata$mdlProcessParameters_c14_SpeedgoatCANOpen2Buses1ms 000000018007b758     c14_SpeedgoatCANOpen2Buses1ms.obj
 0004:00001764       $pdata$sf_set_sfun_dwork_info 000000018007b764     c14_SpeedgoatCANOpen2Buses1ms.obj
 0004:00001770       $pdata$mdlSetWorkWidths_c14_SpeedgoatCANOpen2Buses1ms 000000018007b770     c14_SpeedgoatCANOpen2Buses1ms.obj
 0004:0000177c       $pdata$mdlRTW_c14_SpeedgoatCANOpen2Buses1ms 000000018007b77c     c14_SpeedgoatCANOpen2Buses1ms.obj
 0004:00001788       $pdata$mdlStart_c14_SpeedgoatCANOpen2Buses1ms 000000018007b788     c14_SpeedgoatCANOpen2Buses1ms.obj
 0004:00001794       $pdata$sf_c18_SpeedgoatCANOpen2Buses1ms_get_eml_resolved_functions_info 000000018007b794     c18_SpeedgoatCANOpen2Buses1ms.obj
 0004:000017a0       $pdata$sf_c18_SpeedgoatCANOpen2Buses1ms_get_check_sum 000000018007b7a0     c18_SpeedgoatCANOpen2Buses1ms.obj
 0004:000017ac       $pdata$c18_SpeedgoatCANOpen2Buses1ms_method_dispatcher 000000018007b7ac     c18_SpeedgoatCANOpen2Buses1ms.obj
 0004:000017b8       $pdata$chart_debug_initialization 000000018007b7b8     c18_SpeedgoatCANOpen2Buses1ms.obj
 0004:000017c4       $pdata$chart_debug_initialize_data_addresses 000000018007b7c4     c18_SpeedgoatCANOpen2Buses1ms.obj
 0004:000017d0       $pdata$sf_opaque_get_hover_data_for_msg 000000018007b7d0     c18_SpeedgoatCANOpen2Buses1ms.obj
 0004:000017dc       $pdata$initialize_c18_SpeedgoatCANOpen2Buses1ms 000000018007b7dc     c18_SpeedgoatCANOpen2Buses1ms.obj
 0004:000017e8       $pdata$enable_c18_SpeedgoatCANOpen2Buses1ms 000000018007b7e8     c18_SpeedgoatCANOpen2Buses1ms.obj
 0004:000017f4       $pdata$disable_c18_SpeedgoatCANOpen2Buses1ms 000000018007b7f4     c18_SpeedgoatCANOpen2Buses1ms.obj
 0004:00001800       $pdata$c18_update_debugger_state_c18_SpeedgoatCANOpen2Buses1ms 000000018007b800     c18_SpeedgoatCANOpen2Buses1ms.obj
 0004:0000180c       $pdata$ext_mode_exec_c18_SpeedgoatCANOpen2Buses1ms 000000018007b80c     c18_SpeedgoatCANOpen2Buses1ms.obj
 0004:00001818       $pdata$get_sim_state_c18_SpeedgoatCANOpen2Buses1ms 000000018007b818     c18_SpeedgoatCANOpen2Buses1ms.obj
 0004:00001824       $pdata$set_sim_state_c18_SpeedgoatCANOpen2Buses1ms 000000018007b824     c18_SpeedgoatCANOpen2Buses1ms.obj
 0004:00001830       $pdata$c18_set_sim_state_side_effects_c18_SpeedgoatCANOpen2Buses1ms 000000018007b830     c18_SpeedgoatCANOpen2Buses1ms.obj
 0004:0000183c       $pdata$finalize_c18_SpeedgoatCANOpen2Buses1ms 000000018007b83c     c18_SpeedgoatCANOpen2Buses1ms.obj
 0004:00001848       $pdata$sf_gateway_c18_SpeedgoatCANOpen2Buses1ms 000000018007b848     c18_SpeedgoatCANOpen2Buses1ms.obj
 0004:00001854       $pdata$mdl_start_c18_SpeedgoatCANOpen2Buses1ms 000000018007b854     c18_SpeedgoatCANOpen2Buses1ms.obj
 0004:00001860       $pdata$c18_chartstep_c18_SpeedgoatCANOpen2Buses1ms 000000018007b860     c18_SpeedgoatCANOpen2Buses1ms.obj
 0004:0000186c       $pdata$c18_sf_marshallOut  000000018007b86c     c18_SpeedgoatCANOpen2Buses1ms.obj
 0004:00001878       $pdata$c18_emlrt_marshallIn 000000018007b878     c18_SpeedgoatCANOpen2Buses1ms.obj
 0004:00001884       $pdata$c18_b_emlrt_marshallIn 000000018007b884     c18_SpeedgoatCANOpen2Buses1ms.obj
 0004:00001890       $pdata$c18_sf_marshallIn   000000018007b890     c18_SpeedgoatCANOpen2Buses1ms.obj
 0004:0000189c       $pdata$c18_b_sf_marshallOut 000000018007b89c     c18_SpeedgoatCANOpen2Buses1ms.obj
 0004:000018a8       $pdata$c18_c_emlrt_marshallIn 000000018007b8a8     c18_SpeedgoatCANOpen2Buses1ms.obj
 0004:000018b4       $pdata$c18_b_sf_marshallIn 000000018007b8b4     c18_SpeedgoatCANOpen2Buses1ms.obj
 0004:000018c0       $pdata$c18_e_emlrt_marshallIn 000000018007b8c0     c18_SpeedgoatCANOpen2Buses1ms.obj
 0004:000018cc       $pdata$c18_f_emlrt_marshallIn 000000018007b8cc     c18_SpeedgoatCANOpen2Buses1ms.obj
 0004:000018d8       $pdata$c18_g_emlrt_marshallIn 000000018007b8d8     c18_SpeedgoatCANOpen2Buses1ms.obj
 0004:000018e4       $pdata$c18_h_emlrt_marshallIn 000000018007b8e4     c18_SpeedgoatCANOpen2Buses1ms.obj
 0004:000018f0       $pdata$c18_i_emlrt_marshallIn 000000018007b8f0     c18_SpeedgoatCANOpen2Buses1ms.obj
 0004:000018fc       $pdata$c18_j_emlrt_marshallIn 000000018007b8fc     c18_SpeedgoatCANOpen2Buses1ms.obj
 0004:00001908       $pdata$init_simulink_io_address 000000018007b908     c18_SpeedgoatCANOpen2Buses1ms.obj
 0004:00001914       $pdata$sf_c18_SpeedgoatCANOpen2Buses1ms_get_post_codegen_info 000000018007b914     c18_SpeedgoatCANOpen2Buses1ms.obj
 0004:00001920       $pdata$sf_c18_SpeedgoatCANOpen2Buses1ms_get_autoinheritance_info 000000018007b920     c18_SpeedgoatCANOpen2Buses1ms.obj
 0004:0000192c       $pdata$sf_c18_SpeedgoatCANOpen2Buses1ms_third_party_uses_info 000000018007b92c     c18_SpeedgoatCANOpen2Buses1ms.obj
 0004:00001938       $pdata$sf_c18_SpeedgoatCANOpen2Buses1ms_jit_fallback_info 000000018007b938     c18_SpeedgoatCANOpen2Buses1ms.obj
 0004:00001944       $pdata$sf_c18_SpeedgoatCANOpen2Buses1ms_updateBuildInfo_args_info 000000018007b944     c18_SpeedgoatCANOpen2Buses1ms.obj
 0004:00001950       $pdata$sf_get_sim_state_info_c18_SpeedgoatCANOpen2Buses1ms 000000018007b950     c18_SpeedgoatCANOpen2Buses1ms.obj
 0004:0000195c       $pdata$sf_check_dwork_consistency 000000018007b95c     c18_SpeedgoatCANOpen2Buses1ms.obj
 0004:00001968       $pdata$sf_opaque_initialize_c18_SpeedgoatCANOpen2Buses1ms 000000018007b968     c18_SpeedgoatCANOpen2Buses1ms.obj
 0004:00001974       $pdata$sf_opaque_enable_c18_SpeedgoatCANOpen2Buses1ms 000000018007b974     c18_SpeedgoatCANOpen2Buses1ms.obj
 0004:00001980       $pdata$sf_opaque_disable_c18_SpeedgoatCANOpen2Buses1ms 000000018007b980     c18_SpeedgoatCANOpen2Buses1ms.obj
 0004:0000198c       $pdata$sf_opaque_gateway_c18_SpeedgoatCANOpen2Buses1ms 000000018007b98c     c18_SpeedgoatCANOpen2Buses1ms.obj
 0004:00001998       $pdata$sf_opaque_ext_mode_exec_c18_SpeedgoatCANOpen2Buses1ms 000000018007b998     c18_SpeedgoatCANOpen2Buses1ms.obj
 0004:000019a4       $pdata$sf_opaque_get_sim_state_c18_SpeedgoatCANOpen2Buses1ms 000000018007b9a4     c18_SpeedgoatCANOpen2Buses1ms.obj
 0004:000019b0       $pdata$sf_opaque_set_sim_state_c18_SpeedgoatCANOpen2Buses1ms 000000018007b9b0     c18_SpeedgoatCANOpen2Buses1ms.obj
 0004:000019bc       $pdata$sf_opaque_terminate_c18_SpeedgoatCANOpen2Buses1ms 000000018007b9bc     c18_SpeedgoatCANOpen2Buses1ms.obj
 0004:000019c8       $pdata$mdlProcessParameters_c18_SpeedgoatCANOpen2Buses1ms 000000018007b9c8     c18_SpeedgoatCANOpen2Buses1ms.obj
 0004:000019d4       $pdata$sf_set_sfun_dwork_info 000000018007b9d4     c18_SpeedgoatCANOpen2Buses1ms.obj
 0004:000019e0       $pdata$mdlSetWorkWidths_c18_SpeedgoatCANOpen2Buses1ms 000000018007b9e0     c18_SpeedgoatCANOpen2Buses1ms.obj
 0004:000019ec       $pdata$mdlRTW_c18_SpeedgoatCANOpen2Buses1ms 000000018007b9ec     c18_SpeedgoatCANOpen2Buses1ms.obj
 0004:000019f8       $pdata$mdlStart_c18_SpeedgoatCANOpen2Buses1ms 000000018007b9f8     c18_SpeedgoatCANOpen2Buses1ms.obj
 0004:00001a04       $pdata$sf_c20_SpeedgoatCANOpen2Buses1ms_get_eml_resolved_functions_info 000000018007ba04     c20_SpeedgoatCANOpen2Buses1ms.obj
 0004:00001a10       $pdata$sf_c20_SpeedgoatCANOpen2Buses1ms_get_check_sum 000000018007ba10     c20_SpeedgoatCANOpen2Buses1ms.obj
 0004:00001a1c       $pdata$c20_SpeedgoatCANOpen2Buses1ms_method_dispatcher 000000018007ba1c     c20_SpeedgoatCANOpen2Buses1ms.obj
 0004:00001a28       $pdata$chart_debug_initialization 000000018007ba28     c20_SpeedgoatCANOpen2Buses1ms.obj
 0004:00001a34       $pdata$chart_debug_initialize_data_addresses 000000018007ba34     c20_SpeedgoatCANOpen2Buses1ms.obj
 0004:00001a40       $pdata$sf_opaque_get_hover_data_for_msg 000000018007ba40     c20_SpeedgoatCANOpen2Buses1ms.obj
 0004:00001a4c       $pdata$initialize_c20_SpeedgoatCANOpen2Buses1ms 000000018007ba4c     c20_SpeedgoatCANOpen2Buses1ms.obj
 0004:00001a58       $pdata$enable_c20_SpeedgoatCANOpen2Buses1ms 000000018007ba58     c20_SpeedgoatCANOpen2Buses1ms.obj
 0004:00001a64       $pdata$disable_c20_SpeedgoatCANOpen2Buses1ms 000000018007ba64     c20_SpeedgoatCANOpen2Buses1ms.obj
 0004:00001a70       $pdata$c20_update_debugger_state_c20_SpeedgoatCANOpen2Buses1ms 000000018007ba70     c20_SpeedgoatCANOpen2Buses1ms.obj
 0004:00001a7c       $pdata$ext_mode_exec_c20_SpeedgoatCANOpen2Buses1ms 000000018007ba7c     c20_SpeedgoatCANOpen2Buses1ms.obj
 0004:00001a88       $pdata$get_sim_state_c20_SpeedgoatCANOpen2Buses1ms 000000018007ba88     c20_SpeedgoatCANOpen2Buses1ms.obj
 0004:00001a94       $pdata$set_sim_state_c20_SpeedgoatCANOpen2Buses1ms 000000018007ba94     c20_SpeedgoatCANOpen2Buses1ms.obj
 0004:00001aa0       $pdata$c20_set_sim_state_side_effects_c20_SpeedgoatCANOpen2Buses1ms 000000018007baa0     c20_SpeedgoatCANOpen2Buses1ms.obj
 0004:00001aac       $pdata$finalize_c20_SpeedgoatCANOpen2Buses1ms 000000018007baac     c20_SpeedgoatCANOpen2Buses1ms.obj
 0004:00001ab8       $pdata$sf_gateway_c20_SpeedgoatCANOpen2Buses1ms 000000018007bab8     c20_SpeedgoatCANOpen2Buses1ms.obj
 0004:00001ac4       $pdata$mdl_start_c20_SpeedgoatCANOpen2Buses1ms 000000018007bac4     c20_SpeedgoatCANOpen2Buses1ms.obj
 0004:00001ad0       $pdata$c20_chartstep_c20_SpeedgoatCANOpen2Buses1ms 000000018007bad0     c20_SpeedgoatCANOpen2Buses1ms.obj
 0004:00001adc       $pdata$c20_sf_marshallOut  000000018007badc     c20_SpeedgoatCANOpen2Buses1ms.obj
 0004:00001ae8       $pdata$c20_emlrt_marshallIn 000000018007bae8     c20_SpeedgoatCANOpen2Buses1ms.obj
 0004:00001af4       $pdata$c20_b_emlrt_marshallIn 000000018007baf4     c20_SpeedgoatCANOpen2Buses1ms.obj
 0004:00001b00       $pdata$c20_sf_marshallIn   000000018007bb00     c20_SpeedgoatCANOpen2Buses1ms.obj
 0004:00001b0c       $pdata$c20_b_sf_marshallOut 000000018007bb0c     c20_SpeedgoatCANOpen2Buses1ms.obj
 0004:00001b18       $pdata$c20_c_emlrt_marshallIn 000000018007bb18     c20_SpeedgoatCANOpen2Buses1ms.obj
 0004:00001b24       $pdata$c20_b_sf_marshallIn 000000018007bb24     c20_SpeedgoatCANOpen2Buses1ms.obj
 0004:00001b30       $pdata$c20_e_emlrt_marshallIn 000000018007bb30     c20_SpeedgoatCANOpen2Buses1ms.obj
 0004:00001b3c       $pdata$c20_f_emlrt_marshallIn 000000018007bb3c     c20_SpeedgoatCANOpen2Buses1ms.obj
 0004:00001b48       $pdata$c20_g_emlrt_marshallIn 000000018007bb48     c20_SpeedgoatCANOpen2Buses1ms.obj
 0004:00001b54       $pdata$c20_h_emlrt_marshallIn 000000018007bb54     c20_SpeedgoatCANOpen2Buses1ms.obj
 0004:00001b60       $pdata$c20_i_emlrt_marshallIn 000000018007bb60     c20_SpeedgoatCANOpen2Buses1ms.obj
 0004:00001b6c       $pdata$c20_j_emlrt_marshallIn 000000018007bb6c     c20_SpeedgoatCANOpen2Buses1ms.obj
 0004:00001b78       $pdata$init_simulink_io_address 000000018007bb78     c20_SpeedgoatCANOpen2Buses1ms.obj
 0004:00001b84       $pdata$sf_c20_SpeedgoatCANOpen2Buses1ms_get_post_codegen_info 000000018007bb84     c20_SpeedgoatCANOpen2Buses1ms.obj
 0004:00001b90       $pdata$sf_c20_SpeedgoatCANOpen2Buses1ms_get_autoinheritance_info 000000018007bb90     c20_SpeedgoatCANOpen2Buses1ms.obj
 0004:00001b9c       $pdata$sf_c20_SpeedgoatCANOpen2Buses1ms_third_party_uses_info 000000018007bb9c     c20_SpeedgoatCANOpen2Buses1ms.obj
 0004:00001ba8       $pdata$sf_c20_SpeedgoatCANOpen2Buses1ms_jit_fallback_info 000000018007bba8     c20_SpeedgoatCANOpen2Buses1ms.obj
 0004:00001bb4       $pdata$sf_c20_SpeedgoatCANOpen2Buses1ms_updateBuildInfo_args_info 000000018007bbb4     c20_SpeedgoatCANOpen2Buses1ms.obj
 0004:00001bc0       $pdata$sf_get_sim_state_info_c20_SpeedgoatCANOpen2Buses1ms 000000018007bbc0     c20_SpeedgoatCANOpen2Buses1ms.obj
 0004:00001bcc       $pdata$sf_check_dwork_consistency 000000018007bbcc     c20_SpeedgoatCANOpen2Buses1ms.obj
 0004:00001bd8       $pdata$sf_opaque_initialize_c20_SpeedgoatCANOpen2Buses1ms 000000018007bbd8     c20_SpeedgoatCANOpen2Buses1ms.obj
 0004:00001be4       $pdata$sf_opaque_enable_c20_SpeedgoatCANOpen2Buses1ms 000000018007bbe4     c20_SpeedgoatCANOpen2Buses1ms.obj
 0004:00001bf0       $pdata$sf_opaque_disable_c20_SpeedgoatCANOpen2Buses1ms 000000018007bbf0     c20_SpeedgoatCANOpen2Buses1ms.obj
 0004:00001bfc       $pdata$sf_opaque_gateway_c20_SpeedgoatCANOpen2Buses1ms 000000018007bbfc     c20_SpeedgoatCANOpen2Buses1ms.obj
 0004:00001c08       $pdata$sf_opaque_ext_mode_exec_c20_SpeedgoatCANOpen2Buses1ms 000000018007bc08     c20_SpeedgoatCANOpen2Buses1ms.obj
 0004:00001c14       $pdata$sf_opaque_get_sim_state_c20_SpeedgoatCANOpen2Buses1ms 000000018007bc14     c20_SpeedgoatCANOpen2Buses1ms.obj
 0004:00001c20       $pdata$sf_opaque_set_sim_state_c20_SpeedgoatCANOpen2Buses1ms 000000018007bc20     c20_SpeedgoatCANOpen2Buses1ms.obj
 0004:00001c2c       $pdata$sf_opaque_terminate_c20_SpeedgoatCANOpen2Buses1ms 000000018007bc2c     c20_SpeedgoatCANOpen2Buses1ms.obj
 0004:00001c38       $pdata$mdlProcessParameters_c20_SpeedgoatCANOpen2Buses1ms 000000018007bc38     c20_SpeedgoatCANOpen2Buses1ms.obj
 0004:00001c44       $pdata$sf_set_sfun_dwork_info 000000018007bc44     c20_SpeedgoatCANOpen2Buses1ms.obj
 0004:00001c50       $pdata$mdlSetWorkWidths_c20_SpeedgoatCANOpen2Buses1ms 000000018007bc50     c20_SpeedgoatCANOpen2Buses1ms.obj
 0004:00001c5c       $pdata$mdlRTW_c20_SpeedgoatCANOpen2Buses1ms 000000018007bc5c     c20_SpeedgoatCANOpen2Buses1ms.obj
 0004:00001c68       $pdata$mdlStart_c20_SpeedgoatCANOpen2Buses1ms 000000018007bc68     c20_SpeedgoatCANOpen2Buses1ms.obj
 0004:00001c74       $pdata$mexFunction         000000018007bc74     SpeedgoatCANOpen2Buses1ms_sfun_registry.obj
 0004:00001c80       $pdata$_ssSetInputPortDirectFeedThroughFcn 000000018007bc80     SpeedgoatCANOpen2Buses1ms_sfun_registry.obj
 0004:00001c8c       $pdata$_ssSetRWorkValueFcn 000000018007bc8c     SpeedgoatCANOpen2Buses1ms_sfun_registry.obj
 0004:00001c98       $pdata$_ssGetRWorkValueFcn 000000018007bc98     SpeedgoatCANOpen2Buses1ms_sfun_registry.obj
 0004:00001ca4       $pdata$_ssSetIWorkValueFcn 000000018007bca4     SpeedgoatCANOpen2Buses1ms_sfun_registry.obj
 0004:00001cb0       $pdata$_ssGetIWorkValueFcn 000000018007bcb0     SpeedgoatCANOpen2Buses1ms_sfun_registry.obj
 0004:00001cbc       $pdata$_ssSetPWorkValueFcn 000000018007bcbc     SpeedgoatCANOpen2Buses1ms_sfun_registry.obj
 0004:00001cc8       $pdata$_ssGetPWorkValueFcn 000000018007bcc8     SpeedgoatCANOpen2Buses1ms_sfun_registry.obj
 0004:00001cd4       $pdata$_ssGetInputPortSignalFcn 000000018007bcd4     SpeedgoatCANOpen2Buses1ms_sfun_registry.obj
 0004:00001ce0       $pdata$_ssGetInputPortBufferDstPortFcn 000000018007bce0     SpeedgoatCANOpen2Buses1ms_sfun_registry.obj
 0004:00001cec       $pdata$_ssGetInputPortSignalPtrsFcn 000000018007bcec     SpeedgoatCANOpen2Buses1ms_sfun_registry.obj
 0004:00001cf8       $pdata$ssGetParameterTuningCompliance 000000018007bcf8     SpeedgoatCANOpen2Buses1ms_sfun_registry.obj
 0004:00001d04       $pdata$ssGetDTypeIdFromMxArray 000000018007bd04     SpeedgoatCANOpen2Buses1ms_sfun_registry.obj
 0004:00001d10       $pdata$ssWriteRTWMx2dMatParam 000000018007bd10     SpeedgoatCANOpen2Buses1ms_sfun_registry.obj
 0004:00001d1c       $pdata$ssWriteRTWMxVectParam 000000018007bd1c     SpeedgoatCANOpen2Buses1ms_sfun_registry.obj
 0004:00001d28       $pdata$ssWriteRTWParameters 000000018007bd28     SpeedgoatCANOpen2Buses1ms_sfun_registry.obj
 0004:00001d34       $pdata$ssWriteRTWParamSettings 000000018007bd34     SpeedgoatCANOpen2Buses1ms_sfun_registry.obj
 0004:00001d40       $pdata$ssWriteRTWStr       000000018007bd40     SpeedgoatCANOpen2Buses1ms_sfun_registry.obj
 0004:00001d4c       $pdata$ssWriteRTWWorkVect  000000018007bd4c     SpeedgoatCANOpen2Buses1ms_sfun_registry.obj
 0004:00001d58       $pdata$ssWarning           000000018007bd58     SpeedgoatCANOpen2Buses1ms_sfun_registry.obj
 0004:00001d64       $pdata$ssWriteRTWNameValuePair 000000018007bd64     SpeedgoatCANOpen2Buses1ms_sfun_registry.obj
 0004:00001d70       $pdata$_ssSetInputPortMatrixDimensions 000000018007bd70     SpeedgoatCANOpen2Buses1ms_sfun_registry.obj
 0004:00001d7c       $pdata$_ssSetOutputPortMatrixDimensions 000000018007bd7c     SpeedgoatCANOpen2Buses1ms_sfun_registry.obj
 0004:00001d88       $pdata$_ssSetInputPortVectorDimension 000000018007bd88     SpeedgoatCANOpen2Buses1ms_sfun_registry.obj
 0004:00001d94       $pdata$_ssSetOutputPortVectorDimension 000000018007bd94     SpeedgoatCANOpen2Buses1ms_sfun_registry.obj
 0004:00001da0       $pdata$ssIsRunTimeParamTunable 000000018007bda0     SpeedgoatCANOpen2Buses1ms_sfun_registry.obj
 0004:00001dac       $pdata$ssGetSFuncBlockHandle 000000018007bdac     SpeedgoatCANOpen2Buses1ms_sfun_registry.obj
 0004:00001db8       $pdata$_ssGetCurrentInputPortWidth 000000018007bdb8     SpeedgoatCANOpen2Buses1ms_sfun_registry.obj
 0004:00001dc4       $pdata$_ssGetCurrentOutputPortWidth 000000018007bdc4     SpeedgoatCANOpen2Buses1ms_sfun_registry.obj
 0004:00001dd0       $pdata$_ssGetCallSystemNumFcnCallDestinations 000000018007bdd0     SpeedgoatCANOpen2Buses1ms_sfun_registry.obj
 0004:00001ddc       $pdata$ssGetIsZeroCrossControlDisabled 000000018007bddc     SpeedgoatCANOpen2Buses1ms_sfun_registry.obj
 0004:00001de8       $pdata$ssSetIsInputPortUsedForContZcSignal 000000018007bde8     SpeedgoatCANOpen2Buses1ms_sfun_registry.obj
 0004:00001df4       $pdata$ssSetZcSignalIsZcElementDisc 000000018007bdf4     SpeedgoatCANOpen2Buses1ms_sfun_registry.obj
 0004:00001e00       $pdata$ssSetZcSignalName   000000018007be00     SpeedgoatCANOpen2Buses1ms_sfun_registry.obj
 0004:00001e0c       $pdata$ssSetZcSignalWidth  000000018007be0c     SpeedgoatCANOpen2Buses1ms_sfun_registry.obj
 0004:00001e18       $pdata$ssSetZcSignalZcEventType 000000018007be18     SpeedgoatCANOpen2Buses1ms_sfun_registry.obj
 0004:00001e24       $pdata$ssSetZcSignalType   000000018007be24     SpeedgoatCANOpen2Buses1ms_sfun_registry.obj
 0004:00001e30       $pdata$ssSetZcSignalZcTol  000000018007be30     SpeedgoatCANOpen2Buses1ms_sfun_registry.obj
 0004:00001e3c       $pdata$ssSetZcSignalNeedsEventNotification 000000018007be3c     SpeedgoatCANOpen2Buses1ms_sfun_registry.obj
 0004:00001e48       $pdata$ssCreateAndAddZcSignalInfo 000000018007be48     SpeedgoatCANOpen2Buses1ms_sfun_registry.obj
 0004:00001e54       $pdata$ssCloneAndAddZcSignalInfo 000000018007be54     SpeedgoatCANOpen2Buses1ms_sfun_registry.obj
 0004:00001e60       $pdata$ssGetNumZcSignals   000000018007be60     SpeedgoatCANOpen2Buses1ms_sfun_registry.obj
 0004:00001e6c       $pdata$ssGetZcSignalVector 000000018007be6c     SpeedgoatCANOpen2Buses1ms_sfun_registry.obj
 0004:00001e78       $pdata$ssGetZcSignalName   000000018007be78     SpeedgoatCANOpen2Buses1ms_sfun_registry.obj
 0004:00001e84       $pdata$ssGetZcSignalWidth  000000018007be84     SpeedgoatCANOpen2Buses1ms_sfun_registry.obj
 0004:00001e90       $pdata$ssGetZcSignalZcEventType 000000018007be90     SpeedgoatCANOpen2Buses1ms_sfun_registry.obj
 0004:00001e9c       $pdata$ssGetZcSignalZcEvents 000000018007be9c     SpeedgoatCANOpen2Buses1ms_sfun_registry.obj
 0004:00001ea8       $pdata$ssGetZcSignalType   000000018007bea8     SpeedgoatCANOpen2Buses1ms_sfun_registry.obj
 0004:00001eb4       $pdata$ssGetZcSignalZcTol  000000018007beb4     SpeedgoatCANOpen2Buses1ms_sfun_registry.obj
 0004:00001ec0       $pdata$ssGetZcSignalNeedsEventNotification 000000018007bec0     SpeedgoatCANOpen2Buses1ms_sfun_registry.obj
 0004:00001ecc       $pdata$ssGetZcSignalIsZcElementDisc 000000018007becc     SpeedgoatCANOpen2Buses1ms_sfun_registry.obj
 0004:00001ed8       $pdata$ssGetIsInputPortElementContinuous 000000018007bed8     SpeedgoatCANOpen2Buses1ms_sfun_registry.obj
 0004:00001ee4       $pdata$_ssGetAbsTol        000000018007bee4     SpeedgoatCANOpen2Buses1ms_sfun_registry.obj
 0004:00001ef0       $pdata$_ssSetInputPortReusableFcn 000000018007bef0     SpeedgoatCANOpen2Buses1ms_sfun_registry.obj
 0004:00001efc       $pdata$_ssSetOutputPortReusableFcn 000000018007befc     SpeedgoatCANOpen2Buses1ms_sfun_registry.obj
 0004:00001f08       $pdata$_ssSetSymbolicDimsSupport 000000018007bf08     SpeedgoatCANOpen2Buses1ms_sfun_registry.obj
 0004:00001f14       $pdata$_ssRegisterSymbolicDimsExpr 000000018007bf14     SpeedgoatCANOpen2Buses1ms_sfun_registry.obj
 0004:00001f20       $pdata$_ssRegisterSymbolicDims 000000018007bf20     SpeedgoatCANOpen2Buses1ms_sfun_registry.obj
 0004:00001f2c       $pdata$_ssRegisterSymbolicDimsString 000000018007bf2c     SpeedgoatCANOpen2Buses1ms_sfun_registry.obj
 0004:00001f38       $pdata$_ssRegisterSymbolicDimsIntValue 000000018007bf38     SpeedgoatCANOpen2Buses1ms_sfun_registry.obj
 0004:00001f44       $pdata$_ssRegisterSymbolicDimsPlus 000000018007bf44     SpeedgoatCANOpen2Buses1ms_sfun_registry.obj
 0004:00001f50       $pdata$_ssRegisterSymbolicDimsMinus 000000018007bf50     SpeedgoatCANOpen2Buses1ms_sfun_registry.obj
 0004:00001f5c       $pdata$_ssRegisterSymbolicDimsMultiply 000000018007bf5c     SpeedgoatCANOpen2Buses1ms_sfun_registry.obj
 0004:00001f68       $pdata$_ssRegisterSymbolicDimsDivide 000000018007bf68     SpeedgoatCANOpen2Buses1ms_sfun_registry.obj
 0004:00001f74       $pdata$_ssGetNumSymbolicDims 000000018007bf74     SpeedgoatCANOpen2Buses1ms_sfun_registry.obj
 0004:00001f80       $pdata$_ssGetSymbolicDim   000000018007bf80     SpeedgoatCANOpen2Buses1ms_sfun_registry.obj
 0004:00001f8c       $pdata$_ssSetInputPortSymbolicDimsId 000000018007bf8c     SpeedgoatCANOpen2Buses1ms_sfun_registry.obj
 0004:00001f98       $pdata$_ssGetCompInputPortSymbolicDimsId 000000018007bf98     SpeedgoatCANOpen2Buses1ms_sfun_registry.obj
 0004:00001fa4       $pdata$_ssSetCompInputPortSymbolicDimsId 000000018007bfa4     SpeedgoatCANOpen2Buses1ms_sfun_registry.obj
 0004:00001fb0       $pdata$_ssSetOutputPortSymbolicDimsId 000000018007bfb0     SpeedgoatCANOpen2Buses1ms_sfun_registry.obj
 0004:00001fbc       $pdata$_ssGetCompOutputPortSymbolicDimsId 000000018007bfbc     SpeedgoatCANOpen2Buses1ms_sfun_registry.obj
 0004:00001fc8       $pdata$_ssSetCompOutputPortSymbolicDimsId 000000018007bfc8     SpeedgoatCANOpen2Buses1ms_sfun_registry.obj
 0004:00001fd4       $pdata$_ssSetCompDWorkSymbolicDimsId 000000018007bfd4     SpeedgoatCANOpen2Buses1ms_sfun_registry.obj
 0004:00001fe0       $pdata$sf_process_check_sum_call 000000018007bfe0     SpeedgoatCANOpen2Buses1ms_sfun_registry.obj
 0004:00001fec       $pdata$sf_process_testpoint_info_call 000000018007bfec     SpeedgoatCANOpen2Buses1ms_sfun_registry.obj
 0004:00001ff8       $pdata$sf_process_autoinheritance_call 000000018007bff8     SpeedgoatCANOpen2Buses1ms_sfun_registry.obj
 0004:00002004       $pdata$sf_process_get_third_party_uses_info_call 000000018007c004     SpeedgoatCANOpen2Buses1ms_sfun_registry.obj
 0004:00002010       $pdata$sf_process_get_jit_fallback_info_call 000000018007c010     SpeedgoatCANOpen2Buses1ms_sfun_registry.obj
 0004:0000201c       $pdata$sf_process_get_updateBuildInfo_args_info_call 000000018007c01c     SpeedgoatCANOpen2Buses1ms_sfun_registry.obj
 0004:00002028       $pdata$sf_process_get_eml_resolved_functions_info_call 000000018007c028     SpeedgoatCANOpen2Buses1ms_sfun_registry.obj
 0004:00002034       $pdata$sf_mex_unlock_call  000000018007c034     SpeedgoatCANOpen2Buses1ms_sfun_registry.obj
 0004:00002040       $pdata$sf_debug_api_wrapper 000000018007c040     SpeedgoatCANOpen2Buses1ms_sfun_registry.obj
 0004:0000204c       $pdata$ProcessMexSfunctionCmdLineCall 000000018007c04c     SpeedgoatCANOpen2Buses1ms_sfun_registry.obj
 0004:00002058       $pdata$sf_machine_global_initializer_called 000000018007c058     SpeedgoatCANOpen2Buses1ms_sfun_registry.obj
 0004:00002064       $pdata$sf_machine_global_method_dispatcher 000000018007c064     SpeedgoatCANOpen2Buses1ms_sfun_registry.obj
 0004:00002070       $pdata$sf_machine_global_terminator 000000018007c070     SpeedgoatCANOpen2Buses1ms_sfun_registry.obj
 0004:0000207c       $pdata$sf_register_machine_exported_symbols 000000018007c07c     SpeedgoatCANOpen2Buses1ms_sfun_registry.obj
 0004:00002088       $pdata$sf_machine_global_initializer 000000018007c088     SpeedgoatCANOpen2Buses1ms_sfun_registry.obj
 0004:00002094       $pdata$mdlGetSimState      000000018007c094     SpeedgoatCANOpen2Buses1ms_sfun_registry.obj
 0004:000020a0       $pdata$mdlSetSimState      000000018007c0a0     SpeedgoatCANOpen2Buses1ms_sfun_registry.obj
 0004:000020ac       $pdata$mdlSetWorkWidths    000000018007c0ac     SpeedgoatCANOpen2Buses1ms_sfun_registry.obj
 0004:000020b8       $pdata$mdlProcessParameters 000000018007c0b8     SpeedgoatCANOpen2Buses1ms_sfun_registry.obj
 0004:000020c4       $pdata$mdl_start_processing 000000018007c0c4     SpeedgoatCANOpen2Buses1ms_sfun_registry.obj
 0004:000020d0       $pdata$mdl_terminate_processing 000000018007c0d0     SpeedgoatCANOpen2Buses1ms_sfun_registry.obj
 0004:000020dc       $pdata$mdlStart            000000018007c0dc     SpeedgoatCANOpen2Buses1ms_sfun_registry.obj
 0004:000020e8       $pdata$mdlTerminate        000000018007c0e8     SpeedgoatCANOpen2Buses1ms_sfun_registry.obj
 0004:000020f4       $pdata$mdlInitializeSizes  000000018007c0f4     SpeedgoatCANOpen2Buses1ms_sfun_registry.obj
 0004:00002100       $pdata$mdlInitializeSampleTimes 000000018007c100     SpeedgoatCANOpen2Buses1ms_sfun_registry.obj
 0004:0000210c       $pdata$mdl_outputs_continuous_legacy 000000018007c10c     SpeedgoatCANOpen2Buses1ms_sfun_registry.obj
 0004:00002118       $pdata$mdl_outputs_processing 000000018007c118     SpeedgoatCANOpen2Buses1ms_sfun_registry.obj
 0004:00002124       $pdata$mdl_zeroCrossings_processing 000000018007c124     SpeedgoatCANOpen2Buses1ms_sfun_registry.obj
 0004:00002130       $pdata$mdlZeroCrossings    000000018007c130     SpeedgoatCANOpen2Buses1ms_sfun_registry.obj
 0004:0000213c       $pdata$mdl_derivatives_processing 000000018007c13c     SpeedgoatCANOpen2Buses1ms_sfun_registry.obj
 0004:00002148       $pdata$mdlDerivatives      000000018007c148     SpeedgoatCANOpen2Buses1ms_sfun_registry.obj
 0004:00002154       $pdata$mdl_initialize_conditions_processing 000000018007c154     SpeedgoatCANOpen2Buses1ms_sfun_registry.obj
 0004:00002160       $pdata$mdlInitializeConditions 000000018007c160     SpeedgoatCANOpen2Buses1ms_sfun_registry.obj
 0004:0000216c       $pdata$mdl_ext_mode_exec_processing 000000018007c16c     SpeedgoatCANOpen2Buses1ms_sfun_registry.obj
 0004:00002178       $pdata$mdlExtModeExec      000000018007c178     SpeedgoatCANOpen2Buses1ms_sfun_registry.obj
 0004:00002184       $pdata$mdlRTW              000000018007c184     SpeedgoatCANOpen2Buses1ms_sfun_registry.obj
 0004:00002190       $pdata$mdl_enable_processing 000000018007c190     SpeedgoatCANOpen2Buses1ms_sfun_registry.obj
 0004:0000219c       $pdata$mdlEnable           000000018007c19c     SpeedgoatCANOpen2Buses1ms_sfun_registry.obj
 0004:000021a8       $pdata$mdl_disable_processing 000000018007c1a8     SpeedgoatCANOpen2Buses1ms_sfun_registry.obj
 0004:000021b4       $pdata$mdlDisable          000000018007c1b4     SpeedgoatCANOpen2Buses1ms_sfun_registry.obj
 0004:000021c0       $pdata$mdlOutputs          000000018007c1c0     SpeedgoatCANOpen2Buses1ms_sfun_registry.obj
 0004:000021cc       $pdata$mdl_update_processing 000000018007c1cc     SpeedgoatCANOpen2Buses1ms_sfun_registry.obj
 0004:000021d8       $pdata$mdlUpdate           000000018007c1d8     SpeedgoatCANOpen2Buses1ms_sfun_registry.obj
 0004:000021e4       $pdata$ProcessMexSfunctionEveryCall 000000018007c1e4     SpeedgoatCANOpen2Buses1ms_sfun_registry.obj
 0004:000021f0       $pdata$_RegNumInputPortsCB 000000018007c1f0     SpeedgoatCANOpen2Buses1ms_sfun_registry.obj
 0004:000021fc       $pdata$_RegNumOutputPortsCB 000000018007c1fc     SpeedgoatCANOpen2Buses1ms_sfun_registry.obj
 0004:00002208       $pdata$_CreateSimStruct    000000018007c208     SpeedgoatCANOpen2Buses1ms_sfun_registry.obj
 0004:00002214       $pdata$_ProcessMexSfunctionCmdLineCall 000000018007c214     SpeedgoatCANOpen2Buses1ms_sfun_registry.obj
 0004:00002220       $pdata$ReportIndexOutOfBoundsError 000000018007c220     SpeedgoatCANOpen2Buses1ms_sfun_registry.obj
 0004:0000222c       $pdata$_vsnprintf_l        000000018007c22c     SpeedgoatCANOpen2Buses1ms_sfun_registry.obj
 0004:00002238       $pdata$_vsprintf_l         000000018007c238     SpeedgoatCANOpen2Buses1ms_sfun_registry.obj
 0004:00002244       $pdata$sprintf             000000018007c244     SpeedgoatCANOpen2Buses1ms_sfun_registry.obj
 0004:00002250       $pdata$__raise_securityfailure 000000018007c250     MSVCRT:gs_report.obj
 0004:0000225c       $pdata$__report_gsfailure  000000018007c25c     MSVCRT:gs_report.obj
 0004:00002268       $pdata$__report_rangecheckfailure 000000018007c268     MSVCRT:gs_report.obj
 0004:00002274       $pdata$__report_securityfailure 000000018007c274     MSVCRT:gs_report.obj
 0004:00002280       $pdata$__report_securityfailureEx 000000018007c280     MSVCRT:gs_report.obj
 0004:0000228c       $pdata$capture_current_context 000000018007c28c     MSVCRT:gs_report.obj
 0004:00002298       $pdata$capture_previous_context 000000018007c298     MSVCRT:gs_report.obj
 0004:000022a4       $pdata$__GSHandlerCheck    000000018007c2a4     MSVCRT:gshandler.obj
 0004:000022b0       $pdata$__GSHandlerCheckCommon 000000018007c2b0     MSVCRT:gshandler.obj
 0004:000022c8       $pdata$?dllmain_crt_dispatch@@YAHQEAUHINSTANCE__@@KQEAX@Z 000000018007c2c8     MSVCRT:dll_dllmain.obj
 0004:000022d4       $pdata$?dllmain_crt_process_attach@@YAHQEAUHINSTANCE__@@QEAX@Z 000000018007c2d4     MSVCRT:dll_dllmain.obj
 0004:000022e0       $pdata$?dllmain_crt_process_detach@@YAH_N@Z 000000018007c2e0     MSVCRT:dll_dllmain.obj
 0004:000022ec       $pdata$?dllmain_dispatch@@YAHQEAUHINSTANCE__@@KQEAX@Z 000000018007c2ec     MSVCRT:dll_dllmain.obj
 0004:000022f8       $pdata$_DllMainCRTStartup  000000018007c2f8     MSVCRT:dll_dllmain.obj
 0004:00002304       $pdata$__get_entropy       000000018007c304     MSVCRT:gs_support.obj
 0004:00002310       $pdata$__security_init_cookie 000000018007c310     MSVCRT:gs_support.obj
 0004:0000231c       $pdata$DllMain             000000018007c31c     MSVCRT:dll_dllmain_stub.obj
 0004:00002328       $pdata$__scrt_initialize_default_local_stdio_options 000000018007c328     MSVCRT:default_local_stdio_options.obj
 0004:00002334       $pdata$?configure_argv@__scrt_narrow_argv_policy@@SAHXZ 000000018007c334     MSVCRT:utility.obj
 0004:00002340       $pdata$__scrt_acquire_startup_lock 000000018007c340     MSVCRT:utility.obj
 0004:0000234c       $pdata$__scrt_dllmain_after_initialize_c 000000018007c34c     MSVCRT:utility.obj
 0004:00002358       $pdata$__scrt_dllmain_before_initialize_c 000000018007c358     MSVCRT:utility.obj
 0004:00002364       $pdata$__scrt_dllmain_crt_thread_attach 000000018007c364     MSVCRT:utility.obj
 0004:00002370       $pdata$__scrt_dllmain_crt_thread_detach 000000018007c370     MSVCRT:utility.obj
 0004:0000237c       $pdata$__scrt_dllmain_exception_filter 000000018007c37c     MSVCRT:utility.obj
 0004:00002388       $pdata$__scrt_dllmain_uninitialize_c 000000018007c388     MSVCRT:utility.obj
 0004:00002394       $pdata$__scrt_dllmain_uninitialize_critical 000000018007c394     MSVCRT:utility.obj
 0004:000023a0       $pdata$__scrt_initialize_crt 000000018007c3a0     MSVCRT:utility.obj
 0004:000023ac       $pdata$__scrt_initialize_onexit_tables 000000018007c3ac     MSVCRT:utility.obj
 0004:000023b8       $pdata$__scrt_is_nonwritable_in_current_image 000000018007c3b8     MSVCRT:utility.obj
 0004:000023c4       $pdata$__scrt_release_startup_lock 000000018007c3c4     MSVCRT:utility.obj
 0004:000023d0       $pdata$__scrt_uninitialize_crt 000000018007c3d0     MSVCRT:utility.obj
 0004:000023dc       $pdata$_onexit             000000018007c3dc     MSVCRT:utility.obj
 0004:000023e8       $pdata$atexit              000000018007c3e8     MSVCRT:utility.obj
 0004:000023f4       $pdata$__scrt_fastfail     000000018007c3f4     MSVCRT:utility_desktop.obj
 0004:00002400       $pdata$__scrt_get_show_window_mode 000000018007c400     MSVCRT:utility_desktop.obj
 0004:0000240c       $pdata$__scrt_is_managed_app 000000018007c40c     MSVCRT:utility_desktop.obj
 0004:00002418       $pdata$__scrt_unhandled_exception_filter 000000018007c418     MSVCRT:utility_desktop.obj
 0004:00002424       $pdata$_RTC_Initialize     000000018007c424     MSVCRT:initsect.obj
 0004:00002430       $pdata$_RTC_Terminate      000000018007c430     MSVCRT:initsect.obj
 0004:0000243c       $pdata$__isa_available_init 000000018007c43c     MSVCRT:cpu_disp.obj
 0004:00002454       $pdata$?fin$0@?0??dllmain_crt_process_attach@@YAHQEAUHINSTANCE__@@QEAX@Z@4HA 000000018007c454     MSVCRT:dll_dllmain.obj
 0004:00002460       $pdata$?fin$0@?0??dllmain_crt_process_detach@@YAH_N@Z@4HA 000000018007c460     MSVCRT:dll_dllmain.obj
 0004:0000246c       $pdata$?filt$0@?0??dllmain_dispatch@@YAHQEAUHINSTANCE__@@KQEAX@Z@4HA 000000018007c46c     MSVCRT:dll_dllmain.obj
 0004:00002478       $pdata$__scrt_is_nonwritable_in_current_image$filt$0 000000018007c478     MSVCRT:utility.obj
