 SpeedgoatCANOpen2Buses100us_sfun

 Timestamp is 60f844e0 (Wed Jul 21 19:01:36 2021)

 Preferred load address is 0000000180000000

 Start         Length     Name                   Class
 0001:00000000 0003de20H .text$mn                CODE
 0001:0003de20 00000012H .text$mn$00             CODE
 0001:0003de32 00000081H .text$x                 CODE
 0002:00000000 00000518H .idata$5                DATA
 0002:00000518 00000010H .00cfg                  DATA
 0002:00000528 00000008H .CRT$XCA                DATA
 0002:00000530 00000008H .CRT$XCZ                DATA
 0002:00000538 00000008H .CRT$XIA                DATA
 0002:00000540 00000008H .CRT$XIZ                DATA
 0002:00000548 00000008H .CRT$XPA                DATA
 0002:00000550 00000008H .CRT$XPZ                DATA
 0002:00000558 00000008H .CRT$XTA                DATA
 0002:00000560 00000010H .CRT$XTZ                DATA
 0002:00000568 00000000H .gfids$y                DATA
 0002:00000570 000002f0H .rdata                  DATA
 0002:00000860 00000218H .rdata$zzzdbg           DATA
 0002:00000a78 00000008H .rtc$IAA                DATA
 0002:00000a80 00000008H .rtc$IZZ                DATA
 0002:00000a88 00000008H .rtc$TAA                DATA
 0002:00000a90 00000008H .rtc$TZZ                DATA
 0002:00000a98 00001278H .xdata                  DATA
 0002:00001d10 0000008cH .edata                  DATA
 0002:00001d9c 000000dcH .idata$2                DATA
 0002:00001e78 00000018H .idata$3                DATA
 0002:00001e90 00000518H .idata$4                DATA
 0002:000023a8 00000f8aH .idata$6                DATA
 0003:00000000 00008240H .data                   DATA
 0003:00008240 00000790H .bss                    DATA
 0004:00000000 00001800H .pdata                  DATA

  Address         Publics by Value              Rva+Base               Lib:Object

 0000:00000000       __enclave_config           0000000000000000     <absolute>
 0000:00000000       __guard_fids_table         0000000000000000     <absolute>
 0000:00000000       __guard_iat_count          0000000000000000     <absolute>
 0000:00000000       __dynamic_value_reloc_table 0000000000000000     <absolute>
 0000:00000000       __guard_longjmp_count      0000000000000000     <absolute>
 0000:00000000       __hybrid_code_map_count    0000000000000000     <absolute>
 0000:00000000       ___safe_se_handler_count   0000000000000000     <absolute>
 0000:00000000       __hybrid_code_map          0000000000000000     <absolute>
 0000:00000000       __guard_iat_table          0000000000000000     <absolute>
 0000:00000000       __guard_longjmp_table      0000000000000000     <absolute>
 0000:00000000       __hybrid_auxiliary_iat     0000000000000000     <absolute>
 0000:00000000       __guard_fids_count         0000000000000000     <absolute>
 0000:00000000       __volatile_metadata        0000000000000000     <absolute>
 0000:00000000       ___safe_se_handler_table   0000000000000000     <absolute>
 0000:00000100       __guard_flags              0000000000000100     <absolute>
 0000:00000000       __ImageBase                0000000180000000     <linker-defined>
 0001:00000000       SpeedgoatCANOpen2Buses100us_initializer 0000000180001000 f   SpeedgoatCANOpen2Buses100us_sfun.obj
 0001:00000010       SpeedgoatCANOpen2Buses100us_terminator 0000000180001010 f   SpeedgoatCANOpen2Buses100us_sfun.obj
 0001:00000020       load_SpeedgoatCANOpen2Buses100us_optimization_info 0000000180001020 f   SpeedgoatCANOpen2Buses100us_sfun.obj
 0001:000000d0       unload_SpeedgoatCANOpen2Buses100us_optimization_info 00000001800010d0 f   SpeedgoatCANOpen2Buses100us_sfun.obj
 0001:00000100       sf_SpeedgoatCANOpen2Buses100us_method_dispatcher 0000000180001100 f   SpeedgoatCANOpen2Buses100us_sfun.obj
 0001:000001f0       sf_SpeedgoatCANOpen2Buses100us_process_testpoint_info_call 00000001800011f0 f   SpeedgoatCANOpen2Buses100us_sfun.obj
 0001:000004c0       sf_SpeedgoatCANOpen2Buses100us_process_check_sum_call 00000001800014c0 f   SpeedgoatCANOpen2Buses100us_sfun.obj
 0001:00000a50       sf_SpeedgoatCANOpen2Buses100us_autoinheritance_info 0000000180001a50 f   SpeedgoatCANOpen2Buses100us_sfun.obj
 0001:00000e50       sf_SpeedgoatCANOpen2Buses100us_get_eml_resolved_functions_info 0000000180001e50 f   SpeedgoatCANOpen2Buses100us_sfun.obj
 0001:00001200       sf_SpeedgoatCANOpen2Buses100us_third_party_uses_info 0000000180002200 f   SpeedgoatCANOpen2Buses100us_sfun.obj
 0001:00001520       sf_SpeedgoatCANOpen2Buses100us_jit_fallback_info 0000000180002520 f   SpeedgoatCANOpen2Buses100us_sfun.obj
 0001:00001840       sf_SpeedgoatCANOpen2Buses100us_updateBuildInfo_args_info 0000000180002840 f   SpeedgoatCANOpen2Buses100us_sfun.obj
 0001:00001b60       SpeedgoatCANOpen2Buses100us_debug_initialize 0000000180002b60 f   SpeedgoatCANOpen2Buses100us_sfun.obj
 0001:00001be0       SpeedgoatCANOpen2Buses100us_register_exported_symbols 0000000180002be0 f   SpeedgoatCANOpen2Buses100us_sfun.obj
 0001:00001bf0       sf_c1_SpeedgoatCANOpen2Buses100us_get_eml_resolved_functions_info 0000000180002bf0 f   c1_SpeedgoatCANOpen2Buses100us.obj
 0001:00001c70       sf_c1_SpeedgoatCANOpen2Buses100us_get_check_sum 0000000180002c70 f   c1_SpeedgoatCANOpen2Buses100us.obj
 0001:00001d40       c1_SpeedgoatCANOpen2Buses100us_method_dispatcher 0000000180002d40 f   c1_SpeedgoatCANOpen2Buses100us.obj
 0001:00009a50       sf_c1_SpeedgoatCANOpen2Buses100us_get_post_codegen_info 000000018000aa50 f   c1_SpeedgoatCANOpen2Buses100us.obj
 0001:00009b20       sf_c1_SpeedgoatCANOpen2Buses100us_get_autoinheritance_info 000000018000ab20 f   c1_SpeedgoatCANOpen2Buses100us.obj
 0001:0000a880       sf_c1_SpeedgoatCANOpen2Buses100us_third_party_uses_info 000000018000b880 f   c1_SpeedgoatCANOpen2Buses100us.obj
 0001:0000a8b0       sf_c1_SpeedgoatCANOpen2Buses100us_jit_fallback_info 000000018000b8b0 f   c1_SpeedgoatCANOpen2Buses100us.obj
 0001:0000aa40       sf_c1_SpeedgoatCANOpen2Buses100us_updateBuildInfo_args_info 000000018000ba40 f   c1_SpeedgoatCANOpen2Buses100us.obj
 0001:0000af60       sf_c1_SpeedgoatCANOpen2Buses100us_get_testpoint_info 000000018000bf60 f   c1_SpeedgoatCANOpen2Buses100us.obj
 0001:0000b9a0       sf_c2_SpeedgoatCANOpen2Buses100us_get_eml_resolved_functions_info 000000018000c9a0 f   c2_SpeedgoatCANOpen2Buses100us.obj
 0001:0000ba20       sf_c2_SpeedgoatCANOpen2Buses100us_get_check_sum 000000018000ca20 f   c2_SpeedgoatCANOpen2Buses100us.obj
 0001:0000baf0       c2_SpeedgoatCANOpen2Buses100us_method_dispatcher 000000018000caf0 f   c2_SpeedgoatCANOpen2Buses100us.obj
 0001:00013800       sf_c2_SpeedgoatCANOpen2Buses100us_get_post_codegen_info 0000000180014800 f   c2_SpeedgoatCANOpen2Buses100us.obj
 0001:000138d0       sf_c2_SpeedgoatCANOpen2Buses100us_get_autoinheritance_info 00000001800148d0 f   c2_SpeedgoatCANOpen2Buses100us.obj
 0001:00014630       sf_c2_SpeedgoatCANOpen2Buses100us_third_party_uses_info 0000000180015630 f   c2_SpeedgoatCANOpen2Buses100us.obj
 0001:00014660       sf_c2_SpeedgoatCANOpen2Buses100us_jit_fallback_info 0000000180015660 f   c2_SpeedgoatCANOpen2Buses100us.obj
 0001:000147f0       sf_c2_SpeedgoatCANOpen2Buses100us_updateBuildInfo_args_info 00000001800157f0 f   c2_SpeedgoatCANOpen2Buses100us.obj
 0001:00014d10       sf_c2_SpeedgoatCANOpen2Buses100us_get_testpoint_info 0000000180015d10 f   c2_SpeedgoatCANOpen2Buses100us.obj
 0001:00015750       sf_c3_SpeedgoatCANOpen2Buses100us_get_eml_resolved_functions_info 0000000180016750 f   c3_SpeedgoatCANOpen2Buses100us.obj
 0001:000157d0       sf_c3_SpeedgoatCANOpen2Buses100us_get_check_sum 00000001800167d0 f   c3_SpeedgoatCANOpen2Buses100us.obj
 0001:000158a0       c3_SpeedgoatCANOpen2Buses100us_method_dispatcher 00000001800168a0 f   c3_SpeedgoatCANOpen2Buses100us.obj
 0001:0001d5b0       sf_c3_SpeedgoatCANOpen2Buses100us_get_post_codegen_info 000000018001e5b0 f   c3_SpeedgoatCANOpen2Buses100us.obj
 0001:0001d680       sf_c3_SpeedgoatCANOpen2Buses100us_get_autoinheritance_info 000000018001e680 f   c3_SpeedgoatCANOpen2Buses100us.obj
 0001:0001e3e0       sf_c3_SpeedgoatCANOpen2Buses100us_third_party_uses_info 000000018001f3e0 f   c3_SpeedgoatCANOpen2Buses100us.obj
 0001:0001e410       sf_c3_SpeedgoatCANOpen2Buses100us_jit_fallback_info 000000018001f410 f   c3_SpeedgoatCANOpen2Buses100us.obj
 0001:0001e5a0       sf_c3_SpeedgoatCANOpen2Buses100us_updateBuildInfo_args_info 000000018001f5a0 f   c3_SpeedgoatCANOpen2Buses100us.obj
 0001:0001eac0       sf_c3_SpeedgoatCANOpen2Buses100us_get_testpoint_info 000000018001fac0 f   c3_SpeedgoatCANOpen2Buses100us.obj
 0001:0001f500       sf_c4_SpeedgoatCANOpen2Buses100us_get_eml_resolved_functions_info 0000000180020500 f   c4_SpeedgoatCANOpen2Buses100us.obj
 0001:0001f580       sf_c4_SpeedgoatCANOpen2Buses100us_get_check_sum 0000000180020580 f   c4_SpeedgoatCANOpen2Buses100us.obj
 0001:0001f650       c4_SpeedgoatCANOpen2Buses100us_method_dispatcher 0000000180020650 f   c4_SpeedgoatCANOpen2Buses100us.obj
 0001:00022bf0       sf_c4_SpeedgoatCANOpen2Buses100us_get_post_codegen_info 0000000180023bf0 f   c4_SpeedgoatCANOpen2Buses100us.obj
 0001:00022cc0       sf_c4_SpeedgoatCANOpen2Buses100us_get_autoinheritance_info 0000000180023cc0 f   c4_SpeedgoatCANOpen2Buses100us.obj
 0001:00023120       sf_c4_SpeedgoatCANOpen2Buses100us_third_party_uses_info 0000000180024120 f   c4_SpeedgoatCANOpen2Buses100us.obj
 0001:00023150       sf_c4_SpeedgoatCANOpen2Buses100us_jit_fallback_info 0000000180024150 f   c4_SpeedgoatCANOpen2Buses100us.obj
 0001:000232e0       sf_c4_SpeedgoatCANOpen2Buses100us_updateBuildInfo_args_info 00000001800242e0 f   c4_SpeedgoatCANOpen2Buses100us.obj
 0001:00023800       sf_c4_SpeedgoatCANOpen2Buses100us_get_testpoint_info 0000000180024800 f   c4_SpeedgoatCANOpen2Buses100us.obj
 0001:000241f0       sf_c5_SpeedgoatCANOpen2Buses100us_get_eml_resolved_functions_info 00000001800251f0 f   c5_SpeedgoatCANOpen2Buses100us.obj
 0001:00024270       sf_c5_SpeedgoatCANOpen2Buses100us_get_check_sum 0000000180025270 f   c5_SpeedgoatCANOpen2Buses100us.obj
 0001:00024340       c5_SpeedgoatCANOpen2Buses100us_method_dispatcher 0000000180025340 f   c5_SpeedgoatCANOpen2Buses100us.obj
 0001:00027d60       sf_c5_SpeedgoatCANOpen2Buses100us_get_post_codegen_info 0000000180028d60 f   c5_SpeedgoatCANOpen2Buses100us.obj
 0001:00027e30       sf_c5_SpeedgoatCANOpen2Buses100us_get_autoinheritance_info 0000000180028e30 f   c5_SpeedgoatCANOpen2Buses100us.obj
 0001:000283c0       sf_c5_SpeedgoatCANOpen2Buses100us_third_party_uses_info 00000001800293c0 f   c5_SpeedgoatCANOpen2Buses100us.obj
 0001:000283f0       sf_c5_SpeedgoatCANOpen2Buses100us_jit_fallback_info 00000001800293f0 f   c5_SpeedgoatCANOpen2Buses100us.obj
 0001:00028580       sf_c5_SpeedgoatCANOpen2Buses100us_updateBuildInfo_args_info 0000000180029580 f   c5_SpeedgoatCANOpen2Buses100us.obj
 0001:00028aa0       sf_c5_SpeedgoatCANOpen2Buses100us_get_testpoint_info 0000000180029aa0 f   c5_SpeedgoatCANOpen2Buses100us.obj
 0001:000294e0       sf_c12_SpeedgoatCANOpen2Buses100us_get_eml_resolved_functions_info 000000018002a4e0 f   c12_SpeedgoatCANOpen2Buses100us.obj
 0001:00029560       sf_c12_SpeedgoatCANOpen2Buses100us_get_check_sum 000000018002a560 f   c12_SpeedgoatCANOpen2Buses100us.obj
 0001:00029630       c12_SpeedgoatCANOpen2Buses100us_method_dispatcher 000000018002a630 f   c12_SpeedgoatCANOpen2Buses100us.obj
 0001:00031340       sf_c12_SpeedgoatCANOpen2Buses100us_get_post_codegen_info 0000000180032340 f   c12_SpeedgoatCANOpen2Buses100us.obj
 0001:00031410       sf_c12_SpeedgoatCANOpen2Buses100us_get_autoinheritance_info 0000000180032410 f   c12_SpeedgoatCANOpen2Buses100us.obj
 0001:00032170       sf_c12_SpeedgoatCANOpen2Buses100us_third_party_uses_info 0000000180033170 f   c12_SpeedgoatCANOpen2Buses100us.obj
 0001:000321a0       sf_c12_SpeedgoatCANOpen2Buses100us_jit_fallback_info 00000001800331a0 f   c12_SpeedgoatCANOpen2Buses100us.obj
 0001:00032330       sf_c12_SpeedgoatCANOpen2Buses100us_updateBuildInfo_args_info 0000000180033330 f   c12_SpeedgoatCANOpen2Buses100us.obj
 0001:00032850       sf_c12_SpeedgoatCANOpen2Buses100us_get_testpoint_info 0000000180033850 f   c12_SpeedgoatCANOpen2Buses100us.obj
 0001:00033290       mexFunction                0000000180034290 f   SpeedgoatCANOpen2Buses100us_sfun_registry.obj
 0001:00035850       _ssSetInputPortDirectFeedThroughFcn 0000000180036850 f   SpeedgoatCANOpen2Buses100us_sfun_registry.obj
 0001:000359c0       _ssSetRWorkValueFcn        00000001800369c0 f   SpeedgoatCANOpen2Buses100us_sfun_registry.obj
 0001:00035a40       _ssGetRWorkValueFcn        0000000180036a40 f   SpeedgoatCANOpen2Buses100us_sfun_registry.obj
 0001:00035ab0       _ssSetIWorkValueFcn        0000000180036ab0 f   SpeedgoatCANOpen2Buses100us_sfun_registry.obj
 0001:00035b30       _ssGetIWorkValueFcn        0000000180036b30 f   SpeedgoatCANOpen2Buses100us_sfun_registry.obj
 0001:00035ba0       _ssSetPWorkValueFcn        0000000180036ba0 f   SpeedgoatCANOpen2Buses100us_sfun_registry.obj
 0001:00035c20       _ssGetPWorkValueFcn        0000000180036c20 f   SpeedgoatCANOpen2Buses100us_sfun_registry.obj
 0001:00035c90       _ssGetInputPortSignalFcn   0000000180036c90 f   SpeedgoatCANOpen2Buses100us_sfun_registry.obj
 0001:00036020       _ssGetInputPortBufferDstPortFcn 0000000180037020 f   SpeedgoatCANOpen2Buses100us_sfun_registry.obj
 0001:000360a0       _ssGetInputPortSignalPtrsFcn 00000001800370a0 f   SpeedgoatCANOpen2Buses100us_sfun_registry.obj
 0001:00036430       ssGetParameterTuningCompliance 0000000180037430 f   SpeedgoatCANOpen2Buses100us_sfun_registry.obj
 0001:000364a0       ssGetDTypeIdFromMxArray    00000001800374a0 f   SpeedgoatCANOpen2Buses100us_sfun_registry.obj
 0001:000365c0       ssWriteRTWMx2dMatParam     00000001800375c0 f   SpeedgoatCANOpen2Buses100us_sfun_registry.obj
 0001:00036650       ssWriteRTWMxVectParam      0000000180037650 f   SpeedgoatCANOpen2Buses100us_sfun_registry.obj
 0001:000366d0       ssWriteRTWParameters       00000001800376d0 f   SpeedgoatCANOpen2Buses100us_sfun_registry.obj
 0001:00036c90       ssWriteRTWParamSettings    0000000180037c90 f   SpeedgoatCANOpen2Buses100us_sfun_registry.obj
 0001:00037380       ssWriteRTWStr              0000000180038380 f   SpeedgoatCANOpen2Buses100us_sfun_registry.obj
 0001:000373e0       ssWriteRTWWorkVect         00000001800383e0 f   SpeedgoatCANOpen2Buses100us_sfun_registry.obj
 0001:00037940       ssWarning                  0000000180038940 f   SpeedgoatCANOpen2Buses100us_sfun_registry.obj
 0001:00037a30       ssWriteRTWNameValuePair    0000000180038a30 f   SpeedgoatCANOpen2Buses100us_sfun_registry.obj
 0001:00037f30       _ssSetInputPortMatrixDimensions 0000000180038f30 f   SpeedgoatCANOpen2Buses100us_sfun_registry.obj
 0001:00038050       _ssSetOutputPortMatrixDimensions 0000000180039050 f   SpeedgoatCANOpen2Buses100us_sfun_registry.obj
 0001:00038170       _ssSetInputPortVectorDimension 0000000180039170 f   SpeedgoatCANOpen2Buses100us_sfun_registry.obj
 0001:00038220       _ssSetOutputPortVectorDimension 0000000180039220 f   SpeedgoatCANOpen2Buses100us_sfun_registry.obj
 0001:000382d0       ssIsRunTimeParamTunable    00000001800392d0 f   SpeedgoatCANOpen2Buses100us_sfun_registry.obj
 0001:00038340       ssGetSFuncBlockHandle      0000000180039340 f   SpeedgoatCANOpen2Buses100us_sfun_registry.obj
 0001:000383b0       _ssGetCurrentInputPortWidth 00000001800393b0 f   SpeedgoatCANOpen2Buses100us_sfun_registry.obj
 0001:000384d0       _ssGetCurrentOutputPortWidth 00000001800394d0 f   SpeedgoatCANOpen2Buses100us_sfun_registry.obj
 0001:000385f0       _ssGetCallSystemNumFcnCallDestinations 00000001800395f0 f   SpeedgoatCANOpen2Buses100us_sfun_registry.obj
 0001:00038660       ssGetIsZeroCrossControlDisabled 0000000180039660 f   SpeedgoatCANOpen2Buses100us_sfun_registry.obj
 0001:000386d0       ssSetIsInputPortUsedForContZcSignal 00000001800396d0 f   SpeedgoatCANOpen2Buses100us_sfun_registry.obj
 0001:00038740       ssSetZcSignalIsZcElementDisc 0000000180039740 f   SpeedgoatCANOpen2Buses100us_sfun_registry.obj
 0001:000387f0       ssSetZcSignalName          00000001800397f0 f   SpeedgoatCANOpen2Buses100us_sfun_registry.obj
 0001:00038860       ssSetZcSignalWidth         0000000180039860 f   SpeedgoatCANOpen2Buses100us_sfun_registry.obj
 0001:000388d0       ssSetZcSignalZcEventType   00000001800398d0 f   SpeedgoatCANOpen2Buses100us_sfun_registry.obj
 0001:00038940       ssSetZcSignalType          0000000180039940 f   SpeedgoatCANOpen2Buses100us_sfun_registry.obj
 0001:000389b0       ssSetZcSignalZcTol         00000001800399b0 f   SpeedgoatCANOpen2Buses100us_sfun_registry.obj
 0001:00038a20       ssSetZcSignalNeedsEventNotification 0000000180039a20 f   SpeedgoatCANOpen2Buses100us_sfun_registry.obj
 0001:00038a90       ssCreateAndAddZcSignalInfo 0000000180039a90 f   SpeedgoatCANOpen2Buses100us_sfun_registry.obj
 0001:00038b00       ssCloneAndAddZcSignalInfo  0000000180039b00 f   SpeedgoatCANOpen2Buses100us_sfun_registry.obj
 0001:00038b70       ssGetNumZcSignals          0000000180039b70 f   SpeedgoatCANOpen2Buses100us_sfun_registry.obj
 0001:00038be0       ssGetZcSignalVector        0000000180039be0 f   SpeedgoatCANOpen2Buses100us_sfun_registry.obj
 0001:00038c50       ssGetZcSignalName          0000000180039c50 f   SpeedgoatCANOpen2Buses100us_sfun_registry.obj
 0001:00038cc0       ssGetZcSignalWidth         0000000180039cc0 f   SpeedgoatCANOpen2Buses100us_sfun_registry.obj
 0001:00038d30       ssGetZcSignalZcEventType   0000000180039d30 f   SpeedgoatCANOpen2Buses100us_sfun_registry.obj
 0001:00038da0       ssGetZcSignalZcEvents      0000000180039da0 f   SpeedgoatCANOpen2Buses100us_sfun_registry.obj
 0001:00038e10       ssGetZcSignalType          0000000180039e10 f   SpeedgoatCANOpen2Buses100us_sfun_registry.obj
 0001:00038e80       ssGetZcSignalZcTol         0000000180039e80 f   SpeedgoatCANOpen2Buses100us_sfun_registry.obj
 0001:00038f00       ssGetZcSignalNeedsEventNotification 0000000180039f00 f   SpeedgoatCANOpen2Buses100us_sfun_registry.obj
 0001:00038f70       ssGetZcSignalIsZcElementDisc 0000000180039f70 f   SpeedgoatCANOpen2Buses100us_sfun_registry.obj
 0001:00039010       ssGetIsInputPortElementContinuous 000000018003a010 f   SpeedgoatCANOpen2Buses100us_sfun_registry.obj
 0001:000390b0       _ssGetAbsTol               000000018003a0b0 f   SpeedgoatCANOpen2Buses100us_sfun_registry.obj
 0001:00039120       _ssSetStateAbsTol          000000018003a120 f   SpeedgoatCANOpen2Buses100us_sfun_registry.obj
 0001:00039200       _ssSetInputPortReusableFcn 000000018003a200 f   SpeedgoatCANOpen2Buses100us_sfun_registry.obj
 0001:00039300       _ssSetOutputPortReusableFcn 000000018003a300 f   SpeedgoatCANOpen2Buses100us_sfun_registry.obj
 0001:00039400       _ssSetSymbolicDimsSupport  000000018003a400 f   SpeedgoatCANOpen2Buses100us_sfun_registry.obj
 0001:00039470       _ssRegisterSymbolicDimsExpr 000000018003a470 f   SpeedgoatCANOpen2Buses100us_sfun_registry.obj
 0001:000394f0       _ssRegisterSymbolicDims    000000018003a4f0 f   SpeedgoatCANOpen2Buses100us_sfun_registry.obj
 0001:00039590       _ssRegisterSymbolicDimsString 000000018003a590 f   SpeedgoatCANOpen2Buses100us_sfun_registry.obj
 0001:00039610       _ssRegisterSymbolicDimsIntValue 000000018003a610 f   SpeedgoatCANOpen2Buses100us_sfun_registry.obj
 0001:00039680       _ssRegisterSymbolicDimsPlus 000000018003a680 f   SpeedgoatCANOpen2Buses100us_sfun_registry.obj
 0001:00039700       _ssRegisterSymbolicDimsMinus 000000018003a700 f   SpeedgoatCANOpen2Buses100us_sfun_registry.obj
 0001:00039780       _ssRegisterSymbolicDimsMultiply 000000018003a780 f   SpeedgoatCANOpen2Buses100us_sfun_registry.obj
 0001:00039800       _ssRegisterSymbolicDimsDivide 000000018003a800 f   SpeedgoatCANOpen2Buses100us_sfun_registry.obj
 0001:00039880       _ssGetNumSymbolicDims      000000018003a880 f   SpeedgoatCANOpen2Buses100us_sfun_registry.obj
 0001:000398f0       _ssGetSymbolicDim          000000018003a8f0 f   SpeedgoatCANOpen2Buses100us_sfun_registry.obj
 0001:00039970       _ssSetInputPortSymbolicDimsId 000000018003a970 f   SpeedgoatCANOpen2Buses100us_sfun_registry.obj
 0001:000399e0       _ssGetCompInputPortSymbolicDimsId 000000018003a9e0 f   SpeedgoatCANOpen2Buses100us_sfun_registry.obj
 0001:00039a50       _ssSetCompInputPortSymbolicDimsId 000000018003aa50 f   SpeedgoatCANOpen2Buses100us_sfun_registry.obj
 0001:00039ac0       _ssSetOutputPortSymbolicDimsId 000000018003aac0 f   SpeedgoatCANOpen2Buses100us_sfun_registry.obj
 0001:00039b30       _ssGetCompOutputPortSymbolicDimsId 000000018003ab30 f   SpeedgoatCANOpen2Buses100us_sfun_registry.obj
 0001:00039ba0       _ssSetCompOutputPortSymbolicDimsId 000000018003aba0 f   SpeedgoatCANOpen2Buses100us_sfun_registry.obj
 0001:00039c10       _ssSetCompDWorkSymbolicDimsId 000000018003ac10 f   SpeedgoatCANOpen2Buses100us_sfun_registry.obj
 0001:00039c80       sf_process_check_sum_call  000000018003ac80 f   SpeedgoatCANOpen2Buses100us_sfun_registry.obj
 0001:00039cd0       sf_process_testpoint_info_call 000000018003acd0 f   SpeedgoatCANOpen2Buses100us_sfun_registry.obj
 0001:00039d20       sf_process_autoinheritance_call 000000018003ad20 f   SpeedgoatCANOpen2Buses100us_sfun_registry.obj
 0001:00039f50       sf_process_get_third_party_uses_info_call 000000018003af50 f   SpeedgoatCANOpen2Buses100us_sfun_registry.obj
 0001:0003a180       sf_process_get_jit_fallback_info_call 000000018003b180 f   SpeedgoatCANOpen2Buses100us_sfun_registry.obj
 0001:0003a3b0       sf_process_get_updateBuildInfo_args_info_call 000000018003b3b0 f   SpeedgoatCANOpen2Buses100us_sfun_registry.obj
 0001:0003a5e0       sf_process_get_eml_resolved_functions_info_call 000000018003b5e0 f   SpeedgoatCANOpen2Buses100us_sfun_registry.obj
 0001:0003a810       sf_mex_unlock_call         000000018003b810 f   SpeedgoatCANOpen2Buses100us_sfun_registry.obj
 0001:0003aad0       sf_machine_global_initializer_called 000000018003bad0 f   SpeedgoatCANOpen2Buses100us_sfun_registry.obj
 0001:0003ab00       sf_machine_global_method_dispatcher 000000018003bb00 f   SpeedgoatCANOpen2Buses100us_sfun_registry.obj
 0001:0003ab60       sf_machine_global_terminator 000000018003bb60 f   SpeedgoatCANOpen2Buses100us_sfun_registry.obj
 0001:0003abc0       sf_register_machine_exported_symbols 000000018003bbc0 f   SpeedgoatCANOpen2Buses100us_sfun_registry.obj
 0001:0003abe0       callCustomFcn              000000018003bbe0 f   SpeedgoatCANOpen2Buses100us_sfun_registry.obj
 0001:0003abf0       sf_machine_global_initializer 000000018003bbf0 f   SpeedgoatCANOpen2Buses100us_sfun_registry.obj
 0001:0003ac70       mdlGetSimState             000000018003bc70 f   SpeedgoatCANOpen2Buses100us_sfun_registry.obj
 0001:0003acb0       mdlSetSimState             000000018003bcb0 f   SpeedgoatCANOpen2Buses100us_sfun_registry.obj
 0001:0003b520       ProcessMexSfunctionEveryCall 000000018003c520 f   SpeedgoatCANOpen2Buses100us_sfun_registry.obj
 0001:0003c630       __local_stdio_printf_options 000000018003d630 f i SpeedgoatCANOpen2Buses100us_sfun_registry.obj
 0001:0003c640       _vsnprintf_l               000000018003d640 f i SpeedgoatCANOpen2Buses100us_sfun_registry.obj
 0001:0003c6c0       _vsprintf_l                000000018003d6c0 f i SpeedgoatCANOpen2Buses100us_sfun_registry.obj
 0001:0003c710       sprintf                    000000018003d710 f i SpeedgoatCANOpen2Buses100us_sfun_registry.obj
 0001:0003c760       mexfilerequiredapiversion  000000018003d760 f   c_mexapi_version.obj
 0001:0003c781       sf_load_rtw_optimization_info 000000018003d781 f   sf_runtime:sf_runtime.dll
 0001:0003c787       sf_debug_initialize_machine 000000018003d787 f   sf_runtime:sf_runtime.dll
 0001:0003c78d       sf_debug_set_machine_event_thresholds 000000018003d78d f   sf_runtime:sf_runtime.dll
 0001:0003c793       sf_debug_set_machine_data_thresholds 000000018003d793 f   sf_runtime:sf_runtime.dll
 0001:0003c799       sf_init_ChartRunTimeInfo   000000018003d799 f   sf_runtime:sf_runtime.dll
 0001:0003c79f       sf_free_ChartRunTimeInfo   000000018003d79f f   sf_runtime:sf_runtime.dll
 0001:0003c7a5       sfrtGetEmlrtCtx            000000018003d7a5 f   sf_runtime:sf_runtime.dll
 0001:0003c7ab       sf_get_chart_instance_ptr  000000018003d7ab f   sf_runtime:sf_runtime.dll
 0001:0003c7b1       sf_rtw_info_uint_prop      000000018003d7b1 f   sf_runtime:sf_runtime.dll
 0001:0003c7b7       sf_update_buildInfo        000000018003d7b7 f   sf_runtime:sf_runtime.dll
 0001:0003c7bd       sf_is_chart_inlinable      000000018003d7bd f   sf_runtime:sf_runtime.dll
 0001:0003c7c3       sf_mark_chart_reusable_outputs 000000018003d7c3 f   sf_runtime:sf_runtime.dll
 0001:0003c7c9       sf_mark_chart_expressionable_inputs 000000018003d7c9 f   sf_runtime:sf_runtime.dll
 0001:0003c7cf       sim_mode_is_rtw_gen        000000018003d7cf f   sf_runtime:sf_runtime.dll
 0001:0003c7d5       sim_mode_is_external       000000018003d7d5 f   sf_runtime:sf_runtime.dll
 0001:0003c7db       sim_mode_is_modelref_sim   000000018003d7db f   sf_runtime:sf_runtime.dll
 0001:0003c7e1       sf_clear_rtw_identifier    000000018003d7e1 f   sf_runtime:sf_runtime.dll
 0001:0003c7e7       sf_set_rtw_dwork_info      000000018003d7e7 f   sf_runtime:sf_runtime.dll
 0001:0003c7ed       sf_get_dwork_info_from_mat_file 000000018003d7ed f   sf_runtime:sf_runtime.dll
 0001:0003c7f3       sf_set_encoded_dwork_info  000000018003d7f3 f   sf_runtime:sf_runtime.dll
 0001:0003c7f9       sf_get_time                000000018003d7f9 f   sf_runtime:sf_runtime.dll
 0001:0003c7ff       sf_is_first_init_cond      000000018003d7ff f   sf_runtime:sf_runtime.dll
 0001:0003c805       setLegacyDebuggerFlagForRuntime 000000018003d805 f   sf_runtime:sf_runtime.dll
 0001:0003c80b       sf_set_chart_accesses_machine_info 000000018003d80b f   sf_runtime:sf_runtime.dll
 0001:0003c811       sf_register_codegen_names_for_scoped_functions_defined_by_chart 000000018003d811 f   sf_runtime:sf_runtime.dll
 0001:0003c817       ssSetBlockIsPurelyCombinatorial_wrapper 000000018003d817 f   sf_runtime:sf_runtime.dll
 0001:0003c81d       sf_mex_error_message       000000018003d81d f   sf_runtime:sf_runtime.dll
 0001:0003c823       sf_mex_create              000000018003d823 f   sf_runtime:sf_runtime.dll
 0001:0003c829       sf_mex_createcellmatrix    000000018003d829 f   sf_runtime:sf_runtime.dll
 0001:0003c82f       sf_mex_setcell             000000018003d82f f   sf_runtime:sf_runtime.dll
 0001:0003c835       sf_mex_getcell             000000018003d835 f   sf_runtime:sf_runtime.dll
 0001:0003c83b       sf_mex_assign              000000018003d83b f   sf_runtime:sf_runtime.dll
 0001:0003c841       sf_mex_dup                 000000018003d841 f   sf_runtime:sf_runtime.dll
 0001:0003c847       sf_mex_destroy             000000018003d847 f   sf_runtime:sf_runtime.dll
 0001:0003c84d       sf_mex_import              000000018003d84d f   sf_runtime:sf_runtime.dll
 0001:0003c853       sf_mex_decode_encoded_mx_struct_array 000000018003d853 f   sf_runtime:sf_runtime.dll
 0001:0003c859       sf_mex_duplicatearraysafe  000000018003d859 f   sf_runtime:sf_runtime.dll
 0001:0003c85f       ssGetDWork_wrapper         000000018003d85f f   sf_runtime:sf_runtime.dll
 0001:0003c865       ssGetInputPortSignal_wrapper 000000018003d865 f   sf_runtime:sf_runtime.dll
 0001:0003c86b       ssGetOutputPortSignal_wrapper 000000018003d86b f   sf_runtime:sf_runtime.dll
 0001:0003c871       sf_read_before_write_error 000000018003d871 f   sf_runtime:sf_runtime.dll
 0001:0003c877       sf_debug_initialize_chart  000000018003d877 f   sf_runtime:sf_runtime.dll
 0001:0003c87d       sf_debug_call              000000018003d87d f   sf_runtime:sf_runtime.dll
 0001:0003c883       cv_eval_point              000000018003d883 f   sf_runtime:sf_runtime.dll
 0001:0003c889       cv_eml_eval                000000018003d889 f   sf_runtime:sf_runtime.dll
 0001:0003c88f       cv_eval_relational         000000018003d88f f   sf_runtime:sf_runtime.dll
 0001:0003c895       cv_eml_init_script         000000018003d895 f   sf_runtime:sf_runtime.dll
 0001:0003c89b       cv_eml_init_if             000000018003d89b f   sf_runtime:sf_runtime.dll
 0001:0003c8a1       cv_eml_init_mcdc           000000018003d8a1 f   sf_runtime:sf_runtime.dll
 0001:0003c8a7       cv_eml_init_relational     000000018003d8a7 f   sf_runtime:sf_runtime.dll
 0001:0003c8ad       sf_debug_reset_current_state_configuration 000000018003d8ad f   sf_runtime:sf_runtime.dll
 0001:0003c8b3       sf_debug_set_honor_breakpoints 000000018003d8b3 f   sf_runtime:sf_runtime.dll
 0001:0003c8b9       sf_debug_get_animation     000000018003d8b9 f   sf_runtime:sf_runtime.dll
 0001:0003c8bf       sf_debug_set_animation     000000018003d8bf f   sf_runtime:sf_runtime.dll
 0001:0003c8c5       sf_debug_animate           000000018003d8c5 f   sf_runtime:sf_runtime.dll
 0001:0003c8cb       sf_debug_set_chart_data_props 000000018003d8cb f   sf_runtime:sf_runtime.dll
 0001:0003c8d1       sf_debug_set_chart_data_compiled_props 000000018003d8d1 f   sf_runtime:sf_runtime.dll
 0001:0003c8d7       sf_debug_symbol_scope_push 000000018003d8d7 f   sf_runtime:sf_runtime.dll
 0001:0003c8dd       sf_debug_symbol_scope_push_eml 000000018003d8dd f   sf_runtime:sf_runtime.dll
 0001:0003c8e3       sf_debug_symbol_scope_pop  000000018003d8e3 f   sf_runtime:sf_runtime.dll
 0001:0003c8e9       sf_debug_symbol_scope_add_eml_importable 000000018003d8e9 f   sf_runtime:sf_runtime.dll
 0001:0003c8ef       sf_debug_set_instance_data_value_ptr 000000018003d8ef f   sf_runtime:sf_runtime.dll
 0001:0003c8f5       sf_debug_set_chart_disable_implicit_casting 000000018003d8f5 f   sf_runtime:sf_runtime.dll
 0001:0003c8fb       sf_debug_set_chart_event_thresholds 000000018003d8fb f   sf_runtime:sf_runtime.dll
 0001:0003c901       sf_debug_set_chart_state_info 000000018003d901 f   sf_runtime:sf_runtime.dll
 0001:0003c907       sf_debug_set_chart_decomposition 000000018003d907 f   sf_runtime:sf_runtime.dll
 0001:0003c90d       sf_debug_set_chart_substate_count 000000018003d90d f   sf_runtime:sf_runtime.dll
 0001:0003c913       sf_debug_set_chart_substate_index 000000018003d913 f   sf_runtime:sf_runtime.dll
 0001:0003c919       sf_debug_set_chart_state_substate_count 000000018003d919 f   sf_runtime:sf_runtime.dll
 0001:0003c91f       sf_debug_data_range_wrapper 000000018003d91f f   sf_runtime:sf_runtime.dll
 0001:0003c925       sf_debug_cv_init_trans     000000018003d925 f   sf_runtime:sf_runtime.dll
 0001:0003c92b       sf_debug_cv_init_chart     000000018003d92b f   sf_runtime:sf_runtime.dll
 0001:0003c931       sf_debug_cv_init_state     000000018003d931 f   sf_runtime:sf_runtime.dll
 0001:0003c937       sf_mex_sub                 000000018003d937 f   sf_runtime:sf_runtime.dll
 0001:0003c93d       sf_get_ChartInfoStruct_CodeGen 000000018003d93d f   sf_runtime:sf_runtime.dll
 0001:0003c943       sf_get_hasSeparateUpdateOutputs 000000018003d943 f   sf_runtime:sf_runtime.dll
 0001:0003c949       callMdlMethodAndReportError 000000018003d949 f   sf_runtime:sf_runtime.dll
 0001:0003c94f       call_sf_machine_global_method_dispatcher 000000018003d94f f   sf_runtime:sf_runtime.dll
 0001:0003c955       getRuntimeInstanceInfoAsVoid 000000018003d955 f   sf_runtime:sf_runtime.dll
 0001:0003c95b       sf_mex_error_direct_call   000000018003d95b f   sf_runtime:sf_runtime.dll
 0001:0003c961       sf_clear_error_manager_info 000000018003d961 f   sf_runtime:sf_runtime.dll
 0001:0003c967       sf_debug_create_debug_instance_struct 000000018003d967 f   sf_runtime:sf_runtime.dll
 0001:0003c96d       sf_debug_terminate         000000018003d96d f   sf_runtime:sf_runtime.dll
 0001:0003c973       sf_debug_api               000000018003d973 f   sf_runtime:sf_runtime.dll
 0001:0003c979       mxIsChar                   000000018003d979 f   libmx:libmx.dll
 0001:0003c97f       mxGetScalar                000000018003d97f f   libmx:libmx.dll
 0001:0003c985       mxGetPr                    000000018003d985 f   libmx:libmx.dll
 0001:0003c98b       mxDestroyArray             000000018003d98b f   libmx:libmx.dll
 0001:0003c991       mxCreateDoubleMatrix_730   000000018003d991 f   libmx:libmx.dll
 0001:0003c997       mxGetString_730            000000018003d997 f   libmx:libmx.dll
 0001:0003c99d       mxDuplicateArray           000000018003d99d f   libmx:libmx.dll
 0001:0003c9a3       mxSetField_730             000000018003d9a3 f   libmx:libmx.dll
 0001:0003c9a9       mxCreateDoubleScalar       000000018003d9a9 f   libmx:libmx.dll
 0001:0003c9af       mxCreateString             000000018003d9af f   libmx:libmx.dll
 0001:0003c9b5       mxCreateCellMatrix_730     000000018003d9b5 f   libmx:libmx.dll
 0001:0003c9bb       mxCreateCellArray_730      000000018003d9bb f   libmx:libmx.dll
 0001:0003c9c1       mxCreateStructMatrix_730   000000018003d9c1 f   libmx:libmx.dll
 0001:0003c9c7       mxCreateStructArray_730    000000018003d9c7 f   libmx:libmx.dll
 0001:0003c9cd       mxCalloc                   000000018003d9cd f   libmx:libmx.dll
 0001:0003c9d3       mxGetM                     000000018003d9d3 f   libmx:libmx.dll
 0001:0003c9d9       mxGetClassID               000000018003d9d9 f   libmx:libmx.dll
 0001:0003c9df       mxIsNumeric                000000018003d9df f   libmx:libmx.dll
 0001:0003c9e5       mxIsComplex                000000018003d9e5 f   libmx:libmx.dll
 0001:0003c9eb       mxGetN                     000000018003d9eb f   libmx:libmx.dll
 0001:0003c9f1       mexMakeArrayPersistent     000000018003d9f1 f   libmex:libmex.dll
 0001:0003c9f7       mexErrMsgTxt               000000018003d9f7 f   libmex:libmex.dll
 0001:0003c9fd       mexWarnMsgTxt              000000018003d9fd f   libmex:libmex.dll
 0001:0003ca03       mexCallMATLABWithObject    000000018003da03 f   libmex:libmex.dll
 0001:0003ca09       mexLock                    000000018003da09 f   libmex:libmex.dll
 0001:0003ca0f       mexUnlock                  000000018003da0f f   libmex:libmex.dll
 0001:0003ca15       mexIsLocked                000000018003da15 f   libmex:libmex.dll
 0001:0003ca1b       utMalloc                   000000018003da1b f   libut:libut.dll
 0001:0003ca21       utFree                     000000018003da21 f   libut:libut.dll
 0001:0003ca27       slcovUploadCoverageSynthesisById 000000018003da27 f   libmwsl_sfcn_cov_bridge:libmwsl_sfcn_cov_bridge.dll
 0001:0003ca30       __raise_securityfailure    000000018003da30 f   MSVCRT:gs_report.obj
 0001:0003ca64       __report_gsfailure         000000018003da64 f   MSVCRT:gs_report.obj
 0001:0003cb38       __report_rangecheckfailure 000000018003db38 f   MSVCRT:gs_report.obj
 0001:0003cb4c       __report_securityfailure   000000018003db4c f   MSVCRT:gs_report.obj
 0001:0003cbe8       __report_securityfailureEx 000000018003dbe8 f   MSVCRT:gs_report.obj
 0001:0003cddc       __GSHandlerCheck           000000018003dddc f   MSVCRT:gshandler.obj
 0001:0003cdfc       __GSHandlerCheckCommon     000000018003ddfc f   MSVCRT:gshandler.obj
 0001:0003ce70       __security_check_cookie    000000018003de70 f   MSVCRT:amdsecgs.obj
 0001:0003d1e0       _CRT_INIT                  000000018003e1e0 f   MSVCRT:dll_dllmain.obj
 0001:0003d1e8       _DllMainCRTStartup         000000018003e1e8 f   MSVCRT:dll_dllmain.obj
 0001:0003d294       __security_init_cookie     000000018003e294 f   MSVCRT:gs_support.obj
 0001:0003d340       DllMain                    000000018003e340 f   MSVCRT:dll_dllmain_stub.obj
 0001:0003d364       ?__scrt_initialize_type_info@@YAXXZ 000000018003e364 f   MSVCRT:tncleanup.obj
 0001:0003d374       ?__scrt_uninitialize_type_info@@YAXXZ 000000018003e374 f   MSVCRT:tncleanup.obj
 0001:0003d380       __local_stdio_scanf_options 000000018003e380 f i MSVCRT:default_local_stdio_options.obj
 0001:0003d388       __scrt_initialize_default_local_stdio_options 000000018003e388 f   MSVCRT:default_local_stdio_options.obj
 0001:0003d3a4       ??$__crt_fast_decode_pointer@PEAP6AXXZ@@YAPEAP6AXXZQEAP6AXXZ@Z 000000018003e3a4 f i MSVCRT:utility.obj
 0001:0003d3bc       ??$__crt_fast_encode_pointer@PEAP6AXXZ@@YAPEAP6AXXZQEAP6AXXZ@Z 000000018003e3bc f i MSVCRT:utility.obj
 0001:0003d3dc       ?__crt_rotate_pointer_value@@YA_K_KH@Z 000000018003e3dc f i MSVCRT:utility.obj
 0001:0003d3e8       ?configure_argv@__scrt_narrow_argv_policy@@SAHXZ 000000018003e3e8 f i MSVCRT:utility.obj
 0001:0003d448       ?initialize_environment@__scrt_narrow_environment_policy@@SAHXZ 000000018003e448 f i MSVCRT:utility.obj
 0001:0003d480       NtCurrentTeb               000000018003e480 f i MSVCRT:utility.obj
 0001:0003d48c       __scrt_acquire_startup_lock 000000018003e48c f   MSVCRT:utility.obj
 0001:0003d4c8       __scrt_dllmain_after_initialize_c 000000018003e4c8 f   MSVCRT:utility.obj
 0001:0003d4fc       __scrt_dllmain_before_initialize_c 000000018003e4fc f   MSVCRT:utility.obj
 0001:0003d514       __scrt_dllmain_crt_thread_attach 000000018003e514 f   MSVCRT:utility.obj
 0001:0003d53c       __scrt_dllmain_crt_thread_detach 000000018003e53c f   MSVCRT:utility.obj
 0001:0003d554       __scrt_dllmain_exception_filter 000000018003e554 f   MSVCRT:utility.obj
 0001:0003d5b4       __scrt_dllmain_uninitialize_c 000000018003e5b4 f   MSVCRT:utility.obj
 0001:0003d5e4       __scrt_dllmain_uninitialize_critical 000000018003e5e4 f   MSVCRT:utility.obj
 0001:0003d5f8       __scrt_initialize_crt      000000018003e5f8 f   MSVCRT:utility.obj
 0001:0003d644       __scrt_initialize_onexit_tables 000000018003e644 f   MSVCRT:utility.obj
 0001:0003d71c       __scrt_is_nonwritable_in_current_image 000000018003e71c f   MSVCRT:utility.obj
 0001:0003d7b8       __scrt_release_startup_lock 000000018003e7b8 f   MSVCRT:utility.obj
 0001:0003d7dc       __scrt_uninitialize_crt    000000018003e7dc f   MSVCRT:utility.obj
 0001:0003d808       _onexit                    000000018003e808 f   MSVCRT:utility.obj
 0001:0003d858       at_quick_exit              000000018003e858 f   MSVCRT:utility.obj
 0001:0003d890       atexit                     000000018003e890 f   MSVCRT:utility.obj
 0001:0003d8a8       __scrt_get_dyn_tls_init_callback 000000018003e8a8 f   MSVCRT:dyn_tls_init.obj
 0001:0003d8b0       __crt_debugger_hook        000000018003e8b0 f   MSVCRT:utility_desktop.obj
 0001:0003d8b8       __scrt_fastfail            000000018003e8b8 f   MSVCRT:utility_desktop.obj
 0001:0003da04       __scrt_get_show_window_mode 000000018003ea04 f   MSVCRT:utility_desktop.obj
 0001:0003da40       __scrt_initialize_mta      000000018003ea40 f   MSVCRT:utility_desktop.obj
 0001:0003da48       __scrt_initialize_winrt    000000018003ea48 f   MSVCRT:utility_desktop.obj
 0001:0003da4c       __scrt_is_managed_app      000000018003ea4c f   MSVCRT:utility_desktop.obj
 0001:0003daa0       __scrt_set_unhandled_exception_filter 000000018003eaa0 f   MSVCRT:utility_desktop.obj
 0001:0003dab0       __scrt_stub_for_initialize_mta 000000018003eab0 f   MSVCRT:utility_desktop.obj
 0001:0003dab0       __scrt_exe_initialize_mta  000000018003eab0 f   MSVCRT:utility_desktop.obj
 0001:0003dab4       __scrt_unhandled_exception_filter 000000018003eab4 f   MSVCRT:utility_desktop.obj
 0001:0003daec       _RTC_Initialize            000000018003eaec f   MSVCRT:initsect.obj
 0001:0003db28       _RTC_Terminate             000000018003eb28 f   MSVCRT:initsect.obj
 0001:0003db64       _guard_check_icall_nop     000000018003eb64 f i MSVCRT:guard_support.obj
 0001:0003db68       ReadNoFence64              000000018003eb68 f i MSVCRT:guard_support.obj
 0001:0003db6c       ReadPointerNoFence         000000018003eb6c f i MSVCRT:guard_support.obj
 0001:0003db70       _guard_icall_checks_enforced 000000018003eb70 f i MSVCRT:guard_support.obj
 0001:0003db88       _guard_rf_checks_enforced  000000018003eb88 f i MSVCRT:guard_support.obj
 0001:0003db8c       __isa_available_init       000000018003eb8c f   MSVCRT:cpu_disp.obj
 0001:0003dd08       _get_startup_argv_mode     000000018003ed08 f   MSVCRT:argv_mode.obj
 0001:0003dd10       __scrt_is_ucrt_dll_in_use  000000018003ed10 f   MSVCRT:ucrt_detection.obj
 0001:0003dd20       RtlCaptureContext          000000018003ed20 f   kernel32:KERNEL32.dll
 0001:0003dd26       RtlLookupFunctionEntry     000000018003ed26 f   kernel32:KERNEL32.dll
 0001:0003dd2c       RtlVirtualUnwind           000000018003ed2c f   kernel32:KERNEL32.dll
 0001:0003dd32       UnhandledExceptionFilter   000000018003ed32 f   kernel32:KERNEL32.dll
 0001:0003dd38       SetUnhandledExceptionFilter 000000018003ed38 f   kernel32:KERNEL32.dll
 0001:0003dd3e       GetCurrentProcess          000000018003ed3e f   kernel32:KERNEL32.dll
 0001:0003dd44       TerminateProcess           000000018003ed44 f   kernel32:KERNEL32.dll
 0001:0003dd4a       IsProcessorFeaturePresent  000000018003ed4a f   kernel32:KERNEL32.dll
 0001:0003dd50       QueryPerformanceCounter    000000018003ed50 f   kernel32:KERNEL32.dll
 0001:0003dd56       GetCurrentProcessId        000000018003ed56 f   kernel32:KERNEL32.dll
 0001:0003dd5c       GetCurrentThreadId         000000018003ed5c f   kernel32:KERNEL32.dll
 0001:0003dd62       GetSystemTimeAsFileTime    000000018003ed62 f   kernel32:KERNEL32.dll
 0001:0003dd68       DisableThreadLibraryCalls  000000018003ed68 f   kernel32:KERNEL32.dll
 0001:0003dd6e       InitializeSListHead        000000018003ed6e f   kernel32:KERNEL32.dll
 0001:0003dd74       IsDebuggerPresent          000000018003ed74 f   kernel32:KERNEL32.dll
 0001:0003dd7a       GetStartupInfoW            000000018003ed7a f   kernel32:KERNEL32.dll
 0001:0003dd80       GetModuleHandleW           000000018003ed80 f   kernel32:KERNEL32.dll
 0001:0003dd86       memset                     000000018003ed86 f   vcruntime:VCRUNTIME140.dll
 0001:0003dd8c       memcpy                     000000018003ed8c f   vcruntime:VCRUNTIME140.dll
 0001:0003dd92       __C_specific_handler       000000018003ed92 f   vcruntime:VCRUNTIME140.dll
 0001:0003dd98       __std_type_info_destroy_list 000000018003ed98 f   vcruntime:VCRUNTIME140.dll
 0001:0003dd9e       strcmp                     000000018003ed9e f   ucrt:api-ms-win-crt-string-l1-1-0.dll
 0001:0003dda4       __stdio_common_vsprintf    000000018003eda4 f   ucrt:api-ms-win-crt-stdio-l1-1-0.dll
 0001:0003ddaa       free                       000000018003edaa f   ucrt:api-ms-win-crt-heap-l1-1-0.dll
 0001:0003ddb0       malloc                     000000018003edb0 f   ucrt:api-ms-win-crt-heap-l1-1-0.dll
 0001:0003ddb6       strlen                     000000018003edb6 f   ucrt:api-ms-win-crt-string-l1-1-0.dll
 0001:0003ddbc       _initterm                  000000018003edbc f   ucrt:api-ms-win-crt-runtime-l1-1-0.dll
 0001:0003ddc2       _initterm_e                000000018003edc2 f   ucrt:api-ms-win-crt-runtime-l1-1-0.dll
 0001:0003ddc8       _seh_filter_dll            000000018003edc8 f   ucrt:api-ms-win-crt-runtime-l1-1-0.dll
 0001:0003ddce       _configure_narrow_argv     000000018003edce f   ucrt:api-ms-win-crt-runtime-l1-1-0.dll
 0001:0003ddd4       _initialize_narrow_environment 000000018003edd4 f   ucrt:api-ms-win-crt-runtime-l1-1-0.dll
 0001:0003ddda       _initialize_onexit_table   000000018003edda f   ucrt:api-ms-win-crt-runtime-l1-1-0.dll
 0001:0003dde0       _register_onexit_function  000000018003ede0 f   ucrt:api-ms-win-crt-runtime-l1-1-0.dll
 0001:0003dde6       _execute_onexit_table      000000018003ede6 f   ucrt:api-ms-win-crt-runtime-l1-1-0.dll
 0001:0003ddec       _crt_atexit                000000018003edec f   ucrt:api-ms-win-crt-runtime-l1-1-0.dll
 0001:0003ddf2       _crt_at_quick_exit         000000018003edf2 f   ucrt:api-ms-win-crt-runtime-l1-1-0.dll
 0001:0003ddf8       _cexit                     000000018003edf8 f   ucrt:api-ms-win-crt-runtime-l1-1-0.dll
 0001:0003ddfe       terminate                  000000018003edfe f   ucrt:api-ms-win-crt-runtime-l1-1-0.dll
 0001:0003de04       __scrt_stub_for_acrt_initialize 000000018003ee04 f   MSVCRT:ucrt_stubs.obj
 0001:0003de04       __acrt_initialize          000000018003ee04 f   MSVCRT:ucrt_stubs.obj
 0001:0003de04       __vcrt_initialize          000000018003ee04 f   MSVCRT:ucrt_stubs.obj
 0001:0003de08       __acrt_thread_attach       000000018003ee08 f   MSVCRT:ucrt_stubs.obj
 0001:0003de08       __scrt_stub_for_acrt_thread_attach 000000018003ee08 f   MSVCRT:ucrt_stubs.obj
 0001:0003de08       __vcrt_thread_attach       000000018003ee08 f   MSVCRT:ucrt_stubs.obj
 0001:0003de0c       __scrt_stub_for_acrt_thread_detach 000000018003ee0c f   MSVCRT:ucrt_stubs.obj
 0001:0003de0c       __vcrt_thread_detach       000000018003ee0c f   MSVCRT:ucrt_stubs.obj
 0001:0003de0c       __acrt_thread_detach       000000018003ee0c f   MSVCRT:ucrt_stubs.obj
 0001:0003de10       __acrt_uninitialize        000000018003ee10 f   MSVCRT:ucrt_stubs.obj
 0001:0003de10       __vcrt_uninitialize        000000018003ee10 f   MSVCRT:ucrt_stubs.obj
 0001:0003de10       __scrt_stub_for_acrt_uninitialize 000000018003ee10 f   MSVCRT:ucrt_stubs.obj
 0001:0003de14       __acrt_uninitialize_critical 000000018003ee14 f   MSVCRT:ucrt_stubs.obj
 0001:0003de14       __scrt_stub_for_acrt_uninitialize_critical 000000018003ee14 f   MSVCRT:ucrt_stubs.obj
 0001:0003de14       __vcrt_uninitialize_critical 000000018003ee14 f   MSVCRT:ucrt_stubs.obj
 0001:0003de18       _is_c_termination_complete 000000018003ee18 f   MSVCRT:ucrt_stubs.obj
 0001:0003de18       __scrt_stub_for_is_c_termination_complete 000000018003ee18 f   MSVCRT:ucrt_stubs.obj
 0001:0003de30       _guard_dispatch_icall_nop  000000018003ee30 f   MSVCRT:guard_dispatch.obj
 0002:00000000       __imp_InitializeSListHead  000000018003f000     kernel32:KERNEL32.dll
 0002:00000008       __imp_RtlCaptureContext    000000018003f008     kernel32:KERNEL32.dll
 0002:00000010       __imp_RtlLookupFunctionEntry 000000018003f010     kernel32:KERNEL32.dll
 0002:00000018       __imp_RtlVirtualUnwind     000000018003f018     kernel32:KERNEL32.dll
 0002:00000020       __imp_UnhandledExceptionFilter 000000018003f020     kernel32:KERNEL32.dll
 0002:00000028       __imp_SetUnhandledExceptionFilter 000000018003f028     kernel32:KERNEL32.dll
 0002:00000030       __imp_GetCurrentProcess    000000018003f030     kernel32:KERNEL32.dll
 0002:00000038       __imp_TerminateProcess     000000018003f038     kernel32:KERNEL32.dll
 0002:00000040       __imp_IsProcessorFeaturePresent 000000018003f040     kernel32:KERNEL32.dll
 0002:00000048       __imp_QueryPerformanceCounter 000000018003f048     kernel32:KERNEL32.dll
 0002:00000050       __imp_GetCurrentProcessId  000000018003f050     kernel32:KERNEL32.dll
 0002:00000058       __imp_GetCurrentThreadId   000000018003f058     kernel32:KERNEL32.dll
 0002:00000060       __imp_GetSystemTimeAsFileTime 000000018003f060     kernel32:KERNEL32.dll
 0002:00000068       __imp_GetModuleHandleW     000000018003f068     kernel32:KERNEL32.dll
 0002:00000070       __imp_IsDebuggerPresent    000000018003f070     kernel32:KERNEL32.dll
 0002:00000078       __imp_DisableThreadLibraryCalls 000000018003f078     kernel32:KERNEL32.dll
 0002:00000080       __imp_GetStartupInfoW      000000018003f080     kernel32:KERNEL32.dll
 0002:00000088       \177KERNEL32_NULL_THUNK_DATA 000000018003f088     kernel32:KERNEL32.dll
 0002:00000090       __imp_memcpy               000000018003f090     vcruntime:VCRUNTIME140.dll
 0002:00000098       __imp_memset               000000018003f098     vcruntime:VCRUNTIME140.dll
 0002:000000a0       __imp___C_specific_handler 000000018003f0a0     vcruntime:VCRUNTIME140.dll
 0002:000000a8       __imp___std_type_info_destroy_list 000000018003f0a8     vcruntime:VCRUNTIME140.dll
 0002:000000b0       \177VCRUNTIME140_NULL_THUNK_DATA 000000018003f0b0     vcruntime:VCRUNTIME140.dll
 0002:000000b8       __imp_free                 000000018003f0b8     ucrt:api-ms-win-crt-heap-l1-1-0.dll
 0002:000000c0       __imp_malloc               000000018003f0c0     ucrt:api-ms-win-crt-heap-l1-1-0.dll
 0002:000000c8       \177api-ms-win-crt-heap-l1-1-0_NULL_THUNK_DATA 000000018003f0c8     ucrt:api-ms-win-crt-heap-l1-1-0.dll
 0002:000000d0       __imp__register_onexit_function 000000018003f0d0     ucrt:api-ms-win-crt-runtime-l1-1-0.dll
 0002:000000d8       __imp__initterm            000000018003f0d8     ucrt:api-ms-win-crt-runtime-l1-1-0.dll
 0002:000000e0       __imp__initterm_e          000000018003f0e0     ucrt:api-ms-win-crt-runtime-l1-1-0.dll
 0002:000000e8       __imp__seh_filter_dll      000000018003f0e8     ucrt:api-ms-win-crt-runtime-l1-1-0.dll
 0002:000000f0       __imp__configure_narrow_argv 000000018003f0f0     ucrt:api-ms-win-crt-runtime-l1-1-0.dll
 0002:000000f8       __imp__initialize_narrow_environment 000000018003f0f8     ucrt:api-ms-win-crt-runtime-l1-1-0.dll
 0002:00000100       __imp__initialize_onexit_table 000000018003f100     ucrt:api-ms-win-crt-runtime-l1-1-0.dll
 0002:00000108       __imp__cexit               000000018003f108     ucrt:api-ms-win-crt-runtime-l1-1-0.dll
 0002:00000110       __imp__execute_onexit_table 000000018003f110     ucrt:api-ms-win-crt-runtime-l1-1-0.dll
 0002:00000118       __imp__crt_atexit          000000018003f118     ucrt:api-ms-win-crt-runtime-l1-1-0.dll
 0002:00000120       __imp__crt_at_quick_exit   000000018003f120     ucrt:api-ms-win-crt-runtime-l1-1-0.dll
 0002:00000128       __imp_terminate            000000018003f128     ucrt:api-ms-win-crt-runtime-l1-1-0.dll
 0002:00000130       \177api-ms-win-crt-runtime-l1-1-0_NULL_THUNK_DATA 000000018003f130     ucrt:api-ms-win-crt-runtime-l1-1-0.dll
 0002:00000138       __imp___stdio_common_vsprintf 000000018003f138     ucrt:api-ms-win-crt-stdio-l1-1-0.dll
 0002:00000140       \177api-ms-win-crt-stdio-l1-1-0_NULL_THUNK_DATA 000000018003f140     ucrt:api-ms-win-crt-stdio-l1-1-0.dll
 0002:00000148       __imp_strlen               000000018003f148     ucrt:api-ms-win-crt-string-l1-1-0.dll
 0002:00000150       __imp_strcmp               000000018003f150     ucrt:api-ms-win-crt-string-l1-1-0.dll
 0002:00000158       \177api-ms-win-crt-string-l1-1-0_NULL_THUNK_DATA 000000018003f158     ucrt:api-ms-win-crt-string-l1-1-0.dll
 0002:00000160       __imp_mexErrMsgTxt         000000018003f160     libmex:libmex.dll
 0002:00000168       __imp_mexWarnMsgTxt        000000018003f168     libmex:libmex.dll
 0002:00000170       __imp_mexCallMATLABWithObject 000000018003f170     libmex:libmex.dll
 0002:00000178       __imp_mexIsLocked          000000018003f178     libmex:libmex.dll
 0002:00000180       __imp_mexUnlock            000000018003f180     libmex:libmex.dll
 0002:00000188       __imp_mexLock              000000018003f188     libmex:libmex.dll
 0002:00000190       __imp_mexMakeArrayPersistent 000000018003f190     libmex:libmex.dll
 0002:00000198       \177libmex_NULL_THUNK_DATA 000000018003f198     libmex:libmex.dll
 0002:000001a0       __imp_slcovUploadCoverageSynthesisById 000000018003f1a0     libmwsl_sfcn_cov_bridge:libmwsl_sfcn_cov_bridge.dll
 0002:000001a8       \177libmwsl_sfcn_cov_bridge_NULL_THUNK_DATA 000000018003f1a8     libmwsl_sfcn_cov_bridge:libmwsl_sfcn_cov_bridge.dll
 0002:000001b0       __imp_mxGetN               000000018003f1b0     libmx:libmx.dll
 0002:000001b8       __imp_mxIsComplex          000000018003f1b8     libmx:libmx.dll
 0002:000001c0       __imp_mxIsNumeric          000000018003f1c0     libmx:libmx.dll
 0002:000001c8       __imp_mxGetM               000000018003f1c8     libmx:libmx.dll
 0002:000001d0       __imp_mxCalloc             000000018003f1d0     libmx:libmx.dll
 0002:000001d8       __imp_mxCreateStructArray_730 000000018003f1d8     libmx:libmx.dll
 0002:000001e0       __imp_mxCreateStructMatrix_730 000000018003f1e0     libmx:libmx.dll
 0002:000001e8       __imp_mxCreateCellArray_730 000000018003f1e8     libmx:libmx.dll
 0002:000001f0       __imp_mxCreateCellMatrix_730 000000018003f1f0     libmx:libmx.dll
 0002:000001f8       __imp_mxCreateString       000000018003f1f8     libmx:libmx.dll
 0002:00000200       __imp_mxCreateDoubleScalar 000000018003f200     libmx:libmx.dll
 0002:00000208       __imp_mxSetField_730       000000018003f208     libmx:libmx.dll
 0002:00000210       __imp_mxDuplicateArray     000000018003f210     libmx:libmx.dll
 0002:00000218       __imp_mxGetString_730      000000018003f218     libmx:libmx.dll
 0002:00000220       __imp_mxCreateDoubleMatrix_730 000000018003f220     libmx:libmx.dll
 0002:00000228       __imp_mxDestroyArray       000000018003f228     libmx:libmx.dll
 0002:00000230       __imp_mxGetPr              000000018003f230     libmx:libmx.dll
 0002:00000238       __imp_mxGetScalar          000000018003f238     libmx:libmx.dll
 0002:00000240       __imp_mxIsChar             000000018003f240     libmx:libmx.dll
 0002:00000248       __imp_mxGetClassID         000000018003f248     libmx:libmx.dll
 0002:00000250       \177libmx_NULL_THUNK_DATA  000000018003f250     libmx:libmx.dll
 0002:00000258       __imp_utMalloc             000000018003f258     libut:libut.dll
 0002:00000260       __imp_utFree               000000018003f260     libut:libut.dll
 0002:00000268       \177libut_NULL_THUNK_DATA  000000018003f268     libut:libut.dll
 0002:00000270       __imp_getRuntimeInstanceInfoAsVoid 000000018003f270     sf_runtime:sf_runtime.dll
 0002:00000278       __imp_sf_mex_error_direct_call 000000018003f278     sf_runtime:sf_runtime.dll
 0002:00000280       __imp_sf_read_before_write_error 000000018003f280     sf_runtime:sf_runtime.dll
 0002:00000288       __imp_sf_debug_create_debug_instance_struct 000000018003f288     sf_runtime:sf_runtime.dll
 0002:00000290       __imp_sf_debug_terminate   000000018003f290     sf_runtime:sf_runtime.dll
 0002:00000298       __imp_sf_debug_api         000000018003f298     sf_runtime:sf_runtime.dll
 0002:000002a0       __imp_ssGetOutputPortSignal_wrapper 000000018003f2a0     sf_runtime:sf_runtime.dll
 0002:000002a8       __imp_sf_debug_cv_init_state 000000018003f2a8     sf_runtime:sf_runtime.dll
 0002:000002b0       __imp_sf_debug_cv_init_chart 000000018003f2b0     sf_runtime:sf_runtime.dll
 0002:000002b8       __imp_sf_debug_cv_init_trans 000000018003f2b8     sf_runtime:sf_runtime.dll
 0002:000002c0       __imp_sf_debug_data_range_wrapper 000000018003f2c0     sf_runtime:sf_runtime.dll
 0002:000002c8       __imp_sf_debug_set_chart_state_substate_count 000000018003f2c8     sf_runtime:sf_runtime.dll
 0002:000002d0       __imp_sf_debug_set_chart_substate_index 000000018003f2d0     sf_runtime:sf_runtime.dll
 0002:000002d8       __imp_sf_debug_set_chart_substate_count 000000018003f2d8     sf_runtime:sf_runtime.dll
 0002:000002e0       __imp_sf_debug_set_chart_decomposition 000000018003f2e0     sf_runtime:sf_runtime.dll
 0002:000002e8       __imp_sf_debug_set_chart_state_info 000000018003f2e8     sf_runtime:sf_runtime.dll
 0002:000002f0       __imp_sf_debug_set_chart_event_thresholds 000000018003f2f0     sf_runtime:sf_runtime.dll
 0002:000002f8       __imp_sf_debug_set_chart_disable_implicit_casting 000000018003f2f8     sf_runtime:sf_runtime.dll
 0002:00000300       __imp_sf_debug_set_instance_data_value_ptr 000000018003f300     sf_runtime:sf_runtime.dll
 0002:00000308       __imp_sf_debug_symbol_scope_add_eml_importable 000000018003f308     sf_runtime:sf_runtime.dll
 0002:00000310       __imp_sf_debug_symbol_scope_pop 000000018003f310     sf_runtime:sf_runtime.dll
 0002:00000318       __imp_sf_debug_symbol_scope_push_eml 000000018003f318     sf_runtime:sf_runtime.dll
 0002:00000320       __imp_sf_debug_symbol_scope_push 000000018003f320     sf_runtime:sf_runtime.dll
 0002:00000328       __imp_sf_debug_initialize_chart 000000018003f328     sf_runtime:sf_runtime.dll
 0002:00000330       __imp_sf_debug_set_chart_data_compiled_props 000000018003f330     sf_runtime:sf_runtime.dll
 0002:00000338       __imp_sf_debug_set_chart_data_props 000000018003f338     sf_runtime:sf_runtime.dll
 0002:00000340       __imp_sf_debug_animate     000000018003f340     sf_runtime:sf_runtime.dll
 0002:00000348       __imp_call_sf_machine_global_method_dispatcher 000000018003f348     sf_runtime:sf_runtime.dll
 0002:00000350       __imp_sf_debug_set_animation 000000018003f350     sf_runtime:sf_runtime.dll
 0002:00000358       __imp_sf_debug_get_animation 000000018003f358     sf_runtime:sf_runtime.dll
 0002:00000360       __imp_sf_debug_set_honor_breakpoints 000000018003f360     sf_runtime:sf_runtime.dll
 0002:00000368       __imp_sf_debug_reset_current_state_configuration 000000018003f368     sf_runtime:sf_runtime.dll
 0002:00000370       __imp_cv_eml_init_relational 000000018003f370     sf_runtime:sf_runtime.dll
 0002:00000378       __imp_cv_eml_init_mcdc     000000018003f378     sf_runtime:sf_runtime.dll
 0002:00000380       __imp_cv_eml_init_if       000000018003f380     sf_runtime:sf_runtime.dll
 0002:00000388       __imp_cv_eml_init_script   000000018003f388     sf_runtime:sf_runtime.dll
 0002:00000390       __imp_callMdlMethodAndReportError 000000018003f390     sf_runtime:sf_runtime.dll
 0002:00000398       __imp_sf_get_hasSeparateUpdateOutputs 000000018003f398     sf_runtime:sf_runtime.dll
 0002:000003a0       __imp_sf_get_ChartInfoStruct_CodeGen 000000018003f3a0     sf_runtime:sf_runtime.dll
 0002:000003a8       __imp_cv_eval_relational   000000018003f3a8     sf_runtime:sf_runtime.dll
 0002:000003b0       __imp_cv_eml_eval          000000018003f3b0     sf_runtime:sf_runtime.dll
 0002:000003b8       __imp_ssGetInputPortSignal_wrapper 000000018003f3b8     sf_runtime:sf_runtime.dll
 0002:000003c0       __imp_ssGetDWork_wrapper   000000018003f3c0     sf_runtime:sf_runtime.dll
 0002:000003c8       __imp_sf_mex_duplicatearraysafe 000000018003f3c8     sf_runtime:sf_runtime.dll
 0002:000003d0       __imp_sf_mex_decode_encoded_mx_struct_array 000000018003f3d0     sf_runtime:sf_runtime.dll
 0002:000003d8       __imp_sf_mex_import        000000018003f3d8     sf_runtime:sf_runtime.dll
 0002:000003e0       __imp_sf_mex_destroy       000000018003f3e0     sf_runtime:sf_runtime.dll
 0002:000003e8       __imp_sf_mex_dup           000000018003f3e8     sf_runtime:sf_runtime.dll
 0002:000003f0       __imp_sf_mex_assign        000000018003f3f0     sf_runtime:sf_runtime.dll
 0002:000003f8       __imp_sf_mex_getcell       000000018003f3f8     sf_runtime:sf_runtime.dll
 0002:00000400       __imp_sf_mex_setcell       000000018003f400     sf_runtime:sf_runtime.dll
 0002:00000408       __imp_sf_mex_createcellmatrix 000000018003f408     sf_runtime:sf_runtime.dll
 0002:00000410       __imp_sf_mex_create        000000018003f410     sf_runtime:sf_runtime.dll
 0002:00000418       __imp_sf_mex_error_message 000000018003f418     sf_runtime:sf_runtime.dll
 0002:00000420       __imp_ssSetBlockIsPurelyCombinatorial_wrapper 000000018003f420     sf_runtime:sf_runtime.dll
 0002:00000428       __imp_sf_register_codegen_names_for_scoped_functions_defined_by_chart 000000018003f428     sf_runtime:sf_runtime.dll
 0002:00000430       __imp_sf_set_chart_accesses_machine_info 000000018003f430     sf_runtime:sf_runtime.dll
 0002:00000438       __imp_setLegacyDebuggerFlagForRuntime 000000018003f438     sf_runtime:sf_runtime.dll
 0002:00000440       __imp_sf_is_first_init_cond 000000018003f440     sf_runtime:sf_runtime.dll
 0002:00000448       __imp_sf_get_time          000000018003f448     sf_runtime:sf_runtime.dll
 0002:00000450       __imp_sf_set_encoded_dwork_info 000000018003f450     sf_runtime:sf_runtime.dll
 0002:00000458       __imp_sf_get_dwork_info_from_mat_file 000000018003f458     sf_runtime:sf_runtime.dll
 0002:00000460       __imp_sf_set_rtw_dwork_info 000000018003f460     sf_runtime:sf_runtime.dll
 0002:00000468       __imp_sf_clear_rtw_identifier 000000018003f468     sf_runtime:sf_runtime.dll
 0002:00000470       __imp_cv_eval_point        000000018003f470     sf_runtime:sf_runtime.dll
 0002:00000478       __imp_sim_mode_is_modelref_sim 000000018003f478     sf_runtime:sf_runtime.dll
 0002:00000480       __imp_sim_mode_is_external 000000018003f480     sf_runtime:sf_runtime.dll
 0002:00000488       __imp_sim_mode_is_rtw_gen  000000018003f488     sf_runtime:sf_runtime.dll
 0002:00000490       __imp_sf_debug_call        000000018003f490     sf_runtime:sf_runtime.dll
 0002:00000498       __imp_sf_mark_chart_expressionable_inputs 000000018003f498     sf_runtime:sf_runtime.dll
 0002:000004a0       __imp_sf_mark_chart_reusable_outputs 000000018003f4a0     sf_runtime:sf_runtime.dll
 0002:000004a8       __imp_sf_is_chart_inlinable 000000018003f4a8     sf_runtime:sf_runtime.dll
 0002:000004b0       __imp_sf_update_buildInfo  000000018003f4b0     sf_runtime:sf_runtime.dll
 0002:000004b8       __imp_sf_rtw_info_uint_prop 000000018003f4b8     sf_runtime:sf_runtime.dll
 0002:000004c0       __imp_sf_get_chart_instance_ptr 000000018003f4c0     sf_runtime:sf_runtime.dll
 0002:000004c8       __imp_sfrtGetEmlrtCtx      000000018003f4c8     sf_runtime:sf_runtime.dll
 0002:000004d0       __imp_sf_free_ChartRunTimeInfo 000000018003f4d0     sf_runtime:sf_runtime.dll
 0002:000004d8       __imp_sf_init_ChartRunTimeInfo 000000018003f4d8     sf_runtime:sf_runtime.dll
 0002:000004e0       __imp_sf_debug_set_machine_data_thresholds 000000018003f4e0     sf_runtime:sf_runtime.dll
 0002:000004e8       __imp_sf_debug_set_machine_event_thresholds 000000018003f4e8     sf_runtime:sf_runtime.dll
 0002:000004f0       __imp_sf_debug_initialize_machine 000000018003f4f0     sf_runtime:sf_runtime.dll
 0002:000004f8       __imp_sf_mex_sub           000000018003f4f8     sf_runtime:sf_runtime.dll
 0002:00000500       __imp_sf_clear_error_manager_info 000000018003f500     sf_runtime:sf_runtime.dll
 0002:00000508       __imp_sf_load_rtw_optimization_info 000000018003f508     sf_runtime:sf_runtime.dll
 0002:00000510       \177sf_runtime_NULL_THUNK_DATA 000000018003f510     sf_runtime:sf_runtime.dll
 0002:00000518       __guard_check_icall_fptr   000000018003f518     MSVCRT:guard_support.obj
 0002:00000520       __guard_dispatch_icall_fptr 000000018003f520     MSVCRT:guard_support.obj
 0002:00000528       __xc_a                     000000018003f528     MSVCRT:initializers.obj
 0002:00000530       __xc_z                     000000018003f530     MSVCRT:initializers.obj
 0002:00000538       __xi_a                     000000018003f538     MSVCRT:initializers.obj
 0002:00000540       __xi_z                     000000018003f540     MSVCRT:initializers.obj
 0002:00000548       __xp_a                     000000018003f548     MSVCRT:initializers.obj
 0002:00000550       __xp_z                     000000018003f550     MSVCRT:initializers.obj
 0002:00000558       __xt_a                     000000018003f558     MSVCRT:initializers.obj
 0002:00000560       __xt_z                     000000018003f560     MSVCRT:initializers.obj
 0002:00000570       __real@413f797f00000000    000000018003f570     SpeedgoatCANOpen2Buses100us_sfun.obj
 0002:00000578       __real@41b212f15b000000    000000018003f578     SpeedgoatCANOpen2Buses100us_sfun.obj
 0002:00000580       __real@41c500e7fb800000    000000018003f580     SpeedgoatCANOpen2Buses100us_sfun.obj
 0002:00000588       __real@41dff01bb8400000    000000018003f588     SpeedgoatCANOpen2Buses100us_sfun.obj
 0002:00000590       __real@41e0279470800000    000000018003f590     SpeedgoatCANOpen2Buses100us_sfun.obj
 0002:00000598       __real@41e1f2a7f7200000    000000018003f598     SpeedgoatCANOpen2Buses100us_sfun.obj
 0002:000005a0       __real@41e253d1c4600000    000000018003f5a0     SpeedgoatCANOpen2Buses100us_sfun.obj
 0002:000005a8       __real@41e487f59e800000    000000018003f5a8     SpeedgoatCANOpen2Buses100us_sfun.obj
 0002:000005b0       __real@41e89b9f73800000    000000018003f5b0     SpeedgoatCANOpen2Buses100us_sfun.obj
 0002:000005b8       __real@41ea1e8465600000    000000018003f5b8     SpeedgoatCANOpen2Buses100us_sfun.obj
 0002:000005c0       __real@41ea3cabdd400000    000000018003f5c0     SpeedgoatCANOpen2Buses100us_sfun.obj
 0002:000005c8       __real@41eec387a1800000    000000018003f5c8     SpeedgoatCANOpen2Buses100us_sfun.obj
 0002:000005d0       __real@00000000            000000018003f5d0     c1_SpeedgoatCANOpen2Buses100us.obj
 0002:000005d4       __real@3f800000            000000018003f5d4     c1_SpeedgoatCANOpen2Buses100us.obj
 0002:000005d8       __real@3ff0000000000000    000000018003f5d8     c1_SpeedgoatCANOpen2Buses100us.obj
 0002:000005e0       __real@40000000            000000018003f5e0     c1_SpeedgoatCANOpen2Buses100us.obj
 0002:000005e8       __real@4000000000000000    000000018003f5e8     c1_SpeedgoatCANOpen2Buses100us.obj
 0002:000005f0       __real@4022000000000000    000000018003f5f0     c1_SpeedgoatCANOpen2Buses100us.obj
 0002:000005f8       __real@409f400000000000    000000018003f5f8     c1_SpeedgoatCANOpen2Buses100us.obj
 0002:00000600       __real@41a9bf157c000000    000000018003f600     c1_SpeedgoatCANOpen2Buses100us.obj
 0002:00000608       __real@41d1132187800000    000000018003f608     c1_SpeedgoatCANOpen2Buses100us.obj
 0002:00000610       __real@41e07f3214a00000    000000018003f610     c1_SpeedgoatCANOpen2Buses100us.obj
 0002:00000618       __real@41e744c538c00000    000000018003f618     c1_SpeedgoatCANOpen2Buses100us.obj
 0002:00000620       __real@44fa0000            000000018003f620     c1_SpeedgoatCANOpen2Buses100us.obj
 0002:00000624       __real@40400000            000000018003f624     c2_SpeedgoatCANOpen2Buses100us.obj
 0002:00000628       __real@41b212a001000000    000000018003f628     c2_SpeedgoatCANOpen2Buses100us.obj
 0002:00000630       __real@41deeeb492400000    000000018003f630     c2_SpeedgoatCANOpen2Buses100us.obj
 0002:00000638       __real@41e2d7185ae00000    000000018003f638     c2_SpeedgoatCANOpen2Buses100us.obj
 0002:00000640       __real@41ebc2466fe00000    000000018003f640     c2_SpeedgoatCANOpen2Buses100us.obj
 0002:00000648       __real@41e1d01b62400000    000000018003f648     c3_SpeedgoatCANOpen2Buses100us.obj
 0002:00000650       __real@41e23d1694a00000    000000018003f650     c3_SpeedgoatCANOpen2Buses100us.obj
 0002:00000658       __real@41e7570ccc000000    000000018003f658     c3_SpeedgoatCANOpen2Buses100us.obj
 0002:00000660       __real@41e76a4c30c00000    000000018003f660     c3_SpeedgoatCANOpen2Buses100us.obj
 0002:00000668       __real@4018000000000000    000000018003f668     c4_SpeedgoatCANOpen2Buses100us.obj
 0002:00000670       __real@401c000000000000    000000018003f670     c4_SpeedgoatCANOpen2Buses100us.obj
 0002:00000678       __real@40c00000            000000018003f678     c4_SpeedgoatCANOpen2Buses100us.obj
 0002:0000067c       __real@40e00000            000000018003f67c     c4_SpeedgoatCANOpen2Buses100us.obj
 0002:00000680       __real@41a6d86f3c000000    000000018003f680     c4_SpeedgoatCANOpen2Buses100us.obj
 0002:00000688       __real@41b7c1940e000000    000000018003f688     c4_SpeedgoatCANOpen2Buses100us.obj
 0002:00000690       __real@41e36f8e64800000    000000018003f690     c4_SpeedgoatCANOpen2Buses100us.obj
 0002:00000698       __real@41ec61f79e600000    000000018003f698     c4_SpeedgoatCANOpen2Buses100us.obj
 0002:000006a0       __real@0000000000000000    000000018003f6a0     c5_SpeedgoatCANOpen2Buses100us.obj
 0002:000006a8       __real@3fa999999999999a    000000018003f6a8     c5_SpeedgoatCANOpen2Buses100us.obj
 0002:000006b0       __real@4197c0b7a0000000    000000018003f6b0     c5_SpeedgoatCANOpen2Buses100us.obj
 0002:000006b8       __real@41d948d464800000    000000018003f6b8     c5_SpeedgoatCANOpen2Buses100us.obj
 0002:000006c0       __real@41e61bdc94400000    000000018003f6c0     c5_SpeedgoatCANOpen2Buses100us.obj
 0002:000006c8       __real@41ecd22dcb200000    000000018003f6c8     c5_SpeedgoatCANOpen2Buses100us.obj
 0002:000006d0       __real@41e0ea5a56000000    000000018003f6d0     c12_SpeedgoatCANOpen2Buses100us.obj
 0002:000006d8       __real@41e4545f4ce00000    000000018003f6d8     c12_SpeedgoatCANOpen2Buses100us.obj
 0002:000006e0       __real@41eccf362d200000    000000018003f6e0     c12_SpeedgoatCANOpen2Buses100us.obj
 0002:000006e8       __real@41edf4298e200000    000000018003f6e8     c12_SpeedgoatCANOpen2Buses100us.obj
 0002:000006f0       DYNAMIC_DIMENSION_DEF      000000018003f6f0     SpeedgoatCANOpen2Buses100us_sfun_registry.obj
 0002:00000708       __real@4010000000000000    000000018003f708     SpeedgoatCANOpen2Buses100us_sfun_registry.obj
 0002:00000710       __real@41602cbca0000000    000000018003f710     SpeedgoatCANOpen2Buses100us_sfun_registry.obj
 0002:00000718       __real@bff0000000000000    000000018003f718     SpeedgoatCANOpen2Buses100us_sfun_registry.obj
 0002:00000730       _pRawDllMain               000000018003f730     MSVCRT:dll_dllmain.obj
 0002:00000730       _pDefaultRawDllMain        000000018003f730     MSVCRT:dll_dllmain.obj
 0002:00000760       _load_config_used          000000018003f760     MSVCRT:loadcfg.obj
 0002:00000a78       __rtc_iaa                  000000018003fa78     MSVCRT:initsect.obj
 0002:00000a80       __rtc_izz                  000000018003fa80     MSVCRT:initsect.obj
 0002:00000a88       __rtc_taa                  000000018003fa88     MSVCRT:initsect.obj
 0002:00000a90       __rtc_tzz                  000000018003fa90     MSVCRT:initsect.obj
 0002:00001d9c       __IMPORT_DESCRIPTOR_sf_runtime 0000000180040d9c     sf_runtime:sf_runtime.dll
 0002:00001db0       __IMPORT_DESCRIPTOR_libmx  0000000180040db0     libmx:libmx.dll
 0002:00001dc4       __IMPORT_DESCRIPTOR_libmex 0000000180040dc4     libmex:libmex.dll
 0002:00001dd8       __IMPORT_DESCRIPTOR_libut  0000000180040dd8     libut:libut.dll
 0002:00001dec       __IMPORT_DESCRIPTOR_libmwsl_sfcn_cov_bridge 0000000180040dec     libmwsl_sfcn_cov_bridge:libmwsl_sfcn_cov_bridge.dll
 0002:00001e00       __IMPORT_DESCRIPTOR_KERNEL32 0000000180040e00     kernel32:KERNEL32.dll
 0002:00001e14       __IMPORT_DESCRIPTOR_VCRUNTIME140 0000000180040e14     vcruntime:VCRUNTIME140.dll
 0002:00001e28       __IMPORT_DESCRIPTOR_api-ms-win-crt-string-l1-1-0 0000000180040e28     ucrt:api-ms-win-crt-string-l1-1-0.dll
 0002:00001e3c       __IMPORT_DESCRIPTOR_api-ms-win-crt-stdio-l1-1-0 0000000180040e3c     ucrt:api-ms-win-crt-stdio-l1-1-0.dll
 0002:00001e50       __IMPORT_DESCRIPTOR_api-ms-win-crt-heap-l1-1-0 0000000180040e50     ucrt:api-ms-win-crt-heap-l1-1-0.dll
 0002:00001e64       __IMPORT_DESCRIPTOR_api-ms-win-crt-runtime-l1-1-0 0000000180040e64     ucrt:api-ms-win-crt-runtime-l1-1-0.dll
 0002:00001e78       __NULL_IMPORT_DESCRIPTOR   0000000180040e78     sf_runtime:sf_runtime.dll
 0003:00005d80       DYNAMIC_DIMENSION          0000000180048d80     SpeedgoatCANOpen2Buses100us_sfun_registry.obj
 0003:000081f0       __security_cookie_complement 000000018004b1f0     MSVCRT:gs_cookie.obj
 0003:000081f8       __security_cookie          000000018004b1f8     MSVCRT:gs_cookie.obj
 0003:00008200       _fltused                   000000018004b200     MSVCRT:fltused.obj
 0003:00008204       __scrt_native_dllmain_reason 000000018004b204     MSVCRT:utility.obj
 0003:00008208       __isa_available            000000018004b208     MSVCRT:cpu_disp.obj
 0003:0000820c       __isa_enabled              000000018004b20c     MSVCRT:cpu_disp.obj
 0003:00008210       __memcpy_nt_iters          000000018004b210     MSVCRT:cpu_disp.obj
 0003:00008220       __scrt_ucrt_dll_is_in_use  000000018004b220     MSVCRT:ucrt_stubs.obj
 0003:000082b0       sfGlobalDebugInstanceStruct 000000018004b2b0     SpeedgoatCANOpen2Buses100us_sfun_registry.obj
 0003:00008840       ?__type_info_root_node@@3U__type_info_node@@A 000000018004b840     MSVCRT:tncleanup.obj
 0003:00008850       ?_OptionsStorage@?1??__local_stdio_printf_options@@9@4_KA 000000018004b850     MSVCRT:default_local_stdio_options.obj
 0003:00008858       ?_OptionsStorage@?1??__local_stdio_scanf_options@@9@4_KA 000000018004b858     MSVCRT:default_local_stdio_options.obj
 0003:00008860       __scrt_current_native_startup_state 000000018004b860     MSVCRT:utility.obj
 0003:00008868       __scrt_native_startup_lock 000000018004b868     MSVCRT:utility.obj
 0003:000088a8       __scrt_debugger_hook_flag  000000018004b8a8     MSVCRT:utility_desktop.obj
 0003:000088ac       __favor                    000000018004b8ac     MSVCRT:cpu_disp.obj
 0003:000088b0       ?_OptionsStorage@?1??__local_stdio_printf_options@@9@9 000000018004b8b0     <common>
 0003:000088b8       _SpeedgoatCANOpen2Buses100usMachineNumber_ 000000018004b8b8     <common>
 0003:000088c0       gRxCAN_APT                 000000018004b8c0     <common>
 0003:000088e0       can_rx_queue_APT           000000018004b8e0     <common>
 0003:00008948       gRxCAN                     000000018004b948     <common>
 0003:00008960       can_rx_queue               000000018004b960     <common>
 0003:000089c8       __dyn_tls_init_callback    000000018004b9c8     <common>

 entry point at        0001:0003d1e8

 Static symbols

 0000:00000000       .debug$S                   0000000180000000     sf_runtime:sf_runtime.dll
 0000:00000000       .debug$S                   0000000180000000     sf_runtime:sf_runtime.dll
 0000:00000000       .debug$S                   0000000180000000     sf_runtime:sf_runtime.dll
 0000:00000000       .debug$S                   0000000180000000     sf_runtime:sf_runtime.dll
 0000:00000000       .debug$S                   0000000180000000     sf_runtime:sf_runtime.dll
 0000:00000000       .debug$S                   0000000180000000     sf_runtime:sf_runtime.dll
 0000:00000000       .debug$S                   0000000180000000     SpeedgoatCANOpen2Buses100us_sfun.exp
 0000:00000000       .debug$S                   0000000180000000     sf_runtime:sf_runtime.dll
 0000:00000000       .debug$S                   0000000180000000     sf_runtime:sf_runtime.dll
 0000:00000000       .debug$S                   0000000180000000     sf_runtime:sf_runtime.dll
 0000:00000000       .debug$S                   0000000180000000     sf_runtime:sf_runtime.dll
 0000:00000000       .debug$S                   0000000180000000     sf_runtime:sf_runtime.dll
 0000:00000000       .debug$S                   0000000180000000     ucrt:api-ms-win-crt-runtime-l1-1-0.dll
 0000:00000000       .debug$S                   0000000180000000     ucrt:api-ms-win-crt-runtime-l1-1-0.dll
 0000:00000000       .debug$S                   0000000180000000     ucrt:api-ms-win-crt-runtime-l1-1-0.dll
 0000:00000000       .debug$S                   0000000180000000     ucrt:api-ms-win-crt-runtime-l1-1-0.dll
 0000:00000000       .debug$S                   0000000180000000     ucrt:api-ms-win-crt-runtime-l1-1-0.dll
 0000:00000000       .debug$S                   0000000180000000     ucrt:api-ms-win-crt-runtime-l1-1-0.dll
 0000:00000000       .debug$S                   0000000180000000     ucrt:api-ms-win-crt-runtime-l1-1-0.dll
 0000:00000000       .debug$S                   0000000180000000     ucrt:api-ms-win-crt-runtime-l1-1-0.dll
 0000:00000000       .debug$S                   0000000180000000     ucrt:api-ms-win-crt-runtime-l1-1-0.dll
 0000:00000000       .debug$S                   0000000180000000     ucrt:api-ms-win-crt-runtime-l1-1-0.dll
 0000:00000000       .debug$S                   0000000180000000     ucrt:api-ms-win-crt-runtime-l1-1-0.dll
 0000:00000000       .debug$S                   0000000180000000     ucrt:api-ms-win-crt-runtime-l1-1-0.dll
 0000:00000000       .debug$S                   0000000180000000     ucrt:api-ms-win-crt-string-l1-1-0.dll
 0000:00000000       .debug$S                   0000000180000000     ucrt:api-ms-win-crt-heap-l1-1-0.dll
 0000:00000000       .debug$S                   0000000180000000     ucrt:api-ms-win-crt-heap-l1-1-0.dll
 0000:00000000       .debug$S                   0000000180000000     ucrt:api-ms-win-crt-stdio-l1-1-0.dll
 0000:00000000       .debug$S                   0000000180000000     ucrt:api-ms-win-crt-string-l1-1-0.dll
 0000:00000000       .debug$S                   0000000180000000     sf_runtime:sf_runtime.dll
 0000:00000000       .debug$S                   0000000180000000     vcruntime:VCRUNTIME140.dll
 0000:00000000       .debug$S                   0000000180000000     vcruntime:VCRUNTIME140.dll
 0000:00000000       .debug$S                   0000000180000000     vcruntime:VCRUNTIME140.dll
 0000:00000000       .debug$S                   0000000180000000     vcruntime:VCRUNTIME140.dll
 0000:00000000       .debug$S                   0000000180000000     sf_runtime:sf_runtime.dll
 0000:00000000       .debug$S                   0000000180000000     kernel32:KERNEL32.dll
 0000:00000000       .debug$S                   0000000180000000     kernel32:KERNEL32.dll
 0000:00000000       .debug$S                   0000000180000000     kernel32:KERNEL32.dll
 0000:00000000       .debug$S                   0000000180000000     kernel32:KERNEL32.dll
 0000:00000000       .debug$S                   0000000180000000     kernel32:KERNEL32.dll
 0000:00000000       .debug$S                   0000000180000000     kernel32:KERNEL32.dll
 0000:00000000       .debug$S                   0000000180000000     kernel32:KERNEL32.dll
 0000:00000000       .debug$S                   0000000180000000     kernel32:KERNEL32.dll
 0000:00000000       .debug$S                   0000000180000000     kernel32:KERNEL32.dll
 0000:00000000       .debug$S                   0000000180000000     kernel32:KERNEL32.dll
 0000:00000000       .debug$S                   0000000180000000     kernel32:KERNEL32.dll
 0000:00000000       .debug$S                   0000000180000000     kernel32:KERNEL32.dll
 0000:00000000       .debug$S                   0000000180000000     kernel32:KERNEL32.dll
 0000:00000000       .debug$S                   0000000180000000     kernel32:KERNEL32.dll
 0000:00000000       .debug$S                   0000000180000000     kernel32:KERNEL32.dll
 0000:00000000       .debug$S                   0000000180000000     kernel32:KERNEL32.dll
 0000:00000000       .debug$S                   0000000180000000     kernel32:KERNEL32.dll
 0000:00000000       .debug$S                   0000000180000000     sf_runtime:sf_runtime.dll
 0000:00000000       .debug$S                   0000000180000000     sf_runtime:sf_runtime.dll
 0000:00000000       .debug$S                   0000000180000000     sf_runtime:sf_runtime.dll
 0000:00000000       .debug$S                   0000000180000000     sf_runtime:sf_runtime.dll
 0002:fffc1000       __guard_fids__guard_icall_checks_enforced 0000000180000000     MSVCRT:guard_support.obj
 0002:fffc1000       __guard_fids__             0000000180000000     MSVCRT:guard_support.obj
 0000:00000000       .debug$S                   0000000180000000     sf_runtime:sf_runtime.dll
 0000:00000000       .debug$S                   0000000180000000     sf_runtime:sf_runtime.dll
 0000:00000000       .debug$S                   0000000180000000     sf_runtime:sf_runtime.dll
 0000:00000000       .debug$S                   0000000180000000     sf_runtime:sf_runtime.dll
 0000:00000000       .debug$S                   0000000180000000     sf_runtime:sf_runtime.dll
 0000:00000000       .debug$S                   0000000180000000     sf_runtime:sf_runtime.dll
 0000:00000000       .debug$S                   0000000180000000     sf_runtime:sf_runtime.dll
 0000:00000000       .debug$S                   0000000180000000     sf_runtime:sf_runtime.dll
 0002:fffc1000       __guard_fids___scrt_set_unhandled_exception_filter 0000000180000000     MSVCRT:utility_desktop.obj
 0000:00000000       .debug$S                   0000000180000000     sf_runtime:sf_runtime.dll
 0000:00000000       .debug$S                   0000000180000000     sf_runtime:sf_runtime.dll
 0000:00000000       .debug$S                   0000000180000000     sf_runtime:sf_runtime.dll
 0000:00000000       .debug$S                   0000000180000000     sf_runtime:sf_runtime.dll
 0000:00000000       .debug$S                   0000000180000000     sf_runtime:sf_runtime.dll
 0000:00000000       .debug$S                   0000000180000000     sf_runtime:sf_runtime.dll
 0000:00000000       .debug$S                   0000000180000000     sf_runtime:sf_runtime.dll
 0000:00000000       .debug$S                   0000000180000000     sf_runtime:sf_runtime.dll
 0000:00000000       .debug$S                   0000000180000000     sf_runtime:sf_runtime.dll
 0000:00000000       .debug$S                   0000000180000000     sf_runtime:sf_runtime.dll
 0000:00000000       .debug$S                   0000000180000000     sf_runtime:sf_runtime.dll
 0000:00000000       .debug$S                   0000000180000000     sf_runtime:sf_runtime.dll
 0000:00000000       .debug$S                   0000000180000000     sf_runtime:sf_runtime.dll
 0000:00000000       .debug$S                   0000000180000000     sf_runtime:sf_runtime.dll
 0000:00000000       .debug$S                   0000000180000000     sf_runtime:sf_runtime.dll
 0000:00000000       .debug$S                   0000000180000000     sf_runtime:sf_runtime.dll
 0000:00000000       .debug$S                   0000000180000000     sf_runtime:sf_runtime.dll
 0000:00000000       .debug$S                   0000000180000000     sf_runtime:sf_runtime.dll
 0000:00000000       .debug$S                   0000000180000000     sf_runtime:sf_runtime.dll
 0000:00000000       .debug$S                   0000000180000000     sf_runtime:sf_runtime.dll
 0000:00000000       .debug$S                   0000000180000000     sf_runtime:sf_runtime.dll
 0000:00000000       .debug$S                   0000000180000000     sf_runtime:sf_runtime.dll
 0000:00000000       .debug$S                   0000000180000000     sf_runtime:sf_runtime.dll
 0000:00000000       .debug$S                   0000000180000000     sf_runtime:sf_runtime.dll
 0000:00000000       .debug$S                   0000000180000000     sf_runtime:sf_runtime.dll
 0000:00000000       .debug$S                   0000000180000000     sf_runtime:sf_runtime.dll
 0000:00000000       .debug$S                   0000000180000000     sf_runtime:sf_runtime.dll
 0000:00000000       .debug$S                   0000000180000000     sf_runtime:sf_runtime.dll
 0000:00000000       .debug$S                   0000000180000000     sf_runtime:sf_runtime.dll
 0000:00000000       .debug$S                   0000000180000000     sf_runtime:sf_runtime.dll
 0000:00000000       .debug$S                   0000000180000000     sf_runtime:sf_runtime.dll
 0000:00000000       .debug$S                   0000000180000000     sf_runtime:sf_runtime.dll
 0000:00000000       .debug$S                   0000000180000000     libut:libut.dll
 0000:00000000       .debug$S                   0000000180000000     sf_runtime:sf_runtime.dll
 0000:00000000       .debug$S                   0000000180000000     sf_runtime:sf_runtime.dll
 0000:00000000       .debug$S                   0000000180000000     sf_runtime:sf_runtime.dll
 0000:00000000       .debug$S                   0000000180000000     sf_runtime:sf_runtime.dll
 0000:00000000       .debug$S                   0000000180000000     sf_runtime:sf_runtime.dll
 0000:00000000       .debug$S                   0000000180000000     sf_runtime:sf_runtime.dll
 0000:00000000       .debug$S                   0000000180000000     sf_runtime:sf_runtime.dll
 0000:00000000       .debug$S                   0000000180000000     sf_runtime:sf_runtime.dll
 0000:00000000       .debug$S                   0000000180000000     sf_runtime:sf_runtime.dll
 0000:00000000       .debug$S                   0000000180000000     sf_runtime:sf_runtime.dll
 0000:00000000       .debug$S                   0000000180000000     sf_runtime:sf_runtime.dll
 0000:00000000       .debug$S                   0000000180000000     sf_runtime:sf_runtime.dll
 0000:00000000       .debug$S                   0000000180000000     sf_runtime:sf_runtime.dll
 0000:00000000       .debug$S                   0000000180000000     sf_runtime:sf_runtime.dll
 0000:00000000       .debug$S                   0000000180000000     sf_runtime:sf_runtime.dll
 0000:00000000       .debug$S                   0000000180000000     sf_runtime:sf_runtime.dll
 0000:00000000       .debug$S                   0000000180000000     sf_runtime:sf_runtime.dll
 0000:00000000       .debug$S                   0000000180000000     sf_runtime:sf_runtime.dll
 0000:00000000       .debug$S                   0000000180000000     sf_runtime:sf_runtime.dll
 0000:00000000       .debug$S                   0000000180000000     sf_runtime:sf_runtime.dll
 0000:00000000       .debug$S                   0000000180000000     sf_runtime:sf_runtime.dll
 0000:00000000       .debug$S                   0000000180000000     sf_runtime:sf_runtime.dll
 0000:00000000       .debug$S                   0000000180000000     sf_runtime:sf_runtime.dll
 0000:00000000       .debug$S                   0000000180000000     sf_runtime:sf_runtime.dll
 0000:00000000       .debug$S                   0000000180000000     sf_runtime:sf_runtime.dll
 0000:00000000       .debug$S                   0000000180000000     sf_runtime:sf_runtime.dll
 0000:00000000       .debug$S                   0000000180000000     sf_runtime:sf_runtime.dll
 0000:00000000       .debug$S                   0000000180000000     libmx:libmx.dll
 0002:fffc1000       __guard_fids_?dllmain_dispatch@@YAHQEAUHINSTANCE__@@KQEAX@Z 0000000180000000     MSVCRT:dll_dllmain.obj
 0000:00000000       .debug$S                   0000000180000000     libmx:libmx.dll
 0000:00000000       .debug$S                   0000000180000000     libmx:libmx.dll
 0000:00000000       .debug$S                   0000000180000000     libmx:libmx.dll
 0000:00000000       .debug$S                   0000000180000000     libmx:libmx.dll
 0000:00000000       .debug$S                   0000000180000000     libmx:libmx.dll
 0000:00000000       .debug$S                   0000000180000000     libmx:libmx.dll
 0000:00000000       .debug$S                   0000000180000000     libmx:libmx.dll
 0000:00000000       .debug$S                   0000000180000000     libmx:libmx.dll
 0000:00000000       .debug$S                   0000000180000000     libmx:libmx.dll
 0000:00000000       .debug$S                   0000000180000000     libmx:libmx.dll
 0000:00000000       .debug$S                   0000000180000000     libmx:libmx.dll
 0000:00000000       .debug$S                   0000000180000000     libmx:libmx.dll
 0000:00000000       .debug$S                   0000000180000000     libmx:libmx.dll
 0000:00000000       .debug$S                   0000000180000000     libmx:libmx.dll
 0000:00000000       .debug$S                   0000000180000000     libmx:libmx.dll
 0000:00000000       .debug$S                   0000000180000000     libmx:libmx.dll
 0000:00000000       .debug$S                   0000000180000000     libmx:libmx.dll
 0000:00000000       .debug$S                   0000000180000000     libmx:libmx.dll
 0000:00000000       .debug$S                   0000000180000000     libmx:libmx.dll
 0000:00000000       .debug$S                   0000000180000000     libmex:libmex.dll
 0000:00000000       .debug$S                   0000000180000000     libmex:libmex.dll
 0000:00000000       .debug$S                   0000000180000000     libmex:libmex.dll
 0000:00000000       .debug$S                   0000000180000000     libmex:libmex.dll
 0000:00000000       .debug$S                   0000000180000000     libmex:libmex.dll
 0000:00000000       .debug$S                   0000000180000000     libmex:libmex.dll
 0000:00000000       .debug$S                   0000000180000000     libmex:libmex.dll
 0000:00000000       .debug$S                   0000000180000000     libut:libut.dll
 0000:00000000       .debug$S                   0000000180000000     libmwsl_sfcn_cov_bridge:libmwsl_sfcn_cov_bridge.dll
 0001:00000488       $LN20                      0000000180001488     SpeedgoatCANOpen2Buses100us_sfun.obj
 0001:00000a14       $LN27                      0000000180001a14     SpeedgoatCANOpen2Buses100us_sfun.obj
 0001:00000e14       $LN25                      0000000180001e14     SpeedgoatCANOpen2Buses100us_sfun.obj
 0001:000011c8       $LN25                      00000001800021c8     SpeedgoatCANOpen2Buses100us_sfun.obj
 0001:000014e4       $LN25                      00000001800024e4     SpeedgoatCANOpen2Buses100us_sfun.obj
 0001:00001804       $LN25                      0000000180002804     SpeedgoatCANOpen2Buses100us_sfun.obj
 0001:00001b24       $LN25                      0000000180002b24     SpeedgoatCANOpen2Buses100us_sfun.obj
 0001:00001db0       chart_debug_initialization 0000000180002db0 f   c1_SpeedgoatCANOpen2Buses100us.obj
 0001:00003d60       chart_debug_initialize_data_addresses 0000000180004d60 f   c1_SpeedgoatCANOpen2Buses100us.obj
 0001:00004070       sf_opaque_get_hover_data_for_msg 0000000180005070 f   c1_SpeedgoatCANOpen2Buses100us.obj
 0001:000040a0       initialize_c1_SpeedgoatCANOpen2Buses100us 00000001800050a0 f   c1_SpeedgoatCANOpen2Buses100us.obj
 0001:00004160       initialize_params_c1_SpeedgoatCANOpen2Buses100us 0000000180005160 f   c1_SpeedgoatCANOpen2Buses100us.obj
 0001:00004170       enable_c1_SpeedgoatCANOpen2Buses100us 0000000180005170 f   c1_SpeedgoatCANOpen2Buses100us.obj
 0001:000041a0       disable_c1_SpeedgoatCANOpen2Buses100us 00000001800051a0 f   c1_SpeedgoatCANOpen2Buses100us.obj
 0001:000041d0       c1_update_debugger_state_c1_SpeedgoatCANOpen2Buses100us 00000001800051d0 f   c1_SpeedgoatCANOpen2Buses100us.obj
 0001:000047f0       ext_mode_exec_c1_SpeedgoatCANOpen2Buses100us 00000001800057f0 f   c1_SpeedgoatCANOpen2Buses100us.obj
 0001:00004810       get_sim_state_c1_SpeedgoatCANOpen2Buses100us 0000000180005810 f   c1_SpeedgoatCANOpen2Buses100us.obj
 0001:00004e10       set_sim_state_c1_SpeedgoatCANOpen2Buses100us 0000000180005e10 f   c1_SpeedgoatCANOpen2Buses100us.obj
 0001:00005140       c1_set_sim_state_side_effects_c1_SpeedgoatCANOpen2Buses100us 0000000180006140 f   c1_SpeedgoatCANOpen2Buses100us.obj
 0001:00005170       finalize_c1_SpeedgoatCANOpen2Buses100us 0000000180006170 f   c1_SpeedgoatCANOpen2Buses100us.obj
 0001:000051a0       sf_gateway_c1_SpeedgoatCANOpen2Buses100us 00000001800061a0 f   c1_SpeedgoatCANOpen2Buses100us.obj
 0001:00005350       mdl_start_c1_SpeedgoatCANOpen2Buses100us 0000000180006350 f   c1_SpeedgoatCANOpen2Buses100us.obj
 0001:00005380       c1_chartstep_c1_SpeedgoatCANOpen2Buses100us 0000000180006380 f   c1_SpeedgoatCANOpen2Buses100us.obj
 0001:00008b50       initSimStructsc1_SpeedgoatCANOpen2Buses100us 0000000180009b50 f   c1_SpeedgoatCANOpen2Buses100us.obj
 0001:00008b60       c1_enter_atomic_Init       0000000180009b60 f   c1_SpeedgoatCANOpen2Buses100us.obj
 0001:00008ec0       init_script_number_translation 0000000180009ec0 f   c1_SpeedgoatCANOpen2Buses100us.obj
 0001:00008ee0       c1_sf_marshallOut          0000000180009ee0 f   c1_SpeedgoatCANOpen2Buses100us.obj
 0001:00008f90       c1_emlrt_marshallIn        0000000180009f90 f   c1_SpeedgoatCANOpen2Buses100us.obj
 0001:00009020       c1_sf_marshallIn           000000018000a020 f   c1_SpeedgoatCANOpen2Buses100us.obj
 0001:000090d0       c1_b_sf_marshallOut        000000018000a0d0 f   c1_SpeedgoatCANOpen2Buses100us.obj
 0001:00009180       c1_b_emlrt_marshallIn      000000018000a180 f   c1_SpeedgoatCANOpen2Buses100us.obj
 0001:00009210       c1_b_sf_marshallIn         000000018000a210 f   c1_SpeedgoatCANOpen2Buses100us.obj
 0001:000092c0       c1_d_sf_marshallOut        000000018000a2c0 f   c1_SpeedgoatCANOpen2Buses100us.obj
 0001:00009380       c1_d_emlrt_marshallIn      000000018000a380 f   c1_SpeedgoatCANOpen2Buses100us.obj
 0001:000093f0       c1_e_emlrt_marshallIn      000000018000a3f0 f   c1_SpeedgoatCANOpen2Buses100us.obj
 0001:00009480       c1_d_sf_marshallIn         000000018000a480 f   c1_SpeedgoatCANOpen2Buses100us.obj
 0001:00009530       c1_f_emlrt_marshallIn      000000018000a530 f   c1_SpeedgoatCANOpen2Buses100us.obj
 0001:000095a0       c1_g_emlrt_marshallIn      000000018000a5a0 f   c1_SpeedgoatCANOpen2Buses100us.obj
 0001:00009630       c1_h_emlrt_marshallIn      000000018000a630 f   c1_SpeedgoatCANOpen2Buses100us.obj
 0001:000096a0       c1_i_emlrt_marshallIn      000000018000a6a0 f   c1_SpeedgoatCANOpen2Buses100us.obj
 0001:00009780       c1_j_emlrt_marshallIn      000000018000a780 f   c1_SpeedgoatCANOpen2Buses100us.obj
 0001:00009810       c1_k_emlrt_marshallIn      000000018000a810 f   c1_SpeedgoatCANOpen2Buses100us.obj
 0001:00009870       sf_get_hover_data_for_msg  000000018000a870 f   c1_SpeedgoatCANOpen2Buses100us.obj
 0001:00009890       c1_init_sf_message_store_memory 000000018000a890 f   c1_SpeedgoatCANOpen2Buses100us.obj
 0001:000098a0       init_dsm_address_info      000000018000a8a0 f   c1_SpeedgoatCANOpen2Buses100us.obj
 0001:000098b0       init_simulink_io_address   000000018000a8b0 f   c1_SpeedgoatCANOpen2Buses100us.obj
 0001:00009a40       sf_get_sfun_dwork_checksum 000000018000aa40 f   c1_SpeedgoatCANOpen2Buses100us.obj
 0001:0000aa70       sf_get_sim_state_info_c1_SpeedgoatCANOpen2Buses100us 000000018000ba70 f   c1_SpeedgoatCANOpen2Buses100us.obj
 0001:0000ab40       sf_get_instance_specialization 000000018000bb40 f   c1_SpeedgoatCANOpen2Buses100us.obj
 0001:0000ab50       sf_check_dwork_consistency 000000018000bb50 f   c1_SpeedgoatCANOpen2Buses100us.obj
 0001:0000acd0       sf_opaque_initialize_c1_SpeedgoatCANOpen2Buses100us 000000018000bcd0 f   c1_SpeedgoatCANOpen2Buses100us.obj
 0001:0000ad20       sf_opaque_enable_c1_SpeedgoatCANOpen2Buses100us 000000018000bd20 f   c1_SpeedgoatCANOpen2Buses100us.obj
 0001:0000ad40       sf_opaque_disable_c1_SpeedgoatCANOpen2Buses100us 000000018000bd40 f   c1_SpeedgoatCANOpen2Buses100us.obj
 0001:0000ad60       sf_opaque_gateway_c1_SpeedgoatCANOpen2Buses100us 000000018000bd60 f   c1_SpeedgoatCANOpen2Buses100us.obj
 0001:0000ad80       sf_opaque_ext_mode_exec_c1_SpeedgoatCANOpen2Buses100us 000000018000bd80 f   c1_SpeedgoatCANOpen2Buses100us.obj
 0001:0000ada0       sf_opaque_get_sim_state_c1_SpeedgoatCANOpen2Buses100us 000000018000bda0 f   c1_SpeedgoatCANOpen2Buses100us.obj
 0001:0000add0       sf_opaque_set_sim_state_c1_SpeedgoatCANOpen2Buses100us 000000018000bdd0 f   c1_SpeedgoatCANOpen2Buses100us.obj
 0001:0000ae00       sf_opaque_terminate_c1_SpeedgoatCANOpen2Buses100us 000000018000be00 f   c1_SpeedgoatCANOpen2Buses100us.obj
 0001:0000aea0       mdlProcessParameters_c1_SpeedgoatCANOpen2Buses100us 000000018000bea0 f   c1_SpeedgoatCANOpen2Buses100us.obj
 0001:0000af70       sf_set_sfun_dwork_info     000000018000bf70 f   c1_SpeedgoatCANOpen2Buses100us.obj
 0001:0000afb0       mdlSetWorkWidths_c1_SpeedgoatCANOpen2Buses100us 000000018000bfb0 f   c1_SpeedgoatCANOpen2Buses100us.obj
 0001:0000b6e0       mdlRTW_c1_SpeedgoatCANOpen2Buses100us 000000018000c6e0 f   c1_SpeedgoatCANOpen2Buses100us.obj
 0001:0000b720       mdlStart_c1_SpeedgoatCANOpen2Buses100us 000000018000c720 f   c1_SpeedgoatCANOpen2Buses100us.obj
 0001:0000bb60       chart_debug_initialization 000000018000cb60 f   c2_SpeedgoatCANOpen2Buses100us.obj
 0001:0000db10       chart_debug_initialize_data_addresses 000000018000eb10 f   c2_SpeedgoatCANOpen2Buses100us.obj
 0001:0000de20       sf_opaque_get_hover_data_for_msg 000000018000ee20 f   c2_SpeedgoatCANOpen2Buses100us.obj
 0001:0000de50       initialize_c2_SpeedgoatCANOpen2Buses100us 000000018000ee50 f   c2_SpeedgoatCANOpen2Buses100us.obj
 0001:0000df10       initialize_params_c2_SpeedgoatCANOpen2Buses100us 000000018000ef10 f   c2_SpeedgoatCANOpen2Buses100us.obj
 0001:0000df20       enable_c2_SpeedgoatCANOpen2Buses100us 000000018000ef20 f   c2_SpeedgoatCANOpen2Buses100us.obj
 0001:0000df50       disable_c2_SpeedgoatCANOpen2Buses100us 000000018000ef50 f   c2_SpeedgoatCANOpen2Buses100us.obj
 0001:0000df80       c2_update_debugger_state_c2_SpeedgoatCANOpen2Buses100us 000000018000ef80 f   c2_SpeedgoatCANOpen2Buses100us.obj
 0001:0000e5a0       ext_mode_exec_c2_SpeedgoatCANOpen2Buses100us 000000018000f5a0 f   c2_SpeedgoatCANOpen2Buses100us.obj
 0001:0000e5c0       get_sim_state_c2_SpeedgoatCANOpen2Buses100us 000000018000f5c0 f   c2_SpeedgoatCANOpen2Buses100us.obj
 0001:0000ebc0       set_sim_state_c2_SpeedgoatCANOpen2Buses100us 000000018000fbc0 f   c2_SpeedgoatCANOpen2Buses100us.obj
 0001:0000eef0       c2_set_sim_state_side_effects_c2_SpeedgoatCANOpen2Buses100us 000000018000fef0 f   c2_SpeedgoatCANOpen2Buses100us.obj
 0001:0000ef20       finalize_c2_SpeedgoatCANOpen2Buses100us 000000018000ff20 f   c2_SpeedgoatCANOpen2Buses100us.obj
 0001:0000ef50       sf_gateway_c2_SpeedgoatCANOpen2Buses100us 000000018000ff50 f   c2_SpeedgoatCANOpen2Buses100us.obj
 0001:0000f100       mdl_start_c2_SpeedgoatCANOpen2Buses100us 0000000180010100 f   c2_SpeedgoatCANOpen2Buses100us.obj
 0001:0000f130       c2_chartstep_c2_SpeedgoatCANOpen2Buses100us 0000000180010130 f   c2_SpeedgoatCANOpen2Buses100us.obj
 0001:00012900       initSimStructsc2_SpeedgoatCANOpen2Buses100us 0000000180013900 f   c2_SpeedgoatCANOpen2Buses100us.obj
 0001:00012910       c2_enter_atomic_Init       0000000180013910 f   c2_SpeedgoatCANOpen2Buses100us.obj
 0001:00012c70       init_script_number_translation 0000000180013c70 f   c2_SpeedgoatCANOpen2Buses100us.obj
 0001:00012c90       c2_sf_marshallOut          0000000180013c90 f   c2_SpeedgoatCANOpen2Buses100us.obj
 0001:00012d40       c2_emlrt_marshallIn        0000000180013d40 f   c2_SpeedgoatCANOpen2Buses100us.obj
 0001:00012dd0       c2_sf_marshallIn           0000000180013dd0 f   c2_SpeedgoatCANOpen2Buses100us.obj
 0001:00012e80       c2_b_sf_marshallOut        0000000180013e80 f   c2_SpeedgoatCANOpen2Buses100us.obj
 0001:00012f30       c2_b_emlrt_marshallIn      0000000180013f30 f   c2_SpeedgoatCANOpen2Buses100us.obj
 0001:00012fc0       c2_b_sf_marshallIn         0000000180013fc0 f   c2_SpeedgoatCANOpen2Buses100us.obj
 0001:00013070       c2_d_sf_marshallOut        0000000180014070 f   c2_SpeedgoatCANOpen2Buses100us.obj
 0001:00013130       c2_d_emlrt_marshallIn      0000000180014130 f   c2_SpeedgoatCANOpen2Buses100us.obj
 0001:000131a0       c2_e_emlrt_marshallIn      00000001800141a0 f   c2_SpeedgoatCANOpen2Buses100us.obj
 0001:00013230       c2_d_sf_marshallIn         0000000180014230 f   c2_SpeedgoatCANOpen2Buses100us.obj
 0001:000132e0       c2_f_emlrt_marshallIn      00000001800142e0 f   c2_SpeedgoatCANOpen2Buses100us.obj
 0001:00013350       c2_g_emlrt_marshallIn      0000000180014350 f   c2_SpeedgoatCANOpen2Buses100us.obj
 0001:000133e0       c2_h_emlrt_marshallIn      00000001800143e0 f   c2_SpeedgoatCANOpen2Buses100us.obj
 0001:00013450       c2_i_emlrt_marshallIn      0000000180014450 f   c2_SpeedgoatCANOpen2Buses100us.obj
 0001:00013530       c2_j_emlrt_marshallIn      0000000180014530 f   c2_SpeedgoatCANOpen2Buses100us.obj
 0001:000135c0       c2_k_emlrt_marshallIn      00000001800145c0 f   c2_SpeedgoatCANOpen2Buses100us.obj
 0001:00013620       sf_get_hover_data_for_msg  0000000180014620 f   c2_SpeedgoatCANOpen2Buses100us.obj
 0001:00013640       c2_init_sf_message_store_memory 0000000180014640 f   c2_SpeedgoatCANOpen2Buses100us.obj
 0001:00013650       init_dsm_address_info      0000000180014650 f   c2_SpeedgoatCANOpen2Buses100us.obj
 0001:00013660       init_simulink_io_address   0000000180014660 f   c2_SpeedgoatCANOpen2Buses100us.obj
 0001:000137f0       sf_get_sfun_dwork_checksum 00000001800147f0 f   c2_SpeedgoatCANOpen2Buses100us.obj
 0001:00014820       sf_get_sim_state_info_c2_SpeedgoatCANOpen2Buses100us 0000000180015820 f   c2_SpeedgoatCANOpen2Buses100us.obj
 0001:000148f0       sf_get_instance_specialization 00000001800158f0 f   c2_SpeedgoatCANOpen2Buses100us.obj
 0001:00014900       sf_check_dwork_consistency 0000000180015900 f   c2_SpeedgoatCANOpen2Buses100us.obj
 0001:00014a80       sf_opaque_initialize_c2_SpeedgoatCANOpen2Buses100us 0000000180015a80 f   c2_SpeedgoatCANOpen2Buses100us.obj
 0001:00014ad0       sf_opaque_enable_c2_SpeedgoatCANOpen2Buses100us 0000000180015ad0 f   c2_SpeedgoatCANOpen2Buses100us.obj
 0001:00014af0       sf_opaque_disable_c2_SpeedgoatCANOpen2Buses100us 0000000180015af0 f   c2_SpeedgoatCANOpen2Buses100us.obj
 0001:00014b10       sf_opaque_gateway_c2_SpeedgoatCANOpen2Buses100us 0000000180015b10 f   c2_SpeedgoatCANOpen2Buses100us.obj
 0001:00014b30       sf_opaque_ext_mode_exec_c2_SpeedgoatCANOpen2Buses100us 0000000180015b30 f   c2_SpeedgoatCANOpen2Buses100us.obj
 0001:00014b50       sf_opaque_get_sim_state_c2_SpeedgoatCANOpen2Buses100us 0000000180015b50 f   c2_SpeedgoatCANOpen2Buses100us.obj
 0001:00014b80       sf_opaque_set_sim_state_c2_SpeedgoatCANOpen2Buses100us 0000000180015b80 f   c2_SpeedgoatCANOpen2Buses100us.obj
 0001:00014bb0       sf_opaque_terminate_c2_SpeedgoatCANOpen2Buses100us 0000000180015bb0 f   c2_SpeedgoatCANOpen2Buses100us.obj
 0001:00014c50       mdlProcessParameters_c2_SpeedgoatCANOpen2Buses100us 0000000180015c50 f   c2_SpeedgoatCANOpen2Buses100us.obj
 0001:00014d20       sf_set_sfun_dwork_info     0000000180015d20 f   c2_SpeedgoatCANOpen2Buses100us.obj
 0001:00014d60       mdlSetWorkWidths_c2_SpeedgoatCANOpen2Buses100us 0000000180015d60 f   c2_SpeedgoatCANOpen2Buses100us.obj
 0001:00015490       mdlRTW_c2_SpeedgoatCANOpen2Buses100us 0000000180016490 f   c2_SpeedgoatCANOpen2Buses100us.obj
 0001:000154d0       mdlStart_c2_SpeedgoatCANOpen2Buses100us 00000001800164d0 f   c2_SpeedgoatCANOpen2Buses100us.obj
 0001:00015910       chart_debug_initialization 0000000180016910 f   c3_SpeedgoatCANOpen2Buses100us.obj
 0001:000178c0       chart_debug_initialize_data_addresses 00000001800188c0 f   c3_SpeedgoatCANOpen2Buses100us.obj
 0001:00017bd0       sf_opaque_get_hover_data_for_msg 0000000180018bd0 f   c3_SpeedgoatCANOpen2Buses100us.obj
 0001:00017c00       initialize_c3_SpeedgoatCANOpen2Buses100us 0000000180018c00 f   c3_SpeedgoatCANOpen2Buses100us.obj
 0001:00017cc0       initialize_params_c3_SpeedgoatCANOpen2Buses100us 0000000180018cc0 f   c3_SpeedgoatCANOpen2Buses100us.obj
 0001:00017cd0       enable_c3_SpeedgoatCANOpen2Buses100us 0000000180018cd0 f   c3_SpeedgoatCANOpen2Buses100us.obj
 0001:00017d00       disable_c3_SpeedgoatCANOpen2Buses100us 0000000180018d00 f   c3_SpeedgoatCANOpen2Buses100us.obj
 0001:00017d30       c3_update_debugger_state_c3_SpeedgoatCANOpen2Buses100us 0000000180018d30 f   c3_SpeedgoatCANOpen2Buses100us.obj
 0001:00018350       ext_mode_exec_c3_SpeedgoatCANOpen2Buses100us 0000000180019350 f   c3_SpeedgoatCANOpen2Buses100us.obj
 0001:00018370       get_sim_state_c3_SpeedgoatCANOpen2Buses100us 0000000180019370 f   c3_SpeedgoatCANOpen2Buses100us.obj
 0001:00018970       set_sim_state_c3_SpeedgoatCANOpen2Buses100us 0000000180019970 f   c3_SpeedgoatCANOpen2Buses100us.obj
 0001:00018ca0       c3_set_sim_state_side_effects_c3_SpeedgoatCANOpen2Buses100us 0000000180019ca0 f   c3_SpeedgoatCANOpen2Buses100us.obj
 0001:00018cd0       finalize_c3_SpeedgoatCANOpen2Buses100us 0000000180019cd0 f   c3_SpeedgoatCANOpen2Buses100us.obj
 0001:00018d00       sf_gateway_c3_SpeedgoatCANOpen2Buses100us 0000000180019d00 f   c3_SpeedgoatCANOpen2Buses100us.obj
 0001:00018eb0       mdl_start_c3_SpeedgoatCANOpen2Buses100us 0000000180019eb0 f   c3_SpeedgoatCANOpen2Buses100us.obj
 0001:00018ee0       c3_chartstep_c3_SpeedgoatCANOpen2Buses100us 0000000180019ee0 f   c3_SpeedgoatCANOpen2Buses100us.obj
 0001:0001c6b0       initSimStructsc3_SpeedgoatCANOpen2Buses100us 000000018001d6b0 f   c3_SpeedgoatCANOpen2Buses100us.obj
 0001:0001c6c0       c3_enter_atomic_Init       000000018001d6c0 f   c3_SpeedgoatCANOpen2Buses100us.obj
 0001:0001ca20       init_script_number_translation 000000018001da20 f   c3_SpeedgoatCANOpen2Buses100us.obj
 0001:0001ca40       c3_sf_marshallOut          000000018001da40 f   c3_SpeedgoatCANOpen2Buses100us.obj
 0001:0001caf0       c3_emlrt_marshallIn        000000018001daf0 f   c3_SpeedgoatCANOpen2Buses100us.obj
 0001:0001cb80       c3_sf_marshallIn           000000018001db80 f   c3_SpeedgoatCANOpen2Buses100us.obj
 0001:0001cc30       c3_b_sf_marshallOut        000000018001dc30 f   c3_SpeedgoatCANOpen2Buses100us.obj
 0001:0001cce0       c3_b_emlrt_marshallIn      000000018001dce0 f   c3_SpeedgoatCANOpen2Buses100us.obj
 0001:0001cd70       c3_b_sf_marshallIn         000000018001dd70 f   c3_SpeedgoatCANOpen2Buses100us.obj
 0001:0001ce20       c3_d_sf_marshallOut        000000018001de20 f   c3_SpeedgoatCANOpen2Buses100us.obj
 0001:0001cee0       c3_d_emlrt_marshallIn      000000018001dee0 f   c3_SpeedgoatCANOpen2Buses100us.obj
 0001:0001cf50       c3_e_emlrt_marshallIn      000000018001df50 f   c3_SpeedgoatCANOpen2Buses100us.obj
 0001:0001cfe0       c3_d_sf_marshallIn         000000018001dfe0 f   c3_SpeedgoatCANOpen2Buses100us.obj
 0001:0001d090       c3_f_emlrt_marshallIn      000000018001e090 f   c3_SpeedgoatCANOpen2Buses100us.obj
 0001:0001d100       c3_g_emlrt_marshallIn      000000018001e100 f   c3_SpeedgoatCANOpen2Buses100us.obj
 0001:0001d190       c3_h_emlrt_marshallIn      000000018001e190 f   c3_SpeedgoatCANOpen2Buses100us.obj
 0001:0001d200       c3_i_emlrt_marshallIn      000000018001e200 f   c3_SpeedgoatCANOpen2Buses100us.obj
 0001:0001d2e0       c3_j_emlrt_marshallIn      000000018001e2e0 f   c3_SpeedgoatCANOpen2Buses100us.obj
 0001:0001d370       c3_k_emlrt_marshallIn      000000018001e370 f   c3_SpeedgoatCANOpen2Buses100us.obj
 0001:0001d3d0       sf_get_hover_data_for_msg  000000018001e3d0 f   c3_SpeedgoatCANOpen2Buses100us.obj
 0001:0001d3f0       c3_init_sf_message_store_memory 000000018001e3f0 f   c3_SpeedgoatCANOpen2Buses100us.obj
 0001:0001d400       init_dsm_address_info      000000018001e400 f   c3_SpeedgoatCANOpen2Buses100us.obj
 0001:0001d410       init_simulink_io_address   000000018001e410 f   c3_SpeedgoatCANOpen2Buses100us.obj
 0001:0001d5a0       sf_get_sfun_dwork_checksum 000000018001e5a0 f   c3_SpeedgoatCANOpen2Buses100us.obj
 0001:0001e5d0       sf_get_sim_state_info_c3_SpeedgoatCANOpen2Buses100us 000000018001f5d0 f   c3_SpeedgoatCANOpen2Buses100us.obj
 0001:0001e6a0       sf_get_instance_specialization 000000018001f6a0 f   c3_SpeedgoatCANOpen2Buses100us.obj
 0001:0001e6b0       sf_check_dwork_consistency 000000018001f6b0 f   c3_SpeedgoatCANOpen2Buses100us.obj
 0001:0001e830       sf_opaque_initialize_c3_SpeedgoatCANOpen2Buses100us 000000018001f830 f   c3_SpeedgoatCANOpen2Buses100us.obj
 0001:0001e880       sf_opaque_enable_c3_SpeedgoatCANOpen2Buses100us 000000018001f880 f   c3_SpeedgoatCANOpen2Buses100us.obj
 0001:0001e8a0       sf_opaque_disable_c3_SpeedgoatCANOpen2Buses100us 000000018001f8a0 f   c3_SpeedgoatCANOpen2Buses100us.obj
 0001:0001e8c0       sf_opaque_gateway_c3_SpeedgoatCANOpen2Buses100us 000000018001f8c0 f   c3_SpeedgoatCANOpen2Buses100us.obj
 0001:0001e8e0       sf_opaque_ext_mode_exec_c3_SpeedgoatCANOpen2Buses100us 000000018001f8e0 f   c3_SpeedgoatCANOpen2Buses100us.obj
 0001:0001e900       sf_opaque_get_sim_state_c3_SpeedgoatCANOpen2Buses100us 000000018001f900 f   c3_SpeedgoatCANOpen2Buses100us.obj
 0001:0001e930       sf_opaque_set_sim_state_c3_SpeedgoatCANOpen2Buses100us 000000018001f930 f   c3_SpeedgoatCANOpen2Buses100us.obj
 0001:0001e960       sf_opaque_terminate_c3_SpeedgoatCANOpen2Buses100us 000000018001f960 f   c3_SpeedgoatCANOpen2Buses100us.obj
 0001:0001ea00       mdlProcessParameters_c3_SpeedgoatCANOpen2Buses100us 000000018001fa00 f   c3_SpeedgoatCANOpen2Buses100us.obj
 0001:0001ead0       sf_set_sfun_dwork_info     000000018001fad0 f   c3_SpeedgoatCANOpen2Buses100us.obj
 0001:0001eb10       mdlSetWorkWidths_c3_SpeedgoatCANOpen2Buses100us 000000018001fb10 f   c3_SpeedgoatCANOpen2Buses100us.obj
 0001:0001f240       mdlRTW_c3_SpeedgoatCANOpen2Buses100us 0000000180020240 f   c3_SpeedgoatCANOpen2Buses100us.obj
 0001:0001f280       mdlStart_c3_SpeedgoatCANOpen2Buses100us 0000000180020280 f   c3_SpeedgoatCANOpen2Buses100us.obj
 0001:0001f6c0       chart_debug_initialization 00000001800206c0 f   c4_SpeedgoatCANOpen2Buses100us.obj
 0001:00020210       chart_debug_initialize_data_addresses 0000000180021210 f   c4_SpeedgoatCANOpen2Buses100us.obj
 0001:00020310       sf_opaque_get_hover_data_for_msg 0000000180021310 f   c4_SpeedgoatCANOpen2Buses100us.obj
 0001:00020340       initialize_c4_SpeedgoatCANOpen2Buses100us 0000000180021340 f   c4_SpeedgoatCANOpen2Buses100us.obj
 0001:00020400       initialize_params_c4_SpeedgoatCANOpen2Buses100us 0000000180021400 f   c4_SpeedgoatCANOpen2Buses100us.obj
 0001:00020410       enable_c4_SpeedgoatCANOpen2Buses100us 0000000180021410 f   c4_SpeedgoatCANOpen2Buses100us.obj
 0001:00020440       disable_c4_SpeedgoatCANOpen2Buses100us 0000000180021440 f   c4_SpeedgoatCANOpen2Buses100us.obj
 0001:00020470       c4_update_debugger_state_c4_SpeedgoatCANOpen2Buses100us 0000000180021470 f   c4_SpeedgoatCANOpen2Buses100us.obj
 0001:00020820       ext_mode_exec_c4_SpeedgoatCANOpen2Buses100us 0000000180021820 f   c4_SpeedgoatCANOpen2Buses100us.obj
 0001:00020840       get_sim_state_c4_SpeedgoatCANOpen2Buses100us 0000000180021840 f   c4_SpeedgoatCANOpen2Buses100us.obj
 0001:00020ac0       set_sim_state_c4_SpeedgoatCANOpen2Buses100us 0000000180021ac0 f   c4_SpeedgoatCANOpen2Buses100us.obj
 0001:00020c60       c4_set_sim_state_side_effects_c4_SpeedgoatCANOpen2Buses100us 0000000180021c60 f   c4_SpeedgoatCANOpen2Buses100us.obj
 0001:00020c90       finalize_c4_SpeedgoatCANOpen2Buses100us 0000000180021c90 f   c4_SpeedgoatCANOpen2Buses100us.obj
 0001:00020cc0       sf_gateway_c4_SpeedgoatCANOpen2Buses100us 0000000180021cc0 f   c4_SpeedgoatCANOpen2Buses100us.obj
 0001:00022120       mdl_start_c4_SpeedgoatCANOpen2Buses100us 0000000180023120 f   c4_SpeedgoatCANOpen2Buses100us.obj
 0001:00022150       initSimStructsc4_SpeedgoatCANOpen2Buses100us 0000000180023150 f   c4_SpeedgoatCANOpen2Buses100us.obj
 0001:00022160       init_script_number_translation 0000000180023160 f   c4_SpeedgoatCANOpen2Buses100us.obj
 0001:00022180       c4_sf_marshallOut          0000000180023180 f   c4_SpeedgoatCANOpen2Buses100us.obj
 0001:00022230       c4_emlrt_marshallIn        0000000180023230 f   c4_SpeedgoatCANOpen2Buses100us.obj
 0001:000222c0       c4_sf_marshallIn           00000001800232c0 f   c4_SpeedgoatCANOpen2Buses100us.obj
 0001:00022370       c4_b_sf_marshallOut        0000000180023370 f   c4_SpeedgoatCANOpen2Buses100us.obj
 0001:00022420       c4_b_emlrt_marshallIn      0000000180023420 f   c4_SpeedgoatCANOpen2Buses100us.obj
 0001:000224b0       c4_b_sf_marshallIn         00000001800234b0 f   c4_SpeedgoatCANOpen2Buses100us.obj
 0001:00022560       c4_d_sf_marshallOut        0000000180023560 f   c4_SpeedgoatCANOpen2Buses100us.obj
 0001:00022620       c4_d_emlrt_marshallIn      0000000180023620 f   c4_SpeedgoatCANOpen2Buses100us.obj
 0001:00022690       c4_e_emlrt_marshallIn      0000000180023690 f   c4_SpeedgoatCANOpen2Buses100us.obj
 0001:00022720       c4_d_sf_marshallIn         0000000180023720 f   c4_SpeedgoatCANOpen2Buses100us.obj
 0001:000227d0       c4_f_emlrt_marshallIn      00000001800237d0 f   c4_SpeedgoatCANOpen2Buses100us.obj
 0001:00022840       c4_g_emlrt_marshallIn      0000000180023840 f   c4_SpeedgoatCANOpen2Buses100us.obj
 0001:000228d0       c4_h_emlrt_marshallIn      00000001800238d0 f   c4_SpeedgoatCANOpen2Buses100us.obj
 0001:00022940       c4_i_emlrt_marshallIn      0000000180023940 f   c4_SpeedgoatCANOpen2Buses100us.obj
 0001:000229f0       c4_j_emlrt_marshallIn      00000001800239f0 f   c4_SpeedgoatCANOpen2Buses100us.obj
 0001:00022a80       c4_k_emlrt_marshallIn      0000000180023a80 f   c4_SpeedgoatCANOpen2Buses100us.obj
 0001:00022ae0       sf_get_hover_data_for_msg  0000000180023ae0 f   c4_SpeedgoatCANOpen2Buses100us.obj
 0001:00022b00       c4_init_sf_message_store_memory 0000000180023b00 f   c4_SpeedgoatCANOpen2Buses100us.obj
 0001:00022b10       init_dsm_address_info      0000000180023b10 f   c4_SpeedgoatCANOpen2Buses100us.obj
 0001:00022b20       init_simulink_io_address   0000000180023b20 f   c4_SpeedgoatCANOpen2Buses100us.obj
 0001:00022be0       sf_get_sfun_dwork_checksum 0000000180023be0 f   c4_SpeedgoatCANOpen2Buses100us.obj
 0001:00023310       sf_get_sim_state_info_c4_SpeedgoatCANOpen2Buses100us 0000000180024310 f   c4_SpeedgoatCANOpen2Buses100us.obj
 0001:000233e0       sf_get_instance_specialization 00000001800243e0 f   c4_SpeedgoatCANOpen2Buses100us.obj
 0001:000233f0       sf_check_dwork_consistency 00000001800243f0 f   c4_SpeedgoatCANOpen2Buses100us.obj
 0001:00023570       sf_opaque_initialize_c4_SpeedgoatCANOpen2Buses100us 0000000180024570 f   c4_SpeedgoatCANOpen2Buses100us.obj
 0001:000235c0       sf_opaque_enable_c4_SpeedgoatCANOpen2Buses100us 00000001800245c0 f   c4_SpeedgoatCANOpen2Buses100us.obj
 0001:000235e0       sf_opaque_disable_c4_SpeedgoatCANOpen2Buses100us 00000001800245e0 f   c4_SpeedgoatCANOpen2Buses100us.obj
 0001:00023600       sf_opaque_gateway_c4_SpeedgoatCANOpen2Buses100us 0000000180024600 f   c4_SpeedgoatCANOpen2Buses100us.obj
 0001:00023620       sf_opaque_ext_mode_exec_c4_SpeedgoatCANOpen2Buses100us 0000000180024620 f   c4_SpeedgoatCANOpen2Buses100us.obj
 0001:00023640       sf_opaque_get_sim_state_c4_SpeedgoatCANOpen2Buses100us 0000000180024640 f   c4_SpeedgoatCANOpen2Buses100us.obj
 0001:00023670       sf_opaque_set_sim_state_c4_SpeedgoatCANOpen2Buses100us 0000000180024670 f   c4_SpeedgoatCANOpen2Buses100us.obj
 0001:000236a0       sf_opaque_terminate_c4_SpeedgoatCANOpen2Buses100us 00000001800246a0 f   c4_SpeedgoatCANOpen2Buses100us.obj
 0001:00023740       mdlProcessParameters_c4_SpeedgoatCANOpen2Buses100us 0000000180024740 f   c4_SpeedgoatCANOpen2Buses100us.obj
 0001:00023810       sf_set_sfun_dwork_info     0000000180024810 f   c4_SpeedgoatCANOpen2Buses100us.obj
 0001:00023850       mdlSetWorkWidths_c4_SpeedgoatCANOpen2Buses100us 0000000180024850 f   c4_SpeedgoatCANOpen2Buses100us.obj
 0001:00023f30       mdlRTW_c4_SpeedgoatCANOpen2Buses100us 0000000180024f30 f   c4_SpeedgoatCANOpen2Buses100us.obj
 0001:00023f70       mdlStart_c4_SpeedgoatCANOpen2Buses100us 0000000180024f70 f   c4_SpeedgoatCANOpen2Buses100us.obj
 0001:000243b0       chart_debug_initialization 00000001800253b0 f   c5_SpeedgoatCANOpen2Buses100us.obj
 0001:00024f90       chart_debug_initialize_data_addresses 0000000180025f90 f   c5_SpeedgoatCANOpen2Buses100us.obj
 0001:000250d0       sf_opaque_get_hover_data_for_msg 00000001800260d0 f   c5_SpeedgoatCANOpen2Buses100us.obj
 0001:00025100       initialize_c5_SpeedgoatCANOpen2Buses100us 0000000180026100 f   c5_SpeedgoatCANOpen2Buses100us.obj
 0001:000251d0       initialize_params_c5_SpeedgoatCANOpen2Buses100us 00000001800261d0 f   c5_SpeedgoatCANOpen2Buses100us.obj
 0001:000251e0       enable_c5_SpeedgoatCANOpen2Buses100us 00000001800261e0 f   c5_SpeedgoatCANOpen2Buses100us.obj
 0001:00025210       disable_c5_SpeedgoatCANOpen2Buses100us 0000000180026210 f   c5_SpeedgoatCANOpen2Buses100us.obj
 0001:00025240       c5_update_debugger_state_c5_SpeedgoatCANOpen2Buses100us 0000000180026240 f   c5_SpeedgoatCANOpen2Buses100us.obj
 0001:000255f0       ext_mode_exec_c5_SpeedgoatCANOpen2Buses100us 00000001800265f0 f   c5_SpeedgoatCANOpen2Buses100us.obj
 0001:00025610       get_sim_state_c5_SpeedgoatCANOpen2Buses100us 0000000180026610 f   c5_SpeedgoatCANOpen2Buses100us.obj
 0001:00025920       set_sim_state_c5_SpeedgoatCANOpen2Buses100us 0000000180026920 f   c5_SpeedgoatCANOpen2Buses100us.obj
 0001:00025af0       c5_set_sim_state_side_effects_c5_SpeedgoatCANOpen2Buses100us 0000000180026af0 f   c5_SpeedgoatCANOpen2Buses100us.obj
 0001:00025b80       finalize_c5_SpeedgoatCANOpen2Buses100us 0000000180026b80 f   c5_SpeedgoatCANOpen2Buses100us.obj
 0001:00025bb0       sf_gateway_c5_SpeedgoatCANOpen2Buses100us 0000000180026bb0 f   c5_SpeedgoatCANOpen2Buses100us.obj
 0001:00027150       mdl_start_c5_SpeedgoatCANOpen2Buses100us 0000000180028150 f   c5_SpeedgoatCANOpen2Buses100us.obj
 0001:00027180       initSimStructsc5_SpeedgoatCANOpen2Buses100us 0000000180028180 f   c5_SpeedgoatCANOpen2Buses100us.obj
 0001:00027190       init_script_number_translation 0000000180028190 f   c5_SpeedgoatCANOpen2Buses100us.obj
 0001:000271b0       c5_sf_marshallOut          00000001800281b0 f   c5_SpeedgoatCANOpen2Buses100us.obj
 0001:00027260       c5_emlrt_marshallIn        0000000180028260 f   c5_SpeedgoatCANOpen2Buses100us.obj
 0001:000272f0       c5_sf_marshallIn           00000001800282f0 f   c5_SpeedgoatCANOpen2Buses100us.obj
 0001:000273a0       c5_b_sf_marshallOut        00000001800283a0 f   c5_SpeedgoatCANOpen2Buses100us.obj
 0001:00027450       c5_b_emlrt_marshallIn      0000000180028450 f   c5_SpeedgoatCANOpen2Buses100us.obj
 0001:000274e0       c5_b_sf_marshallIn         00000001800284e0 f   c5_SpeedgoatCANOpen2Buses100us.obj
 0001:00027590       c5_d_sf_marshallOut        0000000180028590 f   c5_SpeedgoatCANOpen2Buses100us.obj
 0001:00027650       c5_d_emlrt_marshallIn      0000000180028650 f   c5_SpeedgoatCANOpen2Buses100us.obj
 0001:000276c0       c5_e_emlrt_marshallIn      00000001800286c0 f   c5_SpeedgoatCANOpen2Buses100us.obj
 0001:00027750       c5_d_sf_marshallIn         0000000180028750 f   c5_SpeedgoatCANOpen2Buses100us.obj
 0001:00027800       c5_f_emlrt_marshallIn      0000000180028800 f   c5_SpeedgoatCANOpen2Buses100us.obj
 0001:00027870       c5_g_emlrt_marshallIn      0000000180028870 f   c5_SpeedgoatCANOpen2Buses100us.obj
 0001:00027900       c5_h_emlrt_marshallIn      0000000180028900 f   c5_SpeedgoatCANOpen2Buses100us.obj
 0001:00027970       c5_i_emlrt_marshallIn      0000000180028970 f   c5_SpeedgoatCANOpen2Buses100us.obj
 0001:00027a00       c5_j_emlrt_marshallIn      0000000180028a00 f   c5_SpeedgoatCANOpen2Buses100us.obj
 0001:00027a70       c5_k_emlrt_marshallIn      0000000180028a70 f   c5_SpeedgoatCANOpen2Buses100us.obj
 0001:00027b20       c5_l_emlrt_marshallIn      0000000180028b20 f   c5_SpeedgoatCANOpen2Buses100us.obj
 0001:00027bb0       c5_m_emlrt_marshallIn      0000000180028bb0 f   c5_SpeedgoatCANOpen2Buses100us.obj
 0001:00027c10       sf_get_hover_data_for_msg  0000000180028c10 f   c5_SpeedgoatCANOpen2Buses100us.obj
 0001:00027c30       c5_init_sf_message_store_memory 0000000180028c30 f   c5_SpeedgoatCANOpen2Buses100us.obj
 0001:00027c40       init_dsm_address_info      0000000180028c40 f   c5_SpeedgoatCANOpen2Buses100us.obj
 0001:00027c50       init_simulink_io_address   0000000180028c50 f   c5_SpeedgoatCANOpen2Buses100us.obj
 0001:00027d50       sf_get_sfun_dwork_checksum 0000000180028d50 f   c5_SpeedgoatCANOpen2Buses100us.obj
 0001:000285b0       sf_get_sim_state_info_c5_SpeedgoatCANOpen2Buses100us 00000001800295b0 f   c5_SpeedgoatCANOpen2Buses100us.obj
 0001:00028680       sf_get_instance_specialization 0000000180029680 f   c5_SpeedgoatCANOpen2Buses100us.obj
 0001:00028690       sf_check_dwork_consistency 0000000180029690 f   c5_SpeedgoatCANOpen2Buses100us.obj
 0001:00028810       sf_opaque_initialize_c5_SpeedgoatCANOpen2Buses100us 0000000180029810 f   c5_SpeedgoatCANOpen2Buses100us.obj
 0001:00028860       sf_opaque_enable_c5_SpeedgoatCANOpen2Buses100us 0000000180029860 f   c5_SpeedgoatCANOpen2Buses100us.obj
 0001:00028880       sf_opaque_disable_c5_SpeedgoatCANOpen2Buses100us 0000000180029880 f   c5_SpeedgoatCANOpen2Buses100us.obj
 0001:000288a0       sf_opaque_gateway_c5_SpeedgoatCANOpen2Buses100us 00000001800298a0 f   c5_SpeedgoatCANOpen2Buses100us.obj
 0001:000288c0       sf_opaque_ext_mode_exec_c5_SpeedgoatCANOpen2Buses100us 00000001800298c0 f   c5_SpeedgoatCANOpen2Buses100us.obj
 0001:000288e0       sf_opaque_get_sim_state_c5_SpeedgoatCANOpen2Buses100us 00000001800298e0 f   c5_SpeedgoatCANOpen2Buses100us.obj
 0001:00028910       sf_opaque_set_sim_state_c5_SpeedgoatCANOpen2Buses100us 0000000180029910 f   c5_SpeedgoatCANOpen2Buses100us.obj
 0001:00028940       sf_opaque_terminate_c5_SpeedgoatCANOpen2Buses100us 0000000180029940 f   c5_SpeedgoatCANOpen2Buses100us.obj
 0001:000289e0       mdlProcessParameters_c5_SpeedgoatCANOpen2Buses100us 00000001800299e0 f   c5_SpeedgoatCANOpen2Buses100us.obj
 0001:00028ab0       sf_set_sfun_dwork_info     0000000180029ab0 f   c5_SpeedgoatCANOpen2Buses100us.obj
 0001:00028af0       mdlSetWorkWidths_c5_SpeedgoatCANOpen2Buses100us 0000000180029af0 f   c5_SpeedgoatCANOpen2Buses100us.obj
 0001:00029220       mdlRTW_c5_SpeedgoatCANOpen2Buses100us 000000018002a220 f   c5_SpeedgoatCANOpen2Buses100us.obj
 0001:00029260       mdlStart_c5_SpeedgoatCANOpen2Buses100us 000000018002a260 f   c5_SpeedgoatCANOpen2Buses100us.obj
 0001:000296a0       chart_debug_initialization 000000018002a6a0 f   c12_SpeedgoatCANOpen2Buses100us.obj
 0001:0002b650       chart_debug_initialize_data_addresses 000000018002c650 f   c12_SpeedgoatCANOpen2Buses100us.obj
 0001:0002b960       sf_opaque_get_hover_data_for_msg 000000018002c960 f   c12_SpeedgoatCANOpen2Buses100us.obj
 0001:0002b990       initialize_c12_SpeedgoatCANOpen2Buses100us 000000018002c990 f   c12_SpeedgoatCANOpen2Buses100us.obj
 0001:0002ba50       initialize_params_c12_SpeedgoatCANOpen2Buses100us 000000018002ca50 f   c12_SpeedgoatCANOpen2Buses100us.obj
 0001:0002ba60       enable_c12_SpeedgoatCANOpen2Buses100us 000000018002ca60 f   c12_SpeedgoatCANOpen2Buses100us.obj
 0001:0002ba90       disable_c12_SpeedgoatCANOpen2Buses100us 000000018002ca90 f   c12_SpeedgoatCANOpen2Buses100us.obj
 0001:0002bac0       c12_update_debugger_state_c12_SpeedgoatCANOpen2Buses100us 000000018002cac0 f   c12_SpeedgoatCANOpen2Buses100us.obj
 0001:0002c0e0       ext_mode_exec_c12_SpeedgoatCANOpen2Buses100us 000000018002d0e0 f   c12_SpeedgoatCANOpen2Buses100us.obj
 0001:0002c100       get_sim_state_c12_SpeedgoatCANOpen2Buses100us 000000018002d100 f   c12_SpeedgoatCANOpen2Buses100us.obj
 0001:0002c700       set_sim_state_c12_SpeedgoatCANOpen2Buses100us 000000018002d700 f   c12_SpeedgoatCANOpen2Buses100us.obj
 0001:0002ca30       c12_set_sim_state_side_effects_c12_SpeedgoatCANOpen2Buses100us 000000018002da30 f   c12_SpeedgoatCANOpen2Buses100us.obj
 0001:0002ca60       finalize_c12_SpeedgoatCANOpen2Buses100us 000000018002da60 f   c12_SpeedgoatCANOpen2Buses100us.obj
 0001:0002ca90       sf_gateway_c12_SpeedgoatCANOpen2Buses100us 000000018002da90 f   c12_SpeedgoatCANOpen2Buses100us.obj
 0001:0002cc40       mdl_start_c12_SpeedgoatCANOpen2Buses100us 000000018002dc40 f   c12_SpeedgoatCANOpen2Buses100us.obj
 0001:0002cc70       c12_chartstep_c12_SpeedgoatCANOpen2Buses100us 000000018002dc70 f   c12_SpeedgoatCANOpen2Buses100us.obj
 0001:00030440       initSimStructsc12_SpeedgoatCANOpen2Buses100us 0000000180031440 f   c12_SpeedgoatCANOpen2Buses100us.obj
 0001:00030450       c12_enter_atomic_Init      0000000180031450 f   c12_SpeedgoatCANOpen2Buses100us.obj
 0001:000307b0       init_script_number_translation 00000001800317b0 f   c12_SpeedgoatCANOpen2Buses100us.obj
 0001:000307d0       c12_sf_marshallOut         00000001800317d0 f   c12_SpeedgoatCANOpen2Buses100us.obj
 0001:00030880       c12_emlrt_marshallIn       0000000180031880 f   c12_SpeedgoatCANOpen2Buses100us.obj
 0001:00030910       c12_sf_marshallIn          0000000180031910 f   c12_SpeedgoatCANOpen2Buses100us.obj
 0001:000309c0       c12_b_sf_marshallOut       00000001800319c0 f   c12_SpeedgoatCANOpen2Buses100us.obj
 0001:00030a70       c12_b_emlrt_marshallIn     0000000180031a70 f   c12_SpeedgoatCANOpen2Buses100us.obj
 0001:00030b00       c12_b_sf_marshallIn        0000000180031b00 f   c12_SpeedgoatCANOpen2Buses100us.obj
 0001:00030bb0       c12_d_sf_marshallOut       0000000180031bb0 f   c12_SpeedgoatCANOpen2Buses100us.obj
 0001:00030c70       c12_d_emlrt_marshallIn     0000000180031c70 f   c12_SpeedgoatCANOpen2Buses100us.obj
 0001:00030ce0       c12_e_emlrt_marshallIn     0000000180031ce0 f   c12_SpeedgoatCANOpen2Buses100us.obj
 0001:00030d70       c12_d_sf_marshallIn        0000000180031d70 f   c12_SpeedgoatCANOpen2Buses100us.obj
 0001:00030e20       c12_f_emlrt_marshallIn     0000000180031e20 f   c12_SpeedgoatCANOpen2Buses100us.obj
 0001:00030e90       c12_g_emlrt_marshallIn     0000000180031e90 f   c12_SpeedgoatCANOpen2Buses100us.obj
 0001:00030f20       c12_h_emlrt_marshallIn     0000000180031f20 f   c12_SpeedgoatCANOpen2Buses100us.obj
 0001:00030f90       c12_i_emlrt_marshallIn     0000000180031f90 f   c12_SpeedgoatCANOpen2Buses100us.obj
 0001:00031070       c12_j_emlrt_marshallIn     0000000180032070 f   c12_SpeedgoatCANOpen2Buses100us.obj
 0001:00031100       c12_k_emlrt_marshallIn     0000000180032100 f   c12_SpeedgoatCANOpen2Buses100us.obj
 0001:00031160       sf_get_hover_data_for_msg  0000000180032160 f   c12_SpeedgoatCANOpen2Buses100us.obj
 0001:00031180       c12_init_sf_message_store_memory 0000000180032180 f   c12_SpeedgoatCANOpen2Buses100us.obj
 0001:00031190       init_dsm_address_info      0000000180032190 f   c12_SpeedgoatCANOpen2Buses100us.obj
 0001:000311a0       init_simulink_io_address   00000001800321a0 f   c12_SpeedgoatCANOpen2Buses100us.obj
 0001:00031330       sf_get_sfun_dwork_checksum 0000000180032330 f   c12_SpeedgoatCANOpen2Buses100us.obj
 0001:00032360       sf_get_sim_state_info_c12_SpeedgoatCANOpen2Buses100us 0000000180033360 f   c12_SpeedgoatCANOpen2Buses100us.obj
 0001:00032430       sf_get_instance_specialization 0000000180033430 f   c12_SpeedgoatCANOpen2Buses100us.obj
 0001:00032440       sf_check_dwork_consistency 0000000180033440 f   c12_SpeedgoatCANOpen2Buses100us.obj
 0001:000325c0       sf_opaque_initialize_c12_SpeedgoatCANOpen2Buses100us 00000001800335c0 f   c12_SpeedgoatCANOpen2Buses100us.obj
 0001:00032610       sf_opaque_enable_c12_SpeedgoatCANOpen2Buses100us 0000000180033610 f   c12_SpeedgoatCANOpen2Buses100us.obj
 0001:00032630       sf_opaque_disable_c12_SpeedgoatCANOpen2Buses100us 0000000180033630 f   c12_SpeedgoatCANOpen2Buses100us.obj
 0001:00032650       sf_opaque_gateway_c12_SpeedgoatCANOpen2Buses100us 0000000180033650 f   c12_SpeedgoatCANOpen2Buses100us.obj
 0001:00032670       sf_opaque_ext_mode_exec_c12_SpeedgoatCANOpen2Buses100us 0000000180033670 f   c12_SpeedgoatCANOpen2Buses100us.obj
 0001:00032690       sf_opaque_get_sim_state_c12_SpeedgoatCANOpen2Buses100us 0000000180033690 f   c12_SpeedgoatCANOpen2Buses100us.obj
 0001:000326c0       sf_opaque_set_sim_state_c12_SpeedgoatCANOpen2Buses100us 00000001800336c0 f   c12_SpeedgoatCANOpen2Buses100us.obj
 0001:000326f0       sf_opaque_terminate_c12_SpeedgoatCANOpen2Buses100us 00000001800336f0 f   c12_SpeedgoatCANOpen2Buses100us.obj
 0001:00032790       mdlProcessParameters_c12_SpeedgoatCANOpen2Buses100us 0000000180033790 f   c12_SpeedgoatCANOpen2Buses100us.obj
 0001:00032860       sf_set_sfun_dwork_info     0000000180033860 f   c12_SpeedgoatCANOpen2Buses100us.obj
 0001:000328a0       mdlSetWorkWidths_c12_SpeedgoatCANOpen2Buses100us 00000001800338a0 f   c12_SpeedgoatCANOpen2Buses100us.obj
 0001:00032fd0       mdlRTW_c12_SpeedgoatCANOpen2Buses100us 0000000180033fd0 f   c12_SpeedgoatCANOpen2Buses100us.obj
 0001:00033010       mdlStart_c12_SpeedgoatCANOpen2Buses100us 0000000180034010 f   c12_SpeedgoatCANOpen2Buses100us.obj
 0001:0003577c       $LN180                     000000018003677c     SpeedgoatCANOpen2Buses100us_sfun_registry.obj
 0001:00036564       $LN17                      0000000180037564     SpeedgoatCANOpen2Buses100us_sfun_registry.obj
 0001:00036c64       $LN26                      0000000180037c64     SpeedgoatCANOpen2Buses100us_sfun_registry.obj
 0001:00037344       $LN23                      0000000180038344     SpeedgoatCANOpen2Buses100us_sfun_registry.obj
 0001:00037efc       $LN26                      0000000180038efc     SpeedgoatCANOpen2Buses100us_sfun_registry.obj
 0001:0003a900       sf_debug_api_wrapper       000000018003b900 f   SpeedgoatCANOpen2Buses100us_sfun_registry.obj
 0001:0003a950       ProcessMexSfunctionCmdLineCall 000000018003b950 f   SpeedgoatCANOpen2Buses100us_sfun_registry.obj
 0001:0003acf0       mdlSetWorkWidths           000000018003bcf0 f   SpeedgoatCANOpen2Buses100us_sfun_registry.obj
 0001:0003ad40       mdlProcessParameters       000000018003bd40 f   SpeedgoatCANOpen2Buses100us_sfun_registry.obj
 0001:0003ad70       mdl_start_processing       000000018003bd70 f   SpeedgoatCANOpen2Buses100us_sfun_registry.obj
 0001:0003add0       mdl_terminate_processing   000000018003bdd0 f   SpeedgoatCANOpen2Buses100us_sfun_registry.obj
 0001:0003ae90       mdlStart                   000000018003be90 f   SpeedgoatCANOpen2Buses100us_sfun_registry.obj
 0001:0003aec0       mdlTerminate               000000018003bec0 f   SpeedgoatCANOpen2Buses100us_sfun_registry.obj
 0001:0003aef0       mdlInitializeSizes         000000018003bef0 f   SpeedgoatCANOpen2Buses100us_sfun_registry.obj
 0001:0003af20       mdlInitializeSampleTimes   000000018003bf20 f   SpeedgoatCANOpen2Buses100us_sfun_registry.obj
 0001:0003af50       mdl_outputs_continuous_legacy 000000018003bf50 f   SpeedgoatCANOpen2Buses100us_sfun_registry.obj
 0001:0003b050       mdl_outputs_processing     000000018003c050 f   SpeedgoatCANOpen2Buses100us_sfun_registry.obj
 0001:0003b170       mdl_zeroCrossings_processing 000000018003c170 f   SpeedgoatCANOpen2Buses100us_sfun_registry.obj
 0001:0003b1b0       mdlZeroCrossings           000000018003c1b0 f   SpeedgoatCANOpen2Buses100us_sfun_registry.obj
 0001:0003b1e0       mdl_derivatives_processing 000000018003c1e0 f   SpeedgoatCANOpen2Buses100us_sfun_registry.obj
 0001:0003b230       mdlDerivatives             000000018003c230 f   SpeedgoatCANOpen2Buses100us_sfun_registry.obj
 0001:0003b260       mdl_initialize_conditions_processing 000000018003c260 f   SpeedgoatCANOpen2Buses100us_sfun_registry.obj
 0001:0003b2b0       mdlInitializeConditions    000000018003c2b0 f   SpeedgoatCANOpen2Buses100us_sfun_registry.obj
 0001:0003b2e0       mdl_ext_mode_exec_processing 000000018003c2e0 f   SpeedgoatCANOpen2Buses100us_sfun_registry.obj
 0001:0003b320       mdlExtModeExec             000000018003c320 f   SpeedgoatCANOpen2Buses100us_sfun_registry.obj
 0001:0003b350       mdlRTW                     000000018003c350 f   SpeedgoatCANOpen2Buses100us_sfun_registry.obj
 0001:0003b390       mdl_enable_processing      000000018003c390 f   SpeedgoatCANOpen2Buses100us_sfun_registry.obj
 0001:0003b3d0       mdlEnable                  000000018003c3d0 f   SpeedgoatCANOpen2Buses100us_sfun_registry.obj
 0001:0003b400       mdl_disable_processing     000000018003c400 f   SpeedgoatCANOpen2Buses100us_sfun_registry.obj
 0001:0003b440       mdlDisable                 000000018003c440 f   SpeedgoatCANOpen2Buses100us_sfun_registry.obj
 0001:0003b470       mdlOutputs                 000000018003c470 f   SpeedgoatCANOpen2Buses100us_sfun_registry.obj
 0001:0003b4a0       mdl_update_processing      000000018003c4a0 f   SpeedgoatCANOpen2Buses100us_sfun_registry.obj
 0001:0003b4f0       mdlUpdate                  000000018003c4f0 f   SpeedgoatCANOpen2Buses100us_sfun_registry.obj
 0001:0003b6d0       mdlGetTimeOfNextVarHit     000000018003c6d0 f   SpeedgoatCANOpen2Buses100us_sfun_registry.obj
 0001:0003b720       _RegNumInputPortsCB        000000018003c720 f   SpeedgoatCANOpen2Buses100us_sfun_registry.obj
 0001:0003b7a0       _RegNumOutputPortsCB       000000018003c7a0 f   SpeedgoatCANOpen2Buses100us_sfun_registry.obj
 0001:0003b820       _CreateSimStruct           000000018003c820 f   SpeedgoatCANOpen2Buses100us_sfun_registry.obj
 0001:0003ba20       _ProcessMexSfunctionCmdLineCall 000000018003ca20 f   SpeedgoatCANOpen2Buses100us_sfun_registry.obj
 0001:0003c460       ReportIndexOutOfBoundsError 000000018003d460 f   SpeedgoatCANOpen2Buses100us_sfun_registry.obj
 0001:0003ccf8       capture_current_context    000000018003dcf8 f   MSVCRT:gs_report.obj
 0001:0003cd68       capture_previous_context   000000018003dd68 f   MSVCRT:gs_report.obj
 0001:0003ce60       $$000000                   000000018003de60     MSVCRT:amdsecgs.obj
 0001:0003ce94       ?dllmain_crt_dispatch@@YAHQEAUHINSTANCE__@@KQEAX@Z 000000018003de94 f   MSVCRT:dll_dllmain.obj
 0001:0003cee4       ?dllmain_crt_process_attach@@YAHQEAUHINSTANCE__@@QEAX@Z 000000018003dee4 f   MSVCRT:dll_dllmain.obj
 0001:0003d000       ?dllmain_crt_process_detach@@YAH_N@Z 000000018003e000 f   MSVCRT:dll_dllmain.obj
 0001:0003d090       ?dllmain_dispatch@@YAHQEAUHINSTANCE__@@KQEAX@Z 000000018003e090 f   MSVCRT:dll_dllmain.obj
 0001:0003d1c4       ?dllmain_raw@@YAHQEAUHINSTANCE__@@KQEAX@Z 000000018003e1c4 f   MSVCRT:dll_dllmain.obj
 0001:0003d228       __get_entropy              000000018003e228 f   MSVCRT:gs_support.obj
 0001:0003d3fc       ?find_pe_section@@YAPEAU_IMAGE_SECTION_HEADER@@QEAE_K@Z 000000018003e3fc f   MSVCRT:utility.obj
 0001:0003d450       ?is_potentially_valid_image_base@@YA_NQEAX@Z 000000018003e450 f   MSVCRT:utility.obj
 0001:0003de20       $$000000                   000000018003ee20     MSVCRT:guard_dispatch.obj
 0001:0003de32       ?fin$0@?0??dllmain_crt_process_attach@@YAHQEAUHINSTANCE__@@QEAX@Z@4HA 000000018003ee32 f   MSVCRT:dll_dllmain.obj
 0001:0003de49       ?fin$0@?0??dllmain_crt_process_detach@@YAH_N@Z@4HA 000000018003ee49 f   MSVCRT:dll_dllmain.obj
 0001:0003de65       ?filt$0@?0??dllmain_dispatch@@YAHQEAUHINSTANCE__@@KQEAX@Z@4HA 000000018003ee65 f   MSVCRT:dll_dllmain.obj
 0001:0003de9b       __scrt_is_nonwritable_in_current_image$filt$0 000000018003ee9b f   MSVCRT:utility.obj
 0002:00000720       GS_ExceptionPointers       000000018003f720     MSVCRT:gs_report.obj
 0002:00000a98       $unwind$load_SpeedgoatCANOpen2Buses100us_optimization_info 000000018003fa98     SpeedgoatCANOpen2Buses100us_sfun.obj
 0002:00000aa0       $unwind$unload_SpeedgoatCANOpen2Buses100us_optimization_info 000000018003faa0     SpeedgoatCANOpen2Buses100us_sfun.obj
 0002:00000aa8       $unwind$sf_SpeedgoatCANOpen2Buses100us_method_dispatcher 000000018003faa8     SpeedgoatCANOpen2Buses100us_sfun.obj
 0002:00000ab0       $unwind$sf_SpeedgoatCANOpen2Buses100us_process_testpoint_info_call 000000018003fab0     SpeedgoatCANOpen2Buses100us_sfun.obj
 0002:00000ac0       $unwind$sf_SpeedgoatCANOpen2Buses100us_process_check_sum_call 000000018003fac0     SpeedgoatCANOpen2Buses100us_sfun.obj
 0002:00000ad0       $unwind$sf_SpeedgoatCANOpen2Buses100us_autoinheritance_info 000000018003fad0     SpeedgoatCANOpen2Buses100us_sfun.obj
 0002:00000ae0       $unwind$sf_SpeedgoatCANOpen2Buses100us_get_eml_resolved_functions_info 000000018003fae0     SpeedgoatCANOpen2Buses100us_sfun.obj
 0002:00000af0       $unwind$sf_SpeedgoatCANOpen2Buses100us_third_party_uses_info 000000018003faf0     SpeedgoatCANOpen2Buses100us_sfun.obj
 0002:00000b00       $unwind$sf_SpeedgoatCANOpen2Buses100us_jit_fallback_info 000000018003fb00     SpeedgoatCANOpen2Buses100us_sfun.obj
 0002:00000b10       $unwind$sf_SpeedgoatCANOpen2Buses100us_updateBuildInfo_args_info 000000018003fb10     SpeedgoatCANOpen2Buses100us_sfun.obj
 0002:00000b20       $unwind$SpeedgoatCANOpen2Buses100us_debug_initialize 000000018003fb20     SpeedgoatCANOpen2Buses100us_sfun.obj
 0002:00000b28       $unwind$sf_c1_SpeedgoatCANOpen2Buses100us_get_eml_resolved_functions_info 000000018003fb28     c1_SpeedgoatCANOpen2Buses100us.obj
 0002:00000b30       $unwind$sf_c1_SpeedgoatCANOpen2Buses100us_get_check_sum 000000018003fb30     c1_SpeedgoatCANOpen2Buses100us.obj
 0002:00000b38       $unwind$c1_SpeedgoatCANOpen2Buses100us_method_dispatcher 000000018003fb38     c1_SpeedgoatCANOpen2Buses100us.obj
 0002:00000b40       $unwind$chart_debug_initialization 000000018003fb40     c1_SpeedgoatCANOpen2Buses100us.obj
 0002:00000b48       $unwind$chart_debug_initialize_data_addresses 000000018003fb48     c1_SpeedgoatCANOpen2Buses100us.obj
 0002:00000b50       $unwind$sf_opaque_get_hover_data_for_msg 000000018003fb50     c1_SpeedgoatCANOpen2Buses100us.obj
 0002:00000b58       $unwind$initialize_c1_SpeedgoatCANOpen2Buses100us 000000018003fb58     c1_SpeedgoatCANOpen2Buses100us.obj
 0002:00000b60       $unwind$enable_c1_SpeedgoatCANOpen2Buses100us 000000018003fb60     c1_SpeedgoatCANOpen2Buses100us.obj
 0002:00000b68       $unwind$disable_c1_SpeedgoatCANOpen2Buses100us 000000018003fb68     c1_SpeedgoatCANOpen2Buses100us.obj
 0002:00000b70       $unwind$c1_update_debugger_state_c1_SpeedgoatCANOpen2Buses100us 000000018003fb70     c1_SpeedgoatCANOpen2Buses100us.obj
 0002:00000b78       $unwind$ext_mode_exec_c1_SpeedgoatCANOpen2Buses100us 000000018003fb78     c1_SpeedgoatCANOpen2Buses100us.obj
 0002:00000b80       $unwind$get_sim_state_c1_SpeedgoatCANOpen2Buses100us 000000018003fb80     c1_SpeedgoatCANOpen2Buses100us.obj
 0002:00000b88       $unwind$set_sim_state_c1_SpeedgoatCANOpen2Buses100us 000000018003fb88     c1_SpeedgoatCANOpen2Buses100us.obj
 0002:00000b98       $unwind$finalize_c1_SpeedgoatCANOpen2Buses100us 000000018003fb98     c1_SpeedgoatCANOpen2Buses100us.obj
 0002:00000ba0       $unwind$sf_gateway_c1_SpeedgoatCANOpen2Buses100us 000000018003fba0     c1_SpeedgoatCANOpen2Buses100us.obj
 0002:00000ba8       $unwind$mdl_start_c1_SpeedgoatCANOpen2Buses100us 000000018003fba8     c1_SpeedgoatCANOpen2Buses100us.obj
 0002:00000bb0       $unwind$c1_chartstep_c1_SpeedgoatCANOpen2Buses100us 000000018003fbb0     c1_SpeedgoatCANOpen2Buses100us.obj
 0002:00000bc0       $unwind$c1_enter_atomic_Init 000000018003fbc0     c1_SpeedgoatCANOpen2Buses100us.obj
 0002:00000bc8       $unwind$c1_sf_marshallOut  000000018003fbc8     c1_SpeedgoatCANOpen2Buses100us.obj
 0002:00000bd0       $unwind$c1_emlrt_marshallIn 000000018003fbd0     c1_SpeedgoatCANOpen2Buses100us.obj
 0002:00000bd8       $unwind$c1_sf_marshallIn   000000018003fbd8     c1_SpeedgoatCANOpen2Buses100us.obj
 0002:00000be0       $unwind$c1_b_sf_marshallOut 000000018003fbe0     c1_SpeedgoatCANOpen2Buses100us.obj
 0002:00000be8       $unwind$c1_b_emlrt_marshallIn 000000018003fbe8     c1_SpeedgoatCANOpen2Buses100us.obj
 0002:00000bf0       $unwind$c1_b_sf_marshallIn 000000018003fbf0     c1_SpeedgoatCANOpen2Buses100us.obj
 0002:00000bf8       $unwind$c1_d_sf_marshallOut 000000018003fbf8     c1_SpeedgoatCANOpen2Buses100us.obj
 0002:00000c00       $unwind$c1_d_emlrt_marshallIn 000000018003fc00     c1_SpeedgoatCANOpen2Buses100us.obj
 0002:00000c08       $unwind$c1_e_emlrt_marshallIn 000000018003fc08     c1_SpeedgoatCANOpen2Buses100us.obj
 0002:00000c10       $unwind$c1_d_sf_marshallIn 000000018003fc10     c1_SpeedgoatCANOpen2Buses100us.obj
 0002:00000c18       $unwind$c1_f_emlrt_marshallIn 000000018003fc18     c1_SpeedgoatCANOpen2Buses100us.obj
 0002:00000c20       $unwind$c1_g_emlrt_marshallIn 000000018003fc20     c1_SpeedgoatCANOpen2Buses100us.obj
 0002:00000c28       $unwind$c1_h_emlrt_marshallIn 000000018003fc28     c1_SpeedgoatCANOpen2Buses100us.obj
 0002:00000c30       $unwind$c1_i_emlrt_marshallIn 000000018003fc30     c1_SpeedgoatCANOpen2Buses100us.obj
 0002:00000c40       $unwind$c1_j_emlrt_marshallIn 000000018003fc40     c1_SpeedgoatCANOpen2Buses100us.obj
 0002:00000c48       $unwind$c1_k_emlrt_marshallIn 000000018003fc48     c1_SpeedgoatCANOpen2Buses100us.obj
 0002:00000c50       $unwind$init_simulink_io_address 000000018003fc50     c1_SpeedgoatCANOpen2Buses100us.obj
 0002:00000c58       $unwind$sf_c1_SpeedgoatCANOpen2Buses100us_get_post_codegen_info 000000018003fc58     c1_SpeedgoatCANOpen2Buses100us.obj
 0002:00000c60       $unwind$sf_c1_SpeedgoatCANOpen2Buses100us_get_autoinheritance_info 000000018003fc60     c1_SpeedgoatCANOpen2Buses100us.obj
 0002:00000c70       $unwind$sf_c1_SpeedgoatCANOpen2Buses100us_third_party_uses_info 000000018003fc70     c1_SpeedgoatCANOpen2Buses100us.obj
 0002:00000c78       $unwind$sf_c1_SpeedgoatCANOpen2Buses100us_jit_fallback_info 000000018003fc78     c1_SpeedgoatCANOpen2Buses100us.obj
 0002:00000c88       $unwind$sf_c1_SpeedgoatCANOpen2Buses100us_updateBuildInfo_args_info 000000018003fc88     c1_SpeedgoatCANOpen2Buses100us.obj
 0002:00000c90       $unwind$sf_get_sim_state_info_c1_SpeedgoatCANOpen2Buses100us 000000018003fc90     c1_SpeedgoatCANOpen2Buses100us.obj
 0002:00000c98       $unwind$sf_check_dwork_consistency 000000018003fc98     c1_SpeedgoatCANOpen2Buses100us.obj
 0002:00000ca0       $unwind$sf_opaque_initialize_c1_SpeedgoatCANOpen2Buses100us 000000018003fca0     c1_SpeedgoatCANOpen2Buses100us.obj
 0002:00000ca8       $unwind$sf_opaque_enable_c1_SpeedgoatCANOpen2Buses100us 000000018003fca8     c1_SpeedgoatCANOpen2Buses100us.obj
 0002:00000cb0       $unwind$sf_opaque_disable_c1_SpeedgoatCANOpen2Buses100us 000000018003fcb0     c1_SpeedgoatCANOpen2Buses100us.obj
 0002:00000cb8       $unwind$sf_opaque_gateway_c1_SpeedgoatCANOpen2Buses100us 000000018003fcb8     c1_SpeedgoatCANOpen2Buses100us.obj
 0002:00000cc0       $unwind$sf_opaque_ext_mode_exec_c1_SpeedgoatCANOpen2Buses100us 000000018003fcc0     c1_SpeedgoatCANOpen2Buses100us.obj
 0002:00000cc8       $unwind$sf_opaque_get_sim_state_c1_SpeedgoatCANOpen2Buses100us 000000018003fcc8     c1_SpeedgoatCANOpen2Buses100us.obj
 0002:00000cd0       $unwind$sf_opaque_set_sim_state_c1_SpeedgoatCANOpen2Buses100us 000000018003fcd0     c1_SpeedgoatCANOpen2Buses100us.obj
 0002:00000cd8       $unwind$sf_opaque_terminate_c1_SpeedgoatCANOpen2Buses100us 000000018003fcd8     c1_SpeedgoatCANOpen2Buses100us.obj
 0002:00000ce0       $unwind$mdlProcessParameters_c1_SpeedgoatCANOpen2Buses100us 000000018003fce0     c1_SpeedgoatCANOpen2Buses100us.obj
 0002:00000ce8       $unwind$sf_set_sfun_dwork_info 000000018003fce8     c1_SpeedgoatCANOpen2Buses100us.obj
 0002:00000cf0       $unwind$mdlSetWorkWidths_c1_SpeedgoatCANOpen2Buses100us 000000018003fcf0     c1_SpeedgoatCANOpen2Buses100us.obj
 0002:00000cf8       $unwind$mdlRTW_c1_SpeedgoatCANOpen2Buses100us 000000018003fcf8     c1_SpeedgoatCANOpen2Buses100us.obj
 0002:00000d00       $unwind$mdlStart_c1_SpeedgoatCANOpen2Buses100us 000000018003fd00     c1_SpeedgoatCANOpen2Buses100us.obj
 0002:00000d08       $unwind$sf_c2_SpeedgoatCANOpen2Buses100us_get_eml_resolved_functions_info 000000018003fd08     c2_SpeedgoatCANOpen2Buses100us.obj
 0002:00000d10       $unwind$sf_c2_SpeedgoatCANOpen2Buses100us_get_check_sum 000000018003fd10     c2_SpeedgoatCANOpen2Buses100us.obj
 0002:00000d18       $unwind$c2_SpeedgoatCANOpen2Buses100us_method_dispatcher 000000018003fd18     c2_SpeedgoatCANOpen2Buses100us.obj
 0002:00000d20       $unwind$chart_debug_initialization 000000018003fd20     c2_SpeedgoatCANOpen2Buses100us.obj
 0002:00000d28       $unwind$chart_debug_initialize_data_addresses 000000018003fd28     c2_SpeedgoatCANOpen2Buses100us.obj
 0002:00000d30       $unwind$sf_opaque_get_hover_data_for_msg 000000018003fd30     c2_SpeedgoatCANOpen2Buses100us.obj
 0002:00000d38       $unwind$initialize_c2_SpeedgoatCANOpen2Buses100us 000000018003fd38     c2_SpeedgoatCANOpen2Buses100us.obj
 0002:00000d40       $unwind$enable_c2_SpeedgoatCANOpen2Buses100us 000000018003fd40     c2_SpeedgoatCANOpen2Buses100us.obj
 0002:00000d48       $unwind$disable_c2_SpeedgoatCANOpen2Buses100us 000000018003fd48     c2_SpeedgoatCANOpen2Buses100us.obj
 0002:00000d50       $unwind$c2_update_debugger_state_c2_SpeedgoatCANOpen2Buses100us 000000018003fd50     c2_SpeedgoatCANOpen2Buses100us.obj
 0002:00000d58       $unwind$ext_mode_exec_c2_SpeedgoatCANOpen2Buses100us 000000018003fd58     c2_SpeedgoatCANOpen2Buses100us.obj
 0002:00000d60       $unwind$get_sim_state_c2_SpeedgoatCANOpen2Buses100us 000000018003fd60     c2_SpeedgoatCANOpen2Buses100us.obj
 0002:00000d68       $unwind$set_sim_state_c2_SpeedgoatCANOpen2Buses100us 000000018003fd68     c2_SpeedgoatCANOpen2Buses100us.obj
 0002:00000d78       $unwind$finalize_c2_SpeedgoatCANOpen2Buses100us 000000018003fd78     c2_SpeedgoatCANOpen2Buses100us.obj
 0002:00000d80       $unwind$sf_gateway_c2_SpeedgoatCANOpen2Buses100us 000000018003fd80     c2_SpeedgoatCANOpen2Buses100us.obj
 0002:00000d88       $unwind$mdl_start_c2_SpeedgoatCANOpen2Buses100us 000000018003fd88     c2_SpeedgoatCANOpen2Buses100us.obj
 0002:00000d90       $unwind$c2_chartstep_c2_SpeedgoatCANOpen2Buses100us 000000018003fd90     c2_SpeedgoatCANOpen2Buses100us.obj
 0002:00000da0       $unwind$c2_enter_atomic_Init 000000018003fda0     c2_SpeedgoatCANOpen2Buses100us.obj
 0002:00000da8       $unwind$c2_sf_marshallOut  000000018003fda8     c2_SpeedgoatCANOpen2Buses100us.obj
 0002:00000db0       $unwind$c2_emlrt_marshallIn 000000018003fdb0     c2_SpeedgoatCANOpen2Buses100us.obj
 0002:00000db8       $unwind$c2_sf_marshallIn   000000018003fdb8     c2_SpeedgoatCANOpen2Buses100us.obj
 0002:00000dc0       $unwind$c2_b_sf_marshallOut 000000018003fdc0     c2_SpeedgoatCANOpen2Buses100us.obj
 0002:00000dc8       $unwind$c2_b_emlrt_marshallIn 000000018003fdc8     c2_SpeedgoatCANOpen2Buses100us.obj
 0002:00000dd0       $unwind$c2_b_sf_marshallIn 000000018003fdd0     c2_SpeedgoatCANOpen2Buses100us.obj
 0002:00000dd8       $unwind$c2_d_sf_marshallOut 000000018003fdd8     c2_SpeedgoatCANOpen2Buses100us.obj
 0002:00000de0       $unwind$c2_d_emlrt_marshallIn 000000018003fde0     c2_SpeedgoatCANOpen2Buses100us.obj
 0002:00000de8       $unwind$c2_e_emlrt_marshallIn 000000018003fde8     c2_SpeedgoatCANOpen2Buses100us.obj
 0002:00000df0       $unwind$c2_d_sf_marshallIn 000000018003fdf0     c2_SpeedgoatCANOpen2Buses100us.obj
 0002:00000df8       $unwind$c2_f_emlrt_marshallIn 000000018003fdf8     c2_SpeedgoatCANOpen2Buses100us.obj
 0002:00000e00       $unwind$c2_g_emlrt_marshallIn 000000018003fe00     c2_SpeedgoatCANOpen2Buses100us.obj
 0002:00000e08       $unwind$c2_h_emlrt_marshallIn 000000018003fe08     c2_SpeedgoatCANOpen2Buses100us.obj
 0002:00000e10       $unwind$c2_i_emlrt_marshallIn 000000018003fe10     c2_SpeedgoatCANOpen2Buses100us.obj
 0002:00000e20       $unwind$c2_j_emlrt_marshallIn 000000018003fe20     c2_SpeedgoatCANOpen2Buses100us.obj
 0002:00000e28       $unwind$c2_k_emlrt_marshallIn 000000018003fe28     c2_SpeedgoatCANOpen2Buses100us.obj
 0002:00000e30       $unwind$init_simulink_io_address 000000018003fe30     c2_SpeedgoatCANOpen2Buses100us.obj
 0002:00000e38       $unwind$sf_c2_SpeedgoatCANOpen2Buses100us_get_post_codegen_info 000000018003fe38     c2_SpeedgoatCANOpen2Buses100us.obj
 0002:00000e40       $unwind$sf_c2_SpeedgoatCANOpen2Buses100us_get_autoinheritance_info 000000018003fe40     c2_SpeedgoatCANOpen2Buses100us.obj
 0002:00000e50       $unwind$sf_c2_SpeedgoatCANOpen2Buses100us_third_party_uses_info 000000018003fe50     c2_SpeedgoatCANOpen2Buses100us.obj
 0002:00000e58       $unwind$sf_c2_SpeedgoatCANOpen2Buses100us_jit_fallback_info 000000018003fe58     c2_SpeedgoatCANOpen2Buses100us.obj
 0002:00000e68       $unwind$sf_c2_SpeedgoatCANOpen2Buses100us_updateBuildInfo_args_info 000000018003fe68     c2_SpeedgoatCANOpen2Buses100us.obj
 0002:00000e70       $unwind$sf_get_sim_state_info_c2_SpeedgoatCANOpen2Buses100us 000000018003fe70     c2_SpeedgoatCANOpen2Buses100us.obj
 0002:00000e78       $unwind$sf_check_dwork_consistency 000000018003fe78     c2_SpeedgoatCANOpen2Buses100us.obj
 0002:00000e80       $unwind$sf_opaque_initialize_c2_SpeedgoatCANOpen2Buses100us 000000018003fe80     c2_SpeedgoatCANOpen2Buses100us.obj
 0002:00000e88       $unwind$sf_opaque_enable_c2_SpeedgoatCANOpen2Buses100us 000000018003fe88     c2_SpeedgoatCANOpen2Buses100us.obj
 0002:00000e90       $unwind$sf_opaque_disable_c2_SpeedgoatCANOpen2Buses100us 000000018003fe90     c2_SpeedgoatCANOpen2Buses100us.obj
 0002:00000e98       $unwind$sf_opaque_gateway_c2_SpeedgoatCANOpen2Buses100us 000000018003fe98     c2_SpeedgoatCANOpen2Buses100us.obj
 0002:00000ea0       $unwind$sf_opaque_ext_mode_exec_c2_SpeedgoatCANOpen2Buses100us 000000018003fea0     c2_SpeedgoatCANOpen2Buses100us.obj
 0002:00000ea8       $unwind$sf_opaque_get_sim_state_c2_SpeedgoatCANOpen2Buses100us 000000018003fea8     c2_SpeedgoatCANOpen2Buses100us.obj
 0002:00000eb0       $unwind$sf_opaque_set_sim_state_c2_SpeedgoatCANOpen2Buses100us 000000018003feb0     c2_SpeedgoatCANOpen2Buses100us.obj
 0002:00000eb8       $unwind$sf_opaque_terminate_c2_SpeedgoatCANOpen2Buses100us 000000018003feb8     c2_SpeedgoatCANOpen2Buses100us.obj
 0002:00000ec0       $unwind$mdlProcessParameters_c2_SpeedgoatCANOpen2Buses100us 000000018003fec0     c2_SpeedgoatCANOpen2Buses100us.obj
 0002:00000ec8       $unwind$sf_set_sfun_dwork_info 000000018003fec8     c2_SpeedgoatCANOpen2Buses100us.obj
 0002:00000ed0       $unwind$mdlSetWorkWidths_c2_SpeedgoatCANOpen2Buses100us 000000018003fed0     c2_SpeedgoatCANOpen2Buses100us.obj
 0002:00000ed8       $unwind$mdlRTW_c2_SpeedgoatCANOpen2Buses100us 000000018003fed8     c2_SpeedgoatCANOpen2Buses100us.obj
 0002:00000ee0       $unwind$mdlStart_c2_SpeedgoatCANOpen2Buses100us 000000018003fee0     c2_SpeedgoatCANOpen2Buses100us.obj
 0002:00000ee8       $unwind$sf_c3_SpeedgoatCANOpen2Buses100us_get_eml_resolved_functions_info 000000018003fee8     c3_SpeedgoatCANOpen2Buses100us.obj
 0002:00000ef0       $unwind$sf_c3_SpeedgoatCANOpen2Buses100us_get_check_sum 000000018003fef0     c3_SpeedgoatCANOpen2Buses100us.obj
 0002:00000ef8       $unwind$c3_SpeedgoatCANOpen2Buses100us_method_dispatcher 000000018003fef8     c3_SpeedgoatCANOpen2Buses100us.obj
 0002:00000f00       $unwind$chart_debug_initialization 000000018003ff00     c3_SpeedgoatCANOpen2Buses100us.obj
 0002:00000f08       $unwind$chart_debug_initialize_data_addresses 000000018003ff08     c3_SpeedgoatCANOpen2Buses100us.obj
 0002:00000f10       $unwind$sf_opaque_get_hover_data_for_msg 000000018003ff10     c3_SpeedgoatCANOpen2Buses100us.obj
 0002:00000f18       $unwind$initialize_c3_SpeedgoatCANOpen2Buses100us 000000018003ff18     c3_SpeedgoatCANOpen2Buses100us.obj
 0002:00000f20       $unwind$enable_c3_SpeedgoatCANOpen2Buses100us 000000018003ff20     c3_SpeedgoatCANOpen2Buses100us.obj
 0002:00000f28       $unwind$disable_c3_SpeedgoatCANOpen2Buses100us 000000018003ff28     c3_SpeedgoatCANOpen2Buses100us.obj
 0002:00000f30       $unwind$c3_update_debugger_state_c3_SpeedgoatCANOpen2Buses100us 000000018003ff30     c3_SpeedgoatCANOpen2Buses100us.obj
 0002:00000f38       $unwind$ext_mode_exec_c3_SpeedgoatCANOpen2Buses100us 000000018003ff38     c3_SpeedgoatCANOpen2Buses100us.obj
 0002:00000f40       $unwind$get_sim_state_c3_SpeedgoatCANOpen2Buses100us 000000018003ff40     c3_SpeedgoatCANOpen2Buses100us.obj
 0002:00000f48       $unwind$set_sim_state_c3_SpeedgoatCANOpen2Buses100us 000000018003ff48     c3_SpeedgoatCANOpen2Buses100us.obj
 0002:00000f58       $unwind$finalize_c3_SpeedgoatCANOpen2Buses100us 000000018003ff58     c3_SpeedgoatCANOpen2Buses100us.obj
 0002:00000f60       $unwind$sf_gateway_c3_SpeedgoatCANOpen2Buses100us 000000018003ff60     c3_SpeedgoatCANOpen2Buses100us.obj
 0002:00000f68       $unwind$mdl_start_c3_SpeedgoatCANOpen2Buses100us 000000018003ff68     c3_SpeedgoatCANOpen2Buses100us.obj
 0002:00000f70       $unwind$c3_chartstep_c3_SpeedgoatCANOpen2Buses100us 000000018003ff70     c3_SpeedgoatCANOpen2Buses100us.obj
 0002:00000f80       $unwind$c3_enter_atomic_Init 000000018003ff80     c3_SpeedgoatCANOpen2Buses100us.obj
 0002:00000f88       $unwind$c3_sf_marshallOut  000000018003ff88     c3_SpeedgoatCANOpen2Buses100us.obj
 0002:00000f90       $unwind$c3_emlrt_marshallIn 000000018003ff90     c3_SpeedgoatCANOpen2Buses100us.obj
 0002:00000f98       $unwind$c3_sf_marshallIn   000000018003ff98     c3_SpeedgoatCANOpen2Buses100us.obj
 0002:00000fa0       $unwind$c3_b_sf_marshallOut 000000018003ffa0     c3_SpeedgoatCANOpen2Buses100us.obj
 0002:00000fa8       $unwind$c3_b_emlrt_marshallIn 000000018003ffa8     c3_SpeedgoatCANOpen2Buses100us.obj
 0002:00000fb0       $unwind$c3_b_sf_marshallIn 000000018003ffb0     c3_SpeedgoatCANOpen2Buses100us.obj
 0002:00000fb8       $unwind$c3_d_sf_marshallOut 000000018003ffb8     c3_SpeedgoatCANOpen2Buses100us.obj
 0002:00000fc0       $unwind$c3_d_emlrt_marshallIn 000000018003ffc0     c3_SpeedgoatCANOpen2Buses100us.obj
 0002:00000fc8       $unwind$c3_e_emlrt_marshallIn 000000018003ffc8     c3_SpeedgoatCANOpen2Buses100us.obj
 0002:00000fd0       $unwind$c3_d_sf_marshallIn 000000018003ffd0     c3_SpeedgoatCANOpen2Buses100us.obj
 0002:00000fd8       $unwind$c3_f_emlrt_marshallIn 000000018003ffd8     c3_SpeedgoatCANOpen2Buses100us.obj
 0002:00000fe0       $unwind$c3_g_emlrt_marshallIn 000000018003ffe0     c3_SpeedgoatCANOpen2Buses100us.obj
 0002:00000fe8       $unwind$c3_h_emlrt_marshallIn 000000018003ffe8     c3_SpeedgoatCANOpen2Buses100us.obj
 0002:00000ff0       $unwind$c3_i_emlrt_marshallIn 000000018003fff0     c3_SpeedgoatCANOpen2Buses100us.obj
 0002:00001000       $unwind$c3_j_emlrt_marshallIn 0000000180040000     c3_SpeedgoatCANOpen2Buses100us.obj
 0002:00001008       $unwind$c3_k_emlrt_marshallIn 0000000180040008     c3_SpeedgoatCANOpen2Buses100us.obj
 0002:00001010       $unwind$init_simulink_io_address 0000000180040010     c3_SpeedgoatCANOpen2Buses100us.obj
 0002:00001018       $unwind$sf_c3_SpeedgoatCANOpen2Buses100us_get_post_codegen_info 0000000180040018     c3_SpeedgoatCANOpen2Buses100us.obj
 0002:00001020       $unwind$sf_c3_SpeedgoatCANOpen2Buses100us_get_autoinheritance_info 0000000180040020     c3_SpeedgoatCANOpen2Buses100us.obj
 0002:00001030       $unwind$sf_c3_SpeedgoatCANOpen2Buses100us_third_party_uses_info 0000000180040030     c3_SpeedgoatCANOpen2Buses100us.obj
 0002:00001038       $unwind$sf_c3_SpeedgoatCANOpen2Buses100us_jit_fallback_info 0000000180040038     c3_SpeedgoatCANOpen2Buses100us.obj
 0002:00001048       $unwind$sf_c3_SpeedgoatCANOpen2Buses100us_updateBuildInfo_args_info 0000000180040048     c3_SpeedgoatCANOpen2Buses100us.obj
 0002:00001050       $unwind$sf_get_sim_state_info_c3_SpeedgoatCANOpen2Buses100us 0000000180040050     c3_SpeedgoatCANOpen2Buses100us.obj
 0002:00001058       $unwind$sf_check_dwork_consistency 0000000180040058     c3_SpeedgoatCANOpen2Buses100us.obj
 0002:00001060       $unwind$sf_opaque_initialize_c3_SpeedgoatCANOpen2Buses100us 0000000180040060     c3_SpeedgoatCANOpen2Buses100us.obj
 0002:00001068       $unwind$sf_opaque_enable_c3_SpeedgoatCANOpen2Buses100us 0000000180040068     c3_SpeedgoatCANOpen2Buses100us.obj
 0002:00001070       $unwind$sf_opaque_disable_c3_SpeedgoatCANOpen2Buses100us 0000000180040070     c3_SpeedgoatCANOpen2Buses100us.obj
 0002:00001078       $unwind$sf_opaque_gateway_c3_SpeedgoatCANOpen2Buses100us 0000000180040078     c3_SpeedgoatCANOpen2Buses100us.obj
 0002:00001080       $unwind$sf_opaque_ext_mode_exec_c3_SpeedgoatCANOpen2Buses100us 0000000180040080     c3_SpeedgoatCANOpen2Buses100us.obj
 0002:00001088       $unwind$sf_opaque_get_sim_state_c3_SpeedgoatCANOpen2Buses100us 0000000180040088     c3_SpeedgoatCANOpen2Buses100us.obj
 0002:00001090       $unwind$sf_opaque_set_sim_state_c3_SpeedgoatCANOpen2Buses100us 0000000180040090     c3_SpeedgoatCANOpen2Buses100us.obj
 0002:00001098       $unwind$sf_opaque_terminate_c3_SpeedgoatCANOpen2Buses100us 0000000180040098     c3_SpeedgoatCANOpen2Buses100us.obj
 0002:000010a0       $unwind$mdlProcessParameters_c3_SpeedgoatCANOpen2Buses100us 00000001800400a0     c3_SpeedgoatCANOpen2Buses100us.obj
 0002:000010a8       $unwind$sf_set_sfun_dwork_info 00000001800400a8     c3_SpeedgoatCANOpen2Buses100us.obj
 0002:000010b0       $unwind$mdlSetWorkWidths_c3_SpeedgoatCANOpen2Buses100us 00000001800400b0     c3_SpeedgoatCANOpen2Buses100us.obj
 0002:000010b8       $unwind$mdlRTW_c3_SpeedgoatCANOpen2Buses100us 00000001800400b8     c3_SpeedgoatCANOpen2Buses100us.obj
 0002:000010c0       $unwind$mdlStart_c3_SpeedgoatCANOpen2Buses100us 00000001800400c0     c3_SpeedgoatCANOpen2Buses100us.obj
 0002:000010c8       $unwind$sf_c4_SpeedgoatCANOpen2Buses100us_get_eml_resolved_functions_info 00000001800400c8     c4_SpeedgoatCANOpen2Buses100us.obj
 0002:000010d0       $unwind$sf_c4_SpeedgoatCANOpen2Buses100us_get_check_sum 00000001800400d0     c4_SpeedgoatCANOpen2Buses100us.obj
 0002:000010d8       $unwind$c4_SpeedgoatCANOpen2Buses100us_method_dispatcher 00000001800400d8     c4_SpeedgoatCANOpen2Buses100us.obj
 0002:000010e0       $unwind$chart_debug_initialization 00000001800400e0     c4_SpeedgoatCANOpen2Buses100us.obj
 0002:000010e8       $unwind$chart_debug_initialize_data_addresses 00000001800400e8     c4_SpeedgoatCANOpen2Buses100us.obj
 0002:000010f0       $unwind$sf_opaque_get_hover_data_for_msg 00000001800400f0     c4_SpeedgoatCANOpen2Buses100us.obj
 0002:000010f8       $unwind$initialize_c4_SpeedgoatCANOpen2Buses100us 00000001800400f8     c4_SpeedgoatCANOpen2Buses100us.obj
 0002:00001100       $unwind$enable_c4_SpeedgoatCANOpen2Buses100us 0000000180040100     c4_SpeedgoatCANOpen2Buses100us.obj
 0002:00001108       $unwind$disable_c4_SpeedgoatCANOpen2Buses100us 0000000180040108     c4_SpeedgoatCANOpen2Buses100us.obj
 0002:00001110       $unwind$c4_update_debugger_state_c4_SpeedgoatCANOpen2Buses100us 0000000180040110     c4_SpeedgoatCANOpen2Buses100us.obj
 0002:00001118       $unwind$ext_mode_exec_c4_SpeedgoatCANOpen2Buses100us 0000000180040118     c4_SpeedgoatCANOpen2Buses100us.obj
 0002:00001120       $unwind$get_sim_state_c4_SpeedgoatCANOpen2Buses100us 0000000180040120     c4_SpeedgoatCANOpen2Buses100us.obj
 0002:00001128       $unwind$set_sim_state_c4_SpeedgoatCANOpen2Buses100us 0000000180040128     c4_SpeedgoatCANOpen2Buses100us.obj
 0002:00001130       $unwind$finalize_c4_SpeedgoatCANOpen2Buses100us 0000000180040130     c4_SpeedgoatCANOpen2Buses100us.obj
 0002:00001138       $unwind$sf_gateway_c4_SpeedgoatCANOpen2Buses100us 0000000180040138     c4_SpeedgoatCANOpen2Buses100us.obj
 0002:00001148       $unwind$mdl_start_c4_SpeedgoatCANOpen2Buses100us 0000000180040148     c4_SpeedgoatCANOpen2Buses100us.obj
 0002:00001150       $unwind$c4_sf_marshallOut  0000000180040150     c4_SpeedgoatCANOpen2Buses100us.obj
 0002:00001158       $unwind$c4_emlrt_marshallIn 0000000180040158     c4_SpeedgoatCANOpen2Buses100us.obj
 0002:00001160       $unwind$c4_sf_marshallIn   0000000180040160     c4_SpeedgoatCANOpen2Buses100us.obj
 0002:00001168       $unwind$c4_b_sf_marshallOut 0000000180040168     c4_SpeedgoatCANOpen2Buses100us.obj
 0002:00001170       $unwind$c4_b_emlrt_marshallIn 0000000180040170     c4_SpeedgoatCANOpen2Buses100us.obj
 0002:00001178       $unwind$c4_b_sf_marshallIn 0000000180040178     c4_SpeedgoatCANOpen2Buses100us.obj
 0002:00001180       $unwind$c4_d_sf_marshallOut 0000000180040180     c4_SpeedgoatCANOpen2Buses100us.obj
 0002:00001188       $unwind$c4_d_emlrt_marshallIn 0000000180040188     c4_SpeedgoatCANOpen2Buses100us.obj
 0002:00001190       $unwind$c4_e_emlrt_marshallIn 0000000180040190     c4_SpeedgoatCANOpen2Buses100us.obj
 0002:00001198       $unwind$c4_d_sf_marshallIn 0000000180040198     c4_SpeedgoatCANOpen2Buses100us.obj
 0002:000011a0       $unwind$c4_f_emlrt_marshallIn 00000001800401a0     c4_SpeedgoatCANOpen2Buses100us.obj
 0002:000011a8       $unwind$c4_g_emlrt_marshallIn 00000001800401a8     c4_SpeedgoatCANOpen2Buses100us.obj
 0002:000011b0       $unwind$c4_h_emlrt_marshallIn 00000001800401b0     c4_SpeedgoatCANOpen2Buses100us.obj
 0002:000011b8       $unwind$c4_i_emlrt_marshallIn 00000001800401b8     c4_SpeedgoatCANOpen2Buses100us.obj
 0002:000011c0       $unwind$c4_j_emlrt_marshallIn 00000001800401c0     c4_SpeedgoatCANOpen2Buses100us.obj
 0002:000011c8       $unwind$c4_k_emlrt_marshallIn 00000001800401c8     c4_SpeedgoatCANOpen2Buses100us.obj
 0002:000011d0       $unwind$init_simulink_io_address 00000001800401d0     c4_SpeedgoatCANOpen2Buses100us.obj
 0002:000011d8       $unwind$sf_c4_SpeedgoatCANOpen2Buses100us_get_post_codegen_info 00000001800401d8     c4_SpeedgoatCANOpen2Buses100us.obj
 0002:000011e0       $unwind$sf_c4_SpeedgoatCANOpen2Buses100us_get_autoinheritance_info 00000001800401e0     c4_SpeedgoatCANOpen2Buses100us.obj
 0002:000011f0       $unwind$sf_c4_SpeedgoatCANOpen2Buses100us_third_party_uses_info 00000001800401f0     c4_SpeedgoatCANOpen2Buses100us.obj
 0002:000011f8       $unwind$sf_c4_SpeedgoatCANOpen2Buses100us_jit_fallback_info 00000001800401f8     c4_SpeedgoatCANOpen2Buses100us.obj
 0002:00001208       $unwind$sf_c4_SpeedgoatCANOpen2Buses100us_updateBuildInfo_args_info 0000000180040208     c4_SpeedgoatCANOpen2Buses100us.obj
 0002:00001210       $unwind$sf_get_sim_state_info_c4_SpeedgoatCANOpen2Buses100us 0000000180040210     c4_SpeedgoatCANOpen2Buses100us.obj
 0002:00001218       $unwind$sf_check_dwork_consistency 0000000180040218     c4_SpeedgoatCANOpen2Buses100us.obj
 0002:00001220       $unwind$sf_opaque_initialize_c4_SpeedgoatCANOpen2Buses100us 0000000180040220     c4_SpeedgoatCANOpen2Buses100us.obj
 0002:00001228       $unwind$sf_opaque_enable_c4_SpeedgoatCANOpen2Buses100us 0000000180040228     c4_SpeedgoatCANOpen2Buses100us.obj
 0002:00001230       $unwind$sf_opaque_disable_c4_SpeedgoatCANOpen2Buses100us 0000000180040230     c4_SpeedgoatCANOpen2Buses100us.obj
 0002:00001238       $unwind$sf_opaque_gateway_c4_SpeedgoatCANOpen2Buses100us 0000000180040238     c4_SpeedgoatCANOpen2Buses100us.obj
 0002:00001240       $unwind$sf_opaque_ext_mode_exec_c4_SpeedgoatCANOpen2Buses100us 0000000180040240     c4_SpeedgoatCANOpen2Buses100us.obj
 0002:00001248       $unwind$sf_opaque_get_sim_state_c4_SpeedgoatCANOpen2Buses100us 0000000180040248     c4_SpeedgoatCANOpen2Buses100us.obj
 0002:00001250       $unwind$sf_opaque_set_sim_state_c4_SpeedgoatCANOpen2Buses100us 0000000180040250     c4_SpeedgoatCANOpen2Buses100us.obj
 0002:00001258       $unwind$sf_opaque_terminate_c4_SpeedgoatCANOpen2Buses100us 0000000180040258     c4_SpeedgoatCANOpen2Buses100us.obj
 0002:00001260       $unwind$mdlProcessParameters_c4_SpeedgoatCANOpen2Buses100us 0000000180040260     c4_SpeedgoatCANOpen2Buses100us.obj
 0002:00001268       $unwind$sf_set_sfun_dwork_info 0000000180040268     c4_SpeedgoatCANOpen2Buses100us.obj
 0002:00001270       $unwind$mdlSetWorkWidths_c4_SpeedgoatCANOpen2Buses100us 0000000180040270     c4_SpeedgoatCANOpen2Buses100us.obj
 0002:00001278       $unwind$mdlRTW_c4_SpeedgoatCANOpen2Buses100us 0000000180040278     c4_SpeedgoatCANOpen2Buses100us.obj
 0002:00001280       $unwind$mdlStart_c4_SpeedgoatCANOpen2Buses100us 0000000180040280     c4_SpeedgoatCANOpen2Buses100us.obj
 0002:00001288       $unwind$sf_c5_SpeedgoatCANOpen2Buses100us_get_eml_resolved_functions_info 0000000180040288     c5_SpeedgoatCANOpen2Buses100us.obj
 0002:00001290       $unwind$sf_c5_SpeedgoatCANOpen2Buses100us_get_check_sum 0000000180040290     c5_SpeedgoatCANOpen2Buses100us.obj
 0002:00001298       $unwind$c5_SpeedgoatCANOpen2Buses100us_method_dispatcher 0000000180040298     c5_SpeedgoatCANOpen2Buses100us.obj
 0002:000012a0       $unwind$chart_debug_initialization 00000001800402a0     c5_SpeedgoatCANOpen2Buses100us.obj
 0002:000012a8       $unwind$chart_debug_initialize_data_addresses 00000001800402a8     c5_SpeedgoatCANOpen2Buses100us.obj
 0002:000012b0       $unwind$sf_opaque_get_hover_data_for_msg 00000001800402b0     c5_SpeedgoatCANOpen2Buses100us.obj
 0002:000012b8       $unwind$initialize_c5_SpeedgoatCANOpen2Buses100us 00000001800402b8     c5_SpeedgoatCANOpen2Buses100us.obj
 0002:000012c0       $unwind$enable_c5_SpeedgoatCANOpen2Buses100us 00000001800402c0     c5_SpeedgoatCANOpen2Buses100us.obj
 0002:000012c8       $unwind$disable_c5_SpeedgoatCANOpen2Buses100us 00000001800402c8     c5_SpeedgoatCANOpen2Buses100us.obj
 0002:000012d0       $unwind$c5_update_debugger_state_c5_SpeedgoatCANOpen2Buses100us 00000001800402d0     c5_SpeedgoatCANOpen2Buses100us.obj
 0002:000012d8       $unwind$ext_mode_exec_c5_SpeedgoatCANOpen2Buses100us 00000001800402d8     c5_SpeedgoatCANOpen2Buses100us.obj
 0002:000012e0       $unwind$get_sim_state_c5_SpeedgoatCANOpen2Buses100us 00000001800402e0     c5_SpeedgoatCANOpen2Buses100us.obj
 0002:000012e8       $unwind$set_sim_state_c5_SpeedgoatCANOpen2Buses100us 00000001800402e8     c5_SpeedgoatCANOpen2Buses100us.obj
 0002:000012f0       $unwind$c5_set_sim_state_side_effects_c5_SpeedgoatCANOpen2Buses100us 00000001800402f0     c5_SpeedgoatCANOpen2Buses100us.obj
 0002:000012f8       $unwind$finalize_c5_SpeedgoatCANOpen2Buses100us 00000001800402f8     c5_SpeedgoatCANOpen2Buses100us.obj
 0002:00001300       $unwind$sf_gateway_c5_SpeedgoatCANOpen2Buses100us 0000000180040300     c5_SpeedgoatCANOpen2Buses100us.obj
 0002:00001310       $unwind$mdl_start_c5_SpeedgoatCANOpen2Buses100us 0000000180040310     c5_SpeedgoatCANOpen2Buses100us.obj
 0002:00001318       $unwind$c5_sf_marshallOut  0000000180040318     c5_SpeedgoatCANOpen2Buses100us.obj
 0002:00001320       $unwind$c5_emlrt_marshallIn 0000000180040320     c5_SpeedgoatCANOpen2Buses100us.obj
 0002:00001328       $unwind$c5_sf_marshallIn   0000000180040328     c5_SpeedgoatCANOpen2Buses100us.obj
 0002:00001330       $unwind$c5_b_sf_marshallOut 0000000180040330     c5_SpeedgoatCANOpen2Buses100us.obj
 0002:00001338       $unwind$c5_b_emlrt_marshallIn 0000000180040338     c5_SpeedgoatCANOpen2Buses100us.obj
 0002:00001340       $unwind$c5_b_sf_marshallIn 0000000180040340     c5_SpeedgoatCANOpen2Buses100us.obj
 0002:00001348       $unwind$c5_d_sf_marshallOut 0000000180040348     c5_SpeedgoatCANOpen2Buses100us.obj
 0002:00001350       $unwind$c5_d_emlrt_marshallIn 0000000180040350     c5_SpeedgoatCANOpen2Buses100us.obj
 0002:00001358       $unwind$c5_e_emlrt_marshallIn 0000000180040358     c5_SpeedgoatCANOpen2Buses100us.obj
 0002:00001360       $unwind$c5_d_sf_marshallIn 0000000180040360     c5_SpeedgoatCANOpen2Buses100us.obj
 0002:00001368       $unwind$c5_f_emlrt_marshallIn 0000000180040368     c5_SpeedgoatCANOpen2Buses100us.obj
 0002:00001370       $unwind$c5_g_emlrt_marshallIn 0000000180040370     c5_SpeedgoatCANOpen2Buses100us.obj
 0002:00001378       $unwind$c5_h_emlrt_marshallIn 0000000180040378     c5_SpeedgoatCANOpen2Buses100us.obj
 0002:00001380       $unwind$c5_i_emlrt_marshallIn 0000000180040380     c5_SpeedgoatCANOpen2Buses100us.obj
 0002:00001388       $unwind$c5_j_emlrt_marshallIn 0000000180040388     c5_SpeedgoatCANOpen2Buses100us.obj
 0002:00001390       $unwind$c5_k_emlrt_marshallIn 0000000180040390     c5_SpeedgoatCANOpen2Buses100us.obj
 0002:00001398       $unwind$c5_l_emlrt_marshallIn 0000000180040398     c5_SpeedgoatCANOpen2Buses100us.obj
 0002:000013a0       $unwind$c5_m_emlrt_marshallIn 00000001800403a0     c5_SpeedgoatCANOpen2Buses100us.obj
 0002:000013a8       $unwind$init_simulink_io_address 00000001800403a8     c5_SpeedgoatCANOpen2Buses100us.obj
 0002:000013b0       $unwind$sf_c5_SpeedgoatCANOpen2Buses100us_get_post_codegen_info 00000001800403b0     c5_SpeedgoatCANOpen2Buses100us.obj
 0002:000013b8       $unwind$sf_c5_SpeedgoatCANOpen2Buses100us_get_autoinheritance_info 00000001800403b8     c5_SpeedgoatCANOpen2Buses100us.obj
 0002:000013c8       $unwind$sf_c5_SpeedgoatCANOpen2Buses100us_third_party_uses_info 00000001800403c8     c5_SpeedgoatCANOpen2Buses100us.obj
 0002:000013d0       $unwind$sf_c5_SpeedgoatCANOpen2Buses100us_jit_fallback_info 00000001800403d0     c5_SpeedgoatCANOpen2Buses100us.obj
 0002:000013e0       $unwind$sf_c5_SpeedgoatCANOpen2Buses100us_updateBuildInfo_args_info 00000001800403e0     c5_SpeedgoatCANOpen2Buses100us.obj
 0002:000013e8       $unwind$sf_get_sim_state_info_c5_SpeedgoatCANOpen2Buses100us 00000001800403e8     c5_SpeedgoatCANOpen2Buses100us.obj
 0002:000013f0       $unwind$sf_check_dwork_consistency 00000001800403f0     c5_SpeedgoatCANOpen2Buses100us.obj
 0002:000013f8       $unwind$sf_opaque_initialize_c5_SpeedgoatCANOpen2Buses100us 00000001800403f8     c5_SpeedgoatCANOpen2Buses100us.obj
 0002:00001400       $unwind$sf_opaque_enable_c5_SpeedgoatCANOpen2Buses100us 0000000180040400     c5_SpeedgoatCANOpen2Buses100us.obj
 0002:00001408       $unwind$sf_opaque_disable_c5_SpeedgoatCANOpen2Buses100us 0000000180040408     c5_SpeedgoatCANOpen2Buses100us.obj
 0002:00001410       $unwind$sf_opaque_gateway_c5_SpeedgoatCANOpen2Buses100us 0000000180040410     c5_SpeedgoatCANOpen2Buses100us.obj
 0002:00001418       $unwind$sf_opaque_ext_mode_exec_c5_SpeedgoatCANOpen2Buses100us 0000000180040418     c5_SpeedgoatCANOpen2Buses100us.obj
 0002:00001420       $unwind$sf_opaque_get_sim_state_c5_SpeedgoatCANOpen2Buses100us 0000000180040420     c5_SpeedgoatCANOpen2Buses100us.obj
 0002:00001428       $unwind$sf_opaque_set_sim_state_c5_SpeedgoatCANOpen2Buses100us 0000000180040428     c5_SpeedgoatCANOpen2Buses100us.obj
 0002:00001430       $unwind$sf_opaque_terminate_c5_SpeedgoatCANOpen2Buses100us 0000000180040430     c5_SpeedgoatCANOpen2Buses100us.obj
 0002:00001438       $unwind$mdlProcessParameters_c5_SpeedgoatCANOpen2Buses100us 0000000180040438     c5_SpeedgoatCANOpen2Buses100us.obj
 0002:00001440       $unwind$sf_set_sfun_dwork_info 0000000180040440     c5_SpeedgoatCANOpen2Buses100us.obj
 0002:00001448       $unwind$mdlSetWorkWidths_c5_SpeedgoatCANOpen2Buses100us 0000000180040448     c5_SpeedgoatCANOpen2Buses100us.obj
 0002:00001450       $unwind$mdlRTW_c5_SpeedgoatCANOpen2Buses100us 0000000180040450     c5_SpeedgoatCANOpen2Buses100us.obj
 0002:00001458       $unwind$mdlStart_c5_SpeedgoatCANOpen2Buses100us 0000000180040458     c5_SpeedgoatCANOpen2Buses100us.obj
 0002:00001460       $unwind$sf_c12_SpeedgoatCANOpen2Buses100us_get_eml_resolved_functions_info 0000000180040460     c12_SpeedgoatCANOpen2Buses100us.obj
 0002:00001468       $unwind$sf_c12_SpeedgoatCANOpen2Buses100us_get_check_sum 0000000180040468     c12_SpeedgoatCANOpen2Buses100us.obj
 0002:00001470       $unwind$c12_SpeedgoatCANOpen2Buses100us_method_dispatcher 0000000180040470     c12_SpeedgoatCANOpen2Buses100us.obj
 0002:00001478       $unwind$chart_debug_initialization 0000000180040478     c12_SpeedgoatCANOpen2Buses100us.obj
 0002:00001480       $unwind$chart_debug_initialize_data_addresses 0000000180040480     c12_SpeedgoatCANOpen2Buses100us.obj
 0002:00001488       $unwind$sf_opaque_get_hover_data_for_msg 0000000180040488     c12_SpeedgoatCANOpen2Buses100us.obj
 0002:00001490       $unwind$initialize_c12_SpeedgoatCANOpen2Buses100us 0000000180040490     c12_SpeedgoatCANOpen2Buses100us.obj
 0002:00001498       $unwind$enable_c12_SpeedgoatCANOpen2Buses100us 0000000180040498     c12_SpeedgoatCANOpen2Buses100us.obj
 0002:000014a0       $unwind$disable_c12_SpeedgoatCANOpen2Buses100us 00000001800404a0     c12_SpeedgoatCANOpen2Buses100us.obj
 0002:000014a8       $unwind$c12_update_debugger_state_c12_SpeedgoatCANOpen2Buses100us 00000001800404a8     c12_SpeedgoatCANOpen2Buses100us.obj
 0002:000014b0       $unwind$ext_mode_exec_c12_SpeedgoatCANOpen2Buses100us 00000001800404b0     c12_SpeedgoatCANOpen2Buses100us.obj
 0002:000014b8       $unwind$get_sim_state_c12_SpeedgoatCANOpen2Buses100us 00000001800404b8     c12_SpeedgoatCANOpen2Buses100us.obj
 0002:000014c0       $unwind$set_sim_state_c12_SpeedgoatCANOpen2Buses100us 00000001800404c0     c12_SpeedgoatCANOpen2Buses100us.obj
 0002:000014d0       $unwind$finalize_c12_SpeedgoatCANOpen2Buses100us 00000001800404d0     c12_SpeedgoatCANOpen2Buses100us.obj
 0002:000014d8       $unwind$sf_gateway_c12_SpeedgoatCANOpen2Buses100us 00000001800404d8     c12_SpeedgoatCANOpen2Buses100us.obj
 0002:000014e0       $unwind$mdl_start_c12_SpeedgoatCANOpen2Buses100us 00000001800404e0     c12_SpeedgoatCANOpen2Buses100us.obj
 0002:000014e8       $unwind$c12_chartstep_c12_SpeedgoatCANOpen2Buses100us 00000001800404e8     c12_SpeedgoatCANOpen2Buses100us.obj
 0002:000014f8       $unwind$c12_enter_atomic_Init 00000001800404f8     c12_SpeedgoatCANOpen2Buses100us.obj
 0002:00001500       $unwind$c12_sf_marshallOut 0000000180040500     c12_SpeedgoatCANOpen2Buses100us.obj
 0002:00001508       $unwind$c12_emlrt_marshallIn 0000000180040508     c12_SpeedgoatCANOpen2Buses100us.obj
 0002:00001510       $unwind$c12_sf_marshallIn  0000000180040510     c12_SpeedgoatCANOpen2Buses100us.obj
 0002:00001518       $unwind$c12_b_sf_marshallOut 0000000180040518     c12_SpeedgoatCANOpen2Buses100us.obj
 0002:00001520       $unwind$c12_b_emlrt_marshallIn 0000000180040520     c12_SpeedgoatCANOpen2Buses100us.obj
 0002:00001528       $unwind$c12_b_sf_marshallIn 0000000180040528     c12_SpeedgoatCANOpen2Buses100us.obj
 0002:00001530       $unwind$c12_d_sf_marshallOut 0000000180040530     c12_SpeedgoatCANOpen2Buses100us.obj
 0002:00001538       $unwind$c12_d_emlrt_marshallIn 0000000180040538     c12_SpeedgoatCANOpen2Buses100us.obj
 0002:00001540       $unwind$c12_e_emlrt_marshallIn 0000000180040540     c12_SpeedgoatCANOpen2Buses100us.obj
 0002:00001548       $unwind$c12_d_sf_marshallIn 0000000180040548     c12_SpeedgoatCANOpen2Buses100us.obj
 0002:00001550       $unwind$c12_f_emlrt_marshallIn 0000000180040550     c12_SpeedgoatCANOpen2Buses100us.obj
 0002:00001558       $unwind$c12_g_emlrt_marshallIn 0000000180040558     c12_SpeedgoatCANOpen2Buses100us.obj
 0002:00001560       $unwind$c12_h_emlrt_marshallIn 0000000180040560     c12_SpeedgoatCANOpen2Buses100us.obj
 0002:00001568       $unwind$c12_i_emlrt_marshallIn 0000000180040568     c12_SpeedgoatCANOpen2Buses100us.obj
 0002:00001578       $unwind$c12_j_emlrt_marshallIn 0000000180040578     c12_SpeedgoatCANOpen2Buses100us.obj
 0002:00001580       $unwind$c12_k_emlrt_marshallIn 0000000180040580     c12_SpeedgoatCANOpen2Buses100us.obj
 0002:00001588       $unwind$init_simulink_io_address 0000000180040588     c12_SpeedgoatCANOpen2Buses100us.obj
 0002:00001590       $unwind$sf_c12_SpeedgoatCANOpen2Buses100us_get_post_codegen_info 0000000180040590     c12_SpeedgoatCANOpen2Buses100us.obj
 0002:00001598       $unwind$sf_c12_SpeedgoatCANOpen2Buses100us_get_autoinheritance_info 0000000180040598     c12_SpeedgoatCANOpen2Buses100us.obj
 0002:000015a8       $unwind$sf_c12_SpeedgoatCANOpen2Buses100us_third_party_uses_info 00000001800405a8     c12_SpeedgoatCANOpen2Buses100us.obj
 0002:000015b0       $unwind$sf_c12_SpeedgoatCANOpen2Buses100us_jit_fallback_info 00000001800405b0     c12_SpeedgoatCANOpen2Buses100us.obj
 0002:000015c0       $unwind$sf_c12_SpeedgoatCANOpen2Buses100us_updateBuildInfo_args_info 00000001800405c0     c12_SpeedgoatCANOpen2Buses100us.obj
 0002:000015c8       $unwind$sf_get_sim_state_info_c12_SpeedgoatCANOpen2Buses100us 00000001800405c8     c12_SpeedgoatCANOpen2Buses100us.obj
 0002:000015d0       $unwind$sf_check_dwork_consistency 00000001800405d0     c12_SpeedgoatCANOpen2Buses100us.obj
 0002:000015d8       $unwind$sf_opaque_initialize_c12_SpeedgoatCANOpen2Buses100us 00000001800405d8     c12_SpeedgoatCANOpen2Buses100us.obj
 0002:000015e0       $unwind$sf_opaque_enable_c12_SpeedgoatCANOpen2Buses100us 00000001800405e0     c12_SpeedgoatCANOpen2Buses100us.obj
 0002:000015e8       $unwind$sf_opaque_disable_c12_SpeedgoatCANOpen2Buses100us 00000001800405e8     c12_SpeedgoatCANOpen2Buses100us.obj
 0002:000015f0       $unwind$sf_opaque_gateway_c12_SpeedgoatCANOpen2Buses100us 00000001800405f0     c12_SpeedgoatCANOpen2Buses100us.obj
 0002:000015f8       $unwind$sf_opaque_ext_mode_exec_c12_SpeedgoatCANOpen2Buses100us 00000001800405f8     c12_SpeedgoatCANOpen2Buses100us.obj
 0002:00001600       $unwind$sf_opaque_get_sim_state_c12_SpeedgoatCANOpen2Buses100us 0000000180040600     c12_SpeedgoatCANOpen2Buses100us.obj
 0002:00001608       $unwind$sf_opaque_set_sim_state_c12_SpeedgoatCANOpen2Buses100us 0000000180040608     c12_SpeedgoatCANOpen2Buses100us.obj
 0002:00001610       $unwind$sf_opaque_terminate_c12_SpeedgoatCANOpen2Buses100us 0000000180040610     c12_SpeedgoatCANOpen2Buses100us.obj
 0002:00001618       $unwind$mdlProcessParameters_c12_SpeedgoatCANOpen2Buses100us 0000000180040618     c12_SpeedgoatCANOpen2Buses100us.obj
 0002:00001620       $unwind$sf_set_sfun_dwork_info 0000000180040620     c12_SpeedgoatCANOpen2Buses100us.obj
 0002:00001628       $unwind$mdlSetWorkWidths_c12_SpeedgoatCANOpen2Buses100us 0000000180040628     c12_SpeedgoatCANOpen2Buses100us.obj
 0002:00001630       $unwind$mdlRTW_c12_SpeedgoatCANOpen2Buses100us 0000000180040630     c12_SpeedgoatCANOpen2Buses100us.obj
 0002:00001638       $unwind$mdlStart_c12_SpeedgoatCANOpen2Buses100us 0000000180040638     c12_SpeedgoatCANOpen2Buses100us.obj
 0002:00001640       $unwind$_vsnprintf_l       0000000180040640     SpeedgoatCANOpen2Buses100us_sfun_registry.obj
 0002:00001648       $unwind$_vsprintf_l        0000000180040648     SpeedgoatCANOpen2Buses100us_sfun_registry.obj
 0002:00001650       $unwind$sprintf            0000000180040650     SpeedgoatCANOpen2Buses100us_sfun_registry.obj
 0002:00001658       $unwind$mexFunction        0000000180040658     SpeedgoatCANOpen2Buses100us_sfun_registry.obj
 0002:00001668       $unwind$_ssSetInputPortDirectFeedThroughFcn 0000000180040668     SpeedgoatCANOpen2Buses100us_sfun_registry.obj
 0002:00001678       $unwind$_ssSetRWorkValueFcn 0000000180040678     SpeedgoatCANOpen2Buses100us_sfun_registry.obj
 0002:00001680       $unwind$_ssGetRWorkValueFcn 0000000180040680     SpeedgoatCANOpen2Buses100us_sfun_registry.obj
 0002:00001688       $unwind$_ssSetIWorkValueFcn 0000000180040688     SpeedgoatCANOpen2Buses100us_sfun_registry.obj
 0002:00001690       $unwind$_ssGetIWorkValueFcn 0000000180040690     SpeedgoatCANOpen2Buses100us_sfun_registry.obj
 0002:00001698       $unwind$_ssSetPWorkValueFcn 0000000180040698     SpeedgoatCANOpen2Buses100us_sfun_registry.obj
 0002:000016a0       $unwind$_ssGetPWorkValueFcn 00000001800406a0     SpeedgoatCANOpen2Buses100us_sfun_registry.obj
 0002:000016a8       $unwind$_ssGetInputPortSignalFcn 00000001800406a8     SpeedgoatCANOpen2Buses100us_sfun_registry.obj
 0002:000016b8       $unwind$_ssGetInputPortBufferDstPortFcn 00000001800406b8     SpeedgoatCANOpen2Buses100us_sfun_registry.obj
 0002:000016c0       $unwind$_ssGetInputPortSignalPtrsFcn 00000001800406c0     SpeedgoatCANOpen2Buses100us_sfun_registry.obj
 0002:000016d0       $unwind$ssGetParameterTuningCompliance 00000001800406d0     SpeedgoatCANOpen2Buses100us_sfun_registry.obj
 0002:000016d8       $unwind$ssGetDTypeIdFromMxArray 00000001800406d8     SpeedgoatCANOpen2Buses100us_sfun_registry.obj
 0002:000016e0       $unwind$ssWriteRTWMx2dMatParam 00000001800406e0     SpeedgoatCANOpen2Buses100us_sfun_registry.obj
 0002:000016e8       $unwind$ssWriteRTWMxVectParam 00000001800406e8     SpeedgoatCANOpen2Buses100us_sfun_registry.obj
 0002:000016f0       $unwind$ssWriteRTWParameters 00000001800406f0     SpeedgoatCANOpen2Buses100us_sfun_registry.obj
 0002:000016f8       $unwind$ssWriteRTWParamSettings 00000001800406f8     SpeedgoatCANOpen2Buses100us_sfun_registry.obj
 0002:00001700       $unwind$ssWriteRTWStr      0000000180040700     SpeedgoatCANOpen2Buses100us_sfun_registry.obj
 0002:00001708       $unwind$ssWriteRTWWorkVect 0000000180040708     SpeedgoatCANOpen2Buses100us_sfun_registry.obj
 0002:0000171c       $unwind$ssWarning          000000018004071c     SpeedgoatCANOpen2Buses100us_sfun_registry.obj
 0002:00001730       $unwind$ssWriteRTWNameValuePair 0000000180040730     SpeedgoatCANOpen2Buses100us_sfun_registry.obj
 0002:00001738       $unwind$_ssSetInputPortMatrixDimensions 0000000180040738     SpeedgoatCANOpen2Buses100us_sfun_registry.obj
 0002:00001744       $unwind$_ssSetOutputPortMatrixDimensions 0000000180040744     SpeedgoatCANOpen2Buses100us_sfun_registry.obj
 0002:00001750       $unwind$_ssSetInputPortVectorDimension 0000000180040750     SpeedgoatCANOpen2Buses100us_sfun_registry.obj
 0002:0000175c       $unwind$_ssSetOutputPortVectorDimension 000000018004075c     SpeedgoatCANOpen2Buses100us_sfun_registry.obj
 0002:00001768       $unwind$ssIsRunTimeParamTunable 0000000180040768     SpeedgoatCANOpen2Buses100us_sfun_registry.obj
 0002:00001770       $unwind$ssGetSFuncBlockHandle 0000000180040770     SpeedgoatCANOpen2Buses100us_sfun_registry.obj
 0002:00001778       $unwind$_ssGetCurrentInputPortWidth 0000000180040778     SpeedgoatCANOpen2Buses100us_sfun_registry.obj
 0002:00001780       $unwind$_ssGetCurrentOutputPortWidth 0000000180040780     SpeedgoatCANOpen2Buses100us_sfun_registry.obj
 0002:00001788       $unwind$_ssGetCallSystemNumFcnCallDestinations 0000000180040788     SpeedgoatCANOpen2Buses100us_sfun_registry.obj
 0002:00001790       $unwind$ssGetIsZeroCrossControlDisabled 0000000180040790     SpeedgoatCANOpen2Buses100us_sfun_registry.obj
 0002:00001798       $unwind$ssSetIsInputPortUsedForContZcSignal 0000000180040798     SpeedgoatCANOpen2Buses100us_sfun_registry.obj
 0002:000017a0       $unwind$ssSetZcSignalIsZcElementDisc 00000001800407a0     SpeedgoatCANOpen2Buses100us_sfun_registry.obj
 0002:000017b0       $unwind$ssSetZcSignalName  00000001800407b0     SpeedgoatCANOpen2Buses100us_sfun_registry.obj
 0002:000017b8       $unwind$ssSetZcSignalWidth 00000001800407b8     SpeedgoatCANOpen2Buses100us_sfun_registry.obj
 0002:000017c0       $unwind$ssSetZcSignalZcEventType 00000001800407c0     SpeedgoatCANOpen2Buses100us_sfun_registry.obj
 0002:000017c8       $unwind$ssSetZcSignalType  00000001800407c8     SpeedgoatCANOpen2Buses100us_sfun_registry.obj
 0002:000017d0       $unwind$ssSetZcSignalZcTol 00000001800407d0     SpeedgoatCANOpen2Buses100us_sfun_registry.obj
 0002:000017d8       $unwind$ssSetZcSignalNeedsEventNotification 00000001800407d8     SpeedgoatCANOpen2Buses100us_sfun_registry.obj
 0002:000017e0       $unwind$ssCreateAndAddZcSignalInfo 00000001800407e0     SpeedgoatCANOpen2Buses100us_sfun_registry.obj
 0002:000017e8       $unwind$ssCloneAndAddZcSignalInfo 00000001800407e8     SpeedgoatCANOpen2Buses100us_sfun_registry.obj
 0002:000017f0       $unwind$ssGetNumZcSignals  00000001800407f0     SpeedgoatCANOpen2Buses100us_sfun_registry.obj
 0002:000017f8       $unwind$ssGetZcSignalVector 00000001800407f8     SpeedgoatCANOpen2Buses100us_sfun_registry.obj
 0002:00001800       $unwind$ssGetZcSignalName  0000000180040800     SpeedgoatCANOpen2Buses100us_sfun_registry.obj
 0002:00001808       $unwind$ssGetZcSignalWidth 0000000180040808     SpeedgoatCANOpen2Buses100us_sfun_registry.obj
 0002:00001810       $unwind$ssGetZcSignalZcEventType 0000000180040810     SpeedgoatCANOpen2Buses100us_sfun_registry.obj
 0002:00001818       $unwind$ssGetZcSignalZcEvents 0000000180040818     SpeedgoatCANOpen2Buses100us_sfun_registry.obj
 0002:00001820       $unwind$ssGetZcSignalType  0000000180040820     SpeedgoatCANOpen2Buses100us_sfun_registry.obj
 0002:00001828       $unwind$ssGetZcSignalZcTol 0000000180040828     SpeedgoatCANOpen2Buses100us_sfun_registry.obj
 0002:00001830       $unwind$ssGetZcSignalNeedsEventNotification 0000000180040830     SpeedgoatCANOpen2Buses100us_sfun_registry.obj
 0002:00001838       $unwind$ssGetZcSignalIsZcElementDisc 0000000180040838     SpeedgoatCANOpen2Buses100us_sfun_registry.obj
 0002:00001848       $unwind$ssGetIsInputPortElementContinuous 0000000180040848     SpeedgoatCANOpen2Buses100us_sfun_registry.obj
 0002:00001858       $unwind$_ssGetAbsTol       0000000180040858     SpeedgoatCANOpen2Buses100us_sfun_registry.obj
 0002:00001860       $unwind$_ssSetInputPortReusableFcn 0000000180040860     SpeedgoatCANOpen2Buses100us_sfun_registry.obj
 0002:00001868       $unwind$_ssSetOutputPortReusableFcn 0000000180040868     SpeedgoatCANOpen2Buses100us_sfun_registry.obj
 0002:00001870       $unwind$_ssSetSymbolicDimsSupport 0000000180040870     SpeedgoatCANOpen2Buses100us_sfun_registry.obj
 0002:00001878       $unwind$_ssRegisterSymbolicDimsExpr 0000000180040878     SpeedgoatCANOpen2Buses100us_sfun_registry.obj
 0002:00001880       $unwind$_ssRegisterSymbolicDims 0000000180040880     SpeedgoatCANOpen2Buses100us_sfun_registry.obj
 0002:00001888       $unwind$_ssRegisterSymbolicDimsString 0000000180040888     SpeedgoatCANOpen2Buses100us_sfun_registry.obj
 0002:00001890       $unwind$_ssRegisterSymbolicDimsIntValue 0000000180040890     SpeedgoatCANOpen2Buses100us_sfun_registry.obj
 0002:00001898       $unwind$_ssRegisterSymbolicDimsPlus 0000000180040898     SpeedgoatCANOpen2Buses100us_sfun_registry.obj
 0002:000018a0       $unwind$_ssRegisterSymbolicDimsMinus 00000001800408a0     SpeedgoatCANOpen2Buses100us_sfun_registry.obj
 0002:000018a8       $unwind$_ssRegisterSymbolicDimsMultiply 00000001800408a8     SpeedgoatCANOpen2Buses100us_sfun_registry.obj
 0002:000018b0       $unwind$_ssRegisterSymbolicDimsDivide 00000001800408b0     SpeedgoatCANOpen2Buses100us_sfun_registry.obj
 0002:000018b8       $unwind$_ssGetNumSymbolicDims 00000001800408b8     SpeedgoatCANOpen2Buses100us_sfun_registry.obj
 0002:000018c0       $unwind$_ssGetSymbolicDim  00000001800408c0     SpeedgoatCANOpen2Buses100us_sfun_registry.obj
 0002:000018c8       $unwind$_ssSetInputPortSymbolicDimsId 00000001800408c8     SpeedgoatCANOpen2Buses100us_sfun_registry.obj
 0002:000018d0       $unwind$_ssGetCompInputPortSymbolicDimsId 00000001800408d0     SpeedgoatCANOpen2Buses100us_sfun_registry.obj
 0002:000018d8       $unwind$_ssSetCompInputPortSymbolicDimsId 00000001800408d8     SpeedgoatCANOpen2Buses100us_sfun_registry.obj
 0002:000018e0       $unwind$_ssSetOutputPortSymbolicDimsId 00000001800408e0     SpeedgoatCANOpen2Buses100us_sfun_registry.obj
 0002:000018e8       $unwind$_ssGetCompOutputPortSymbolicDimsId 00000001800408e8     SpeedgoatCANOpen2Buses100us_sfun_registry.obj
 0002:000018f0       $unwind$_ssSetCompOutputPortSymbolicDimsId 00000001800408f0     SpeedgoatCANOpen2Buses100us_sfun_registry.obj
 0002:000018f8       $unwind$_ssSetCompDWorkSymbolicDimsId 00000001800408f8     SpeedgoatCANOpen2Buses100us_sfun_registry.obj
 0002:00001900       $unwind$sf_process_check_sum_call 0000000180040900     SpeedgoatCANOpen2Buses100us_sfun_registry.obj
 0002:00001908       $unwind$sf_process_testpoint_info_call 0000000180040908     SpeedgoatCANOpen2Buses100us_sfun_registry.obj
 0002:00001910       $unwind$sf_process_autoinheritance_call 0000000180040910     SpeedgoatCANOpen2Buses100us_sfun_registry.obj
 0002:00001920       $unwind$sf_process_get_third_party_uses_info_call 0000000180040920     SpeedgoatCANOpen2Buses100us_sfun_registry.obj
 0002:00001930       $unwind$sf_process_get_jit_fallback_info_call 0000000180040930     SpeedgoatCANOpen2Buses100us_sfun_registry.obj
 0002:00001940       $unwind$sf_process_get_updateBuildInfo_args_info_call 0000000180040940     SpeedgoatCANOpen2Buses100us_sfun_registry.obj
 0002:00001950       $unwind$sf_process_get_eml_resolved_functions_info_call 0000000180040950     SpeedgoatCANOpen2Buses100us_sfun_registry.obj
 0002:00001960       $unwind$sf_mex_unlock_call 0000000180040960     SpeedgoatCANOpen2Buses100us_sfun_registry.obj
 0002:00001970       $unwind$sf_debug_api_wrapper 0000000180040970     SpeedgoatCANOpen2Buses100us_sfun_registry.obj
 0002:00001978       $unwind$ProcessMexSfunctionCmdLineCall 0000000180040978     SpeedgoatCANOpen2Buses100us_sfun_registry.obj
 0002:00001980       $unwind$sf_machine_global_initializer_called 0000000180040980     SpeedgoatCANOpen2Buses100us_sfun_registry.obj
 0002:00001988       $unwind$sf_machine_global_method_dispatcher 0000000180040988     SpeedgoatCANOpen2Buses100us_sfun_registry.obj
 0002:00001990       $unwind$sf_machine_global_terminator 0000000180040990     SpeedgoatCANOpen2Buses100us_sfun_registry.obj
 0002:00001998       $unwind$sf_register_machine_exported_symbols 0000000180040998     SpeedgoatCANOpen2Buses100us_sfun_registry.obj
 0002:000019a0       $unwind$sf_machine_global_initializer 00000001800409a0     SpeedgoatCANOpen2Buses100us_sfun_registry.obj
 0002:000019a8       $unwind$mdlGetSimState     00000001800409a8     SpeedgoatCANOpen2Buses100us_sfun_registry.obj
 0002:000019b0       $unwind$mdlSetSimState     00000001800409b0     SpeedgoatCANOpen2Buses100us_sfun_registry.obj
 0002:000019b8       $unwind$mdlSetWorkWidths   00000001800409b8     SpeedgoatCANOpen2Buses100us_sfun_registry.obj
 0002:000019c0       $unwind$mdlProcessParameters 00000001800409c0     SpeedgoatCANOpen2Buses100us_sfun_registry.obj
 0002:000019c8       $unwind$mdl_start_processing 00000001800409c8     SpeedgoatCANOpen2Buses100us_sfun_registry.obj
 0002:000019d0       $unwind$mdl_terminate_processing 00000001800409d0     SpeedgoatCANOpen2Buses100us_sfun_registry.obj
 0002:000019d8       $unwind$mdlStart           00000001800409d8     SpeedgoatCANOpen2Buses100us_sfun_registry.obj
 0002:000019e0       $unwind$mdlTerminate       00000001800409e0     SpeedgoatCANOpen2Buses100us_sfun_registry.obj
 0002:000019e8       $unwind$mdlInitializeSizes 00000001800409e8     SpeedgoatCANOpen2Buses100us_sfun_registry.obj
 0002:000019f0       $unwind$mdlInitializeSampleTimes 00000001800409f0     SpeedgoatCANOpen2Buses100us_sfun_registry.obj
 0002:000019f8       $unwind$mdl_outputs_continuous_legacy 00000001800409f8     SpeedgoatCANOpen2Buses100us_sfun_registry.obj
 0002:00001a00       $unwind$mdl_outputs_processing 0000000180040a00     SpeedgoatCANOpen2Buses100us_sfun_registry.obj
 0002:00001a08       $unwind$mdl_zeroCrossings_processing 0000000180040a08     SpeedgoatCANOpen2Buses100us_sfun_registry.obj
 0002:00001a10       $unwind$mdlZeroCrossings   0000000180040a10     SpeedgoatCANOpen2Buses100us_sfun_registry.obj
 0002:00001a18       $unwind$mdl_derivatives_processing 0000000180040a18     SpeedgoatCANOpen2Buses100us_sfun_registry.obj
 0002:00001a20       $unwind$mdlDerivatives     0000000180040a20     SpeedgoatCANOpen2Buses100us_sfun_registry.obj
 0002:00001a28       $unwind$mdl_initialize_conditions_processing 0000000180040a28     SpeedgoatCANOpen2Buses100us_sfun_registry.obj
 0002:00001a30       $unwind$mdlInitializeConditions 0000000180040a30     SpeedgoatCANOpen2Buses100us_sfun_registry.obj
 0002:00001a38       $unwind$mdl_ext_mode_exec_processing 0000000180040a38     SpeedgoatCANOpen2Buses100us_sfun_registry.obj
 0002:00001a40       $unwind$mdlExtModeExec     0000000180040a40     SpeedgoatCANOpen2Buses100us_sfun_registry.obj
 0002:00001a48       $unwind$mdlRTW             0000000180040a48     SpeedgoatCANOpen2Buses100us_sfun_registry.obj
 0002:00001a50       $unwind$mdl_enable_processing 0000000180040a50     SpeedgoatCANOpen2Buses100us_sfun_registry.obj
 0002:00001a58       $unwind$mdlEnable          0000000180040a58     SpeedgoatCANOpen2Buses100us_sfun_registry.obj
 0002:00001a60       $unwind$mdl_disable_processing 0000000180040a60     SpeedgoatCANOpen2Buses100us_sfun_registry.obj
 0002:00001a68       $unwind$mdlDisable         0000000180040a68     SpeedgoatCANOpen2Buses100us_sfun_registry.obj
 0002:00001a70       $unwind$mdlOutputs         0000000180040a70     SpeedgoatCANOpen2Buses100us_sfun_registry.obj
 0002:00001a78       $unwind$mdl_update_processing 0000000180040a78     SpeedgoatCANOpen2Buses100us_sfun_registry.obj
 0002:00001a80       $unwind$mdlUpdate          0000000180040a80     SpeedgoatCANOpen2Buses100us_sfun_registry.obj
 0002:00001a88       $unwind$ProcessMexSfunctionEveryCall 0000000180040a88     SpeedgoatCANOpen2Buses100us_sfun_registry.obj
 0002:00001a90       $unwind$_RegNumInputPortsCB 0000000180040a90     SpeedgoatCANOpen2Buses100us_sfun_registry.obj
 0002:00001a98       $unwind$_RegNumOutputPortsCB 0000000180040a98     SpeedgoatCANOpen2Buses100us_sfun_registry.obj
 0002:00001aa0       $unwind$_CreateSimStruct   0000000180040aa0     SpeedgoatCANOpen2Buses100us_sfun_registry.obj
 0002:00001aa8       $unwind$_ProcessMexSfunctionCmdLineCall 0000000180040aa8     SpeedgoatCANOpen2Buses100us_sfun_registry.obj
 0002:00001ab8       $unwind$ReportIndexOutOfBoundsError 0000000180040ab8     SpeedgoatCANOpen2Buses100us_sfun_registry.obj
 0002:00001ac8       $unwind$__report_securityfailure 0000000180040ac8     MSVCRT:gs_report.obj
 0002:00001ad0       $unwind$__report_securityfailureEx 0000000180040ad0     MSVCRT:gs_report.obj
 0002:00001ad8       $unwind$__report_rangecheckfailure 0000000180040ad8     MSVCRT:gs_report.obj
 0002:00001ae0       $unwind$__report_gsfailure 0000000180040ae0     MSVCRT:gs_report.obj
 0002:00001ae8       $unwind$capture_current_context 0000000180040ae8     MSVCRT:gs_report.obj
 0002:00001af4       $unwind$capture_previous_context 0000000180040af4     MSVCRT:gs_report.obj
 0002:00001b00       $unwind$__raise_securityfailure 0000000180040b00     MSVCRT:gs_report.obj
 0002:00001b08       $unwind$__GSHandlerCheckCommon 0000000180040b08     MSVCRT:gshandler.obj
 0002:00001b10       $unwind$__GSHandlerCheck   0000000180040b10     MSVCRT:gshandler.obj
 0002:00001b18       $xdatasym                  0000000180040b18     MSVCRT:amdsecgs.obj
 0002:00001b1c       $unwind$?dllmain_crt_process_attach@@YAHQEAUHINSTANCE__@@QEAX@Z 0000000180040b1c     MSVCRT:dll_dllmain.obj
 0002:00001b58       $unwind$?fin$0@?0??dllmain_crt_process_attach@@YAHQEAUHINSTANCE__@@QEAX@Z@4HA 0000000180040b58     MSVCRT:dll_dllmain.obj
 0002:00001b60       $unwind$?dllmain_crt_process_detach@@YAH_N@Z 0000000180040b60     MSVCRT:dll_dllmain.obj
 0002:00001b98       $unwind$?fin$0@?0??dllmain_crt_process_detach@@YAH_N@Z@4HA 0000000180040b98     MSVCRT:dll_dllmain.obj
 0002:00001ba0       $unwind$?dllmain_crt_dispatch@@YAHQEAUHINSTANCE__@@KQEAX@Z 0000000180040ba0     MSVCRT:dll_dllmain.obj
 0002:00001ba8       $unwind$?dllmain_dispatch@@YAHQEAUHINSTANCE__@@KQEAX@Z 0000000180040ba8     MSVCRT:dll_dllmain.obj
 0002:00001bd0       $unwind$?filt$0@?0??dllmain_dispatch@@YAHQEAUHINSTANCE__@@KQEAX@Z@4HA 0000000180040bd0     MSVCRT:dll_dllmain.obj
 0002:00001bd8       $unwind$_DllMainCRTStartup 0000000180040bd8     MSVCRT:dll_dllmain.obj
 0002:00001be8       $unwind$__security_init_cookie 0000000180040be8     MSVCRT:gs_support.obj
 0002:00001bf4       $unwind$__get_entropy      0000000180040bf4     MSVCRT:gs_support.obj
 0002:00001bfc       $unwind$DllMain            0000000180040bfc     MSVCRT:dll_dllmain_stub.obj
 0002:00001c04       $unwind$__scrt_initialize_default_local_stdio_options 0000000180040c04     MSVCRT:default_local_stdio_options.obj
 0002:00001c0c       $unwind$atexit             0000000180040c0c     MSVCRT:utility.obj
 0002:00001c14       $unwind$_onexit            0000000180040c14     MSVCRT:utility.obj
 0002:00001c1c       $unwind$__scrt_is_nonwritable_in_current_image 0000000180040c1c     MSVCRT:utility.obj
 0002:00001c3c       $unwind$__scrt_is_nonwritable_in_current_image$filt$0 0000000180040c3c     MSVCRT:utility.obj
 0002:00001c44       $unwind$__scrt_acquire_startup_lock 0000000180040c44     MSVCRT:utility.obj
 0002:00001c4c       $unwind$__scrt_release_startup_lock 0000000180040c4c     MSVCRT:utility.obj
 0002:00001c54       $unwind$__scrt_initialize_crt 0000000180040c54     MSVCRT:utility.obj
 0002:00001c5c       $unwind$__scrt_uninitialize_crt 0000000180040c5c     MSVCRT:utility.obj
 0002:00001c64       $unwind$__scrt_initialize_onexit_tables 0000000180040c64     MSVCRT:utility.obj
 0002:00001c6c       $unwind$__scrt_dllmain_exception_filter 0000000180040c6c     MSVCRT:utility.obj
 0002:00001c80       $unwind$__scrt_dllmain_before_initialize_c 0000000180040c80     MSVCRT:utility.obj
 0002:00001c88       $unwind$__scrt_dllmain_after_initialize_c 0000000180040c88     MSVCRT:utility.obj
 0002:00001c90       $unwind$__scrt_dllmain_uninitialize_c 0000000180040c90     MSVCRT:utility.obj
 0002:00001c98       $unwind$__scrt_dllmain_uninitialize_critical 0000000180040c98     MSVCRT:utility.obj
 0002:00001ca0       $unwind$__scrt_dllmain_crt_thread_attach 0000000180040ca0     MSVCRT:utility.obj
 0002:00001ca8       $unwind$__scrt_dllmain_crt_thread_detach 0000000180040ca8     MSVCRT:utility.obj
 0002:00001cb0       $unwind$?configure_argv@__scrt_narrow_argv_policy@@SAHXZ 0000000180040cb0     MSVCRT:utility.obj
 0002:00001cb8       $unwind$__scrt_get_show_window_mode 0000000180040cb8     MSVCRT:utility_desktop.obj
 0002:00001cc0       $unwind$__scrt_is_managed_app 0000000180040cc0     MSVCRT:utility_desktop.obj
 0002:00001cc8       $unwind$__scrt_fastfail    0000000180040cc8     MSVCRT:utility_desktop.obj
 0002:00001cd8       $unwind$__scrt_unhandled_exception_filter 0000000180040cd8     MSVCRT:utility_desktop.obj
 0002:00001ce0       $unwind$_RTC_Initialize    0000000180040ce0     MSVCRT:initsect.obj
 0002:00001cec       $unwind$_RTC_Terminate     0000000180040cec     MSVCRT:initsect.obj
 0002:00001cf8       $unwind$__isa_available_init 0000000180040cf8     MSVCRT:cpu_disp.obj
 0002:00001d08       $xdatasym                  0000000180040d08     MSVCRT:guard_dispatch.obj
 0002:00001d10       .edata                     0000000180040d10     SpeedgoatCANOpen2Buses100us_sfun.exp
 0002:00001d38       rgpv                       0000000180040d38     SpeedgoatCANOpen2Buses100us_sfun.exp
 0002:00001d40       rgszName                   0000000180040d40     SpeedgoatCANOpen2Buses100us_sfun.exp
 0002:00001d48       rgwOrd                     0000000180040d48     SpeedgoatCANOpen2Buses100us_sfun.exp
 0002:00001d4c       szName                     0000000180040d4c     SpeedgoatCANOpen2Buses100us_sfun.exp
 0002:00001d74       $N00001                    0000000180040d74     SpeedgoatCANOpen2Buses100us_sfun.exp
 0002:00001d80       $N00002                    0000000180040d80     SpeedgoatCANOpen2Buses100us_sfun.exp
 0002:00002d1e       .idata$6                   0000000180041d1e     sf_runtime:sf_runtime.dll
 0002:00002e96       .idata$6                   0000000180041e96     libmx:libmx.dll
 0002:00002f18       .idata$6                   0000000180041f18     libmex:libmex.dll
 0002:00002f3a       .idata$6                   0000000180041f3a     libut:libut.dll
 0002:00002f68       .idata$6                   0000000180041f68     libmwsl_sfcn_cov_bridge:libmwsl_sfcn_cov_bridge.dll
 0002:00003110       .idata$6                   0000000180042110     kernel32:KERNEL32.dll
 0002:0000316a       .idata$6                   000000018004216a     vcruntime:VCRUNTIME140.dll
 0002:000032ae       .idata$6                   00000001800422ae     ucrt:api-ms-win-crt-string-l1-1-0.dll
 0002:000032d0       .idata$6                   00000001800422d0     ucrt:api-ms-win-crt-stdio-l1-1-0.dll
 0002:000032f0       .idata$6                   00000001800422f0     ucrt:api-ms-win-crt-heap-l1-1-0.dll
 0002:00003310       .idata$6                   0000000180042310     ucrt:api-ms-win-crt-runtime-l1-1-0.dll
 0003:00000000       $SG25398                   0000000180043000     SpeedgoatCANOpen2Buses100us_sfun.obj
 0003:00000018       $SG25400                   0000000180043018     SpeedgoatCANOpen2Buses100us_sfun.obj
 0003:00000038       $SG25482                   0000000180043038     SpeedgoatCANOpen2Buses100us_sfun.obj
 0003:00000050       $SG25487                   0000000180043050     SpeedgoatCANOpen2Buses100us_sfun.obj
 0003:00000058       $SG25490                   0000000180043058     SpeedgoatCANOpen2Buses100us_sfun.obj
 0003:00000060       $SG25500                   0000000180043060     SpeedgoatCANOpen2Buses100us_sfun.obj
 0003:00000068       $SG25538                   0000000180043068     SpeedgoatCANOpen2Buses100us_sfun.obj
 0003:00000088       $SG25541                   0000000180043088     SpeedgoatCANOpen2Buses100us_sfun.obj
 0003:000000a0       $SG25544                   00000001800430a0     SpeedgoatCANOpen2Buses100us_sfun.obj
 0003:000000b8       $SG25547                   00000001800430b8     SpeedgoatCANOpen2Buses100us_sfun.obj
 0003:000000d0       $SG25550                   00000001800430d0     SpeedgoatCANOpen2Buses100us_sfun.obj
 0003:000000e8       $SG25553                   00000001800430e8     SpeedgoatCANOpen2Buses100us_sfun.obj
 0003:00000100       $SG25556                   0000000180043100     SpeedgoatCANOpen2Buses100us_sfun.obj
 0003:00000118       $SG25607                   0000000180043118     SpeedgoatCANOpen2Buses100us_sfun.obj
 0003:00000138       $SG25610                   0000000180043138     SpeedgoatCANOpen2Buses100us_sfun.obj
 0003:00000150       $SG25613                   0000000180043150     SpeedgoatCANOpen2Buses100us_sfun.obj
 0003:00000168       $SG25616                   0000000180043168     SpeedgoatCANOpen2Buses100us_sfun.obj
 0003:00000180       $SG25619                   0000000180043180     SpeedgoatCANOpen2Buses100us_sfun.obj
 0003:00000198       $SG25622                   0000000180043198     SpeedgoatCANOpen2Buses100us_sfun.obj
 0003:000001b0       $SG25625                   00000001800431b0     SpeedgoatCANOpen2Buses100us_sfun.obj
 0003:000001c8       $SG25664                   00000001800431c8     SpeedgoatCANOpen2Buses100us_sfun.obj
 0003:000001e8       $SG25667                   00000001800431e8     SpeedgoatCANOpen2Buses100us_sfun.obj
 0003:00000200       $SG25670                   0000000180043200     SpeedgoatCANOpen2Buses100us_sfun.obj
 0003:00000218       $SG25673                   0000000180043218     SpeedgoatCANOpen2Buses100us_sfun.obj
 0003:00000230       $SG25676                   0000000180043230     SpeedgoatCANOpen2Buses100us_sfun.obj
 0003:00000248       $SG25679                   0000000180043248     SpeedgoatCANOpen2Buses100us_sfun.obj
 0003:00000260       $SG25682                   0000000180043260     SpeedgoatCANOpen2Buses100us_sfun.obj
 0003:00000278       $SG25721                   0000000180043278     SpeedgoatCANOpen2Buses100us_sfun.obj
 0003:00000290       $SG25724                   0000000180043290     SpeedgoatCANOpen2Buses100us_sfun.obj
 0003:000002a8       $SG25727                   00000001800432a8     SpeedgoatCANOpen2Buses100us_sfun.obj
 0003:000002c0       $SG25730                   00000001800432c0     SpeedgoatCANOpen2Buses100us_sfun.obj
 0003:000002d8       $SG25733                   00000001800432d8     SpeedgoatCANOpen2Buses100us_sfun.obj
 0003:000002f0       $SG25736                   00000001800432f0     SpeedgoatCANOpen2Buses100us_sfun.obj
 0003:00000308       $SG25739                   0000000180043308     SpeedgoatCANOpen2Buses100us_sfun.obj
 0003:00000320       $SG25778                   0000000180043320     SpeedgoatCANOpen2Buses100us_sfun.obj
 0003:00000340       $SG25781                   0000000180043340     SpeedgoatCANOpen2Buses100us_sfun.obj
 0003:00000358       $SG25784                   0000000180043358     SpeedgoatCANOpen2Buses100us_sfun.obj
 0003:00000370       $SG25787                   0000000180043370     SpeedgoatCANOpen2Buses100us_sfun.obj
 0003:00000388       $SG25790                   0000000180043388     SpeedgoatCANOpen2Buses100us_sfun.obj
 0003:000003a0       $SG25793                   00000001800433a0     SpeedgoatCANOpen2Buses100us_sfun.obj
 0003:000003b8       $SG25796                   00000001800433b8     SpeedgoatCANOpen2Buses100us_sfun.obj
 0003:000003d0       $SG25802                   00000001800433d0     SpeedgoatCANOpen2Buses100us_sfun.obj
 0003:000003d8       $SG25803                   00000001800433d8     SpeedgoatCANOpen2Buses100us_sfun.obj
 0003:000003f8       $SG25828                   00000001800433f8     SpeedgoatCANOpen2Buses100us_sfun.obj
 0003:00000418       $SG25829                   0000000180043418     SpeedgoatCANOpen2Buses100us_sfun.obj
 0003:00000440       $SG25196                   0000000180043440     c1_SpeedgoatCANOpen2Buses100us.obj
 0003:00000448       $SG25197                   0000000180043448     c1_SpeedgoatCANOpen2Buses100us.obj
 0003:00000450       $SG25199                   0000000180043450     c1_SpeedgoatCANOpen2Buses100us.obj
 0003:00000458       $SG25200                   0000000180043458     c1_SpeedgoatCANOpen2Buses100us.obj
 0003:00000460       $SG25202                   0000000180043460     c1_SpeedgoatCANOpen2Buses100us.obj
 0003:00000468       $SG25203                   0000000180043468     c1_SpeedgoatCANOpen2Buses100us.obj
 0003:00000470       $SG25205                   0000000180043470     c1_SpeedgoatCANOpen2Buses100us.obj
 0003:00000478       $SG25206                   0000000180043478     c1_SpeedgoatCANOpen2Buses100us.obj
 0003:00000480       $SG25208                   0000000180043480     c1_SpeedgoatCANOpen2Buses100us.obj
 0003:00000488       $SG25209                   0000000180043488     c1_SpeedgoatCANOpen2Buses100us.obj
 0003:00000490       $SG25210                   0000000180043490     c1_SpeedgoatCANOpen2Buses100us.obj
 0003:000004ac       $SG25212                   00000001800434ac     c1_SpeedgoatCANOpen2Buses100us.obj
 0003:000004b8       $SG25213                   00000001800434b8     c1_SpeedgoatCANOpen2Buses100us.obj
 0003:000004c0       $SG25214                   00000001800434c0     c1_SpeedgoatCANOpen2Buses100us.obj
 0003:000004dc       $SG25216                   00000001800434dc     c1_SpeedgoatCANOpen2Buses100us.obj
 0003:000004e8       $SG25217                   00000001800434e8     c1_SpeedgoatCANOpen2Buses100us.obj
 0003:000004f0       $SG25218                   00000001800434f0     c1_SpeedgoatCANOpen2Buses100us.obj
 0003:0000050c       $SG25220                   000000018004350c     c1_SpeedgoatCANOpen2Buses100us.obj
 0003:00000518       $SG25221                   0000000180043518     c1_SpeedgoatCANOpen2Buses100us.obj
 0003:00000520       $SG25222                   0000000180043520     c1_SpeedgoatCANOpen2Buses100us.obj
 0003:0000053c       $SG25224                   000000018004353c     c1_SpeedgoatCANOpen2Buses100us.obj
 0003:00000548       $SG25225                   0000000180043548     c1_SpeedgoatCANOpen2Buses100us.obj
 0003:00000550       $SG25226                   0000000180043550     c1_SpeedgoatCANOpen2Buses100us.obj
 0003:0000056c       $SG25228                   000000018004356c     c1_SpeedgoatCANOpen2Buses100us.obj
 0003:00000578       $SG25229                   0000000180043578     c1_SpeedgoatCANOpen2Buses100us.obj
 0003:00000580       $SG25230                   0000000180043580     c1_SpeedgoatCANOpen2Buses100us.obj
 0003:0000059c       $SG25529                   000000018004359c     c1_SpeedgoatCANOpen2Buses100us.obj
 0003:000005a0       c1_debug_family_names      00000001800435a0     c1_SpeedgoatCANOpen2Buses100us.obj
 0003:000005b0       c1_b_debug_family_names    00000001800435b0     c1_SpeedgoatCANOpen2Buses100us.obj
 0003:000005c0       c1_c_debug_family_names    00000001800435c0     c1_SpeedgoatCANOpen2Buses100us.obj
 0003:000005d0       c1_d_debug_family_names    00000001800435d0     c1_SpeedgoatCANOpen2Buses100us.obj
 0003:000005e0       c1_e_debug_family_names    00000001800435e0     c1_SpeedgoatCANOpen2Buses100us.obj
 0003:000005f8       c1_f_debug_family_names    00000001800435f8     c1_SpeedgoatCANOpen2Buses100us.obj
 0003:00000610       c1_g_debug_family_names    0000000180043610     c1_SpeedgoatCANOpen2Buses100us.obj
 0003:00000628       c1_h_debug_family_names    0000000180043628     c1_SpeedgoatCANOpen2Buses100us.obj
 0003:00000640       c1_i_debug_family_names    0000000180043640     c1_SpeedgoatCANOpen2Buses100us.obj
 0003:00000658       c1_j_debug_family_names    0000000180043658     c1_SpeedgoatCANOpen2Buses100us.obj
 0003:00000670       $SG25530                   0000000180043670     c1_SpeedgoatCANOpen2Buses100us.obj
 0003:00000674       $SG25531                   0000000180043674     c1_SpeedgoatCANOpen2Buses100us.obj
 0003:00000678       $SG25532                   0000000180043678     c1_SpeedgoatCANOpen2Buses100us.obj
 0003:0000067c       $SG25533                   000000018004367c     c1_SpeedgoatCANOpen2Buses100us.obj
 0003:00000680       $SG25534                   0000000180043680     c1_SpeedgoatCANOpen2Buses100us.obj
 0003:00000684       $SG25535                   0000000180043684     c1_SpeedgoatCANOpen2Buses100us.obj
 0003:00000688       $SG25536                   0000000180043688     c1_SpeedgoatCANOpen2Buses100us.obj
 0003:0000068c       $SG25537                   000000018004368c     c1_SpeedgoatCANOpen2Buses100us.obj
 0003:00000690       $SG25538                   0000000180043690     c1_SpeedgoatCANOpen2Buses100us.obj
 0003:00000694       $SG25555                   0000000180043694     c1_SpeedgoatCANOpen2Buses100us.obj
 0003:00000698       $SG25550                   0000000180043698     c1_SpeedgoatCANOpen2Buses100us.obj
 0003:000006a4       $SG25816                   00000001800436a4     c1_SpeedgoatCANOpen2Buses100us.obj
 0003:000006a8       $SG25551                   00000001800436a8     c1_SpeedgoatCANOpen2Buses100us.obj
 0003:000006b4       $SG25860                   00000001800436b4     c1_SpeedgoatCANOpen2Buses100us.obj
 0003:000006b8       $SG25552                   00000001800436b8     c1_SpeedgoatCANOpen2Buses100us.obj
 0003:000006c4       $SG25955                   00000001800436c4     c1_SpeedgoatCANOpen2Buses100us.obj
 0003:000006c8       $SG25553                   00000001800436c8     c1_SpeedgoatCANOpen2Buses100us.obj
 0003:000006d4       $SG26466                   00000001800436d4     c1_SpeedgoatCANOpen2Buses100us.obj
 0003:000006d8       $SG25554                   00000001800436d8     c1_SpeedgoatCANOpen2Buses100us.obj
 0003:000006e4       $SG25556                   00000001800436e4     c1_SpeedgoatCANOpen2Buses100us.obj
 0003:000006ec       $SG26167                   00000001800436ec     c1_SpeedgoatCANOpen2Buses100us.obj
 0003:000006f8       $SG25557                   00000001800436f8     c1_SpeedgoatCANOpen2Buses100us.obj
 0003:00000728       $SG25558                   0000000180043728     c1_SpeedgoatCANOpen2Buses100us.obj
 0003:00000750       $SG25559                   0000000180043750     c1_SpeedgoatCANOpen2Buses100us.obj
 0003:00000768       $SG25560                   0000000180043768     c1_SpeedgoatCANOpen2Buses100us.obj
 0003:00000788       $SG25895                   0000000180043788     c1_SpeedgoatCANOpen2Buses100us.obj
 0003:00000798       $SG26165                   0000000180043798     c1_SpeedgoatCANOpen2Buses100us.obj
 0003:000007a8       $SG26169                   00000001800437a8     c1_SpeedgoatCANOpen2Buses100us.obj
 0003:000007b8       $SG26171                   00000001800437b8     c1_SpeedgoatCANOpen2Buses100us.obj
 0003:000007c0       $SG26173                   00000001800437c0     c1_SpeedgoatCANOpen2Buses100us.obj
 0003:000007c8       $SG26175                   00000001800437c8     c1_SpeedgoatCANOpen2Buses100us.obj
 0003:000007d8       $SG26176                   00000001800437d8     c1_SpeedgoatCANOpen2Buses100us.obj
 0003:000007f0       $SG26177                   00000001800437f0     c1_SpeedgoatCANOpen2Buses100us.obj
 0003:000007fc       $SG26179                   00000001800437fc     c1_SpeedgoatCANOpen2Buses100us.obj
 0003:00000804       $SG26181                   0000000180043804     c1_SpeedgoatCANOpen2Buses100us.obj
 0003:00000810       $SG26183                   0000000180043810     c1_SpeedgoatCANOpen2Buses100us.obj
 0003:0000081c       $SG26184                   000000018004381c     c1_SpeedgoatCANOpen2Buses100us.obj
 0003:00000824       $SG26186                   0000000180043824     c1_SpeedgoatCANOpen2Buses100us.obj
 0003:0000082c       $SG26188                   000000018004382c     c1_SpeedgoatCANOpen2Buses100us.obj
 0003:00000838       $SG26190                   0000000180043838     c1_SpeedgoatCANOpen2Buses100us.obj
 0003:0000084c       $SG26191                   000000018004384c     c1_SpeedgoatCANOpen2Buses100us.obj
 0003:00000854       $SG26192                   0000000180043854     c1_SpeedgoatCANOpen2Buses100us.obj
 0003:00000860       $SG26193                   0000000180043860     c1_SpeedgoatCANOpen2Buses100us.obj
 0003:00000874       $SG26194                   0000000180043874     c1_SpeedgoatCANOpen2Buses100us.obj
 0003:00000880       $SG26195                   0000000180043880     c1_SpeedgoatCANOpen2Buses100us.obj
 0003:0000088c       $SG26196                   000000018004388c     c1_SpeedgoatCANOpen2Buses100us.obj
 0003:00000894       $SG26198                   0000000180043894     c1_SpeedgoatCANOpen2Buses100us.obj
 0003:0000089c       $SG26200                   000000018004389c     c1_SpeedgoatCANOpen2Buses100us.obj
 0003:000008a8       $SG26202                   00000001800438a8     c1_SpeedgoatCANOpen2Buses100us.obj
 0003:000008bc       $SG26203                   00000001800438bc     c1_SpeedgoatCANOpen2Buses100us.obj
 0003:000008c4       $SG26204                   00000001800438c4     c1_SpeedgoatCANOpen2Buses100us.obj
 0003:000008d0       $SG26205                   00000001800438d0     c1_SpeedgoatCANOpen2Buses100us.obj
 0003:000008e4       $SG26206                   00000001800438e4     c1_SpeedgoatCANOpen2Buses100us.obj
 0003:000008f0       $SG26207                   00000001800438f0     c1_SpeedgoatCANOpen2Buses100us.obj
 0003:000008fc       $SG26208                   00000001800438fc     c1_SpeedgoatCANOpen2Buses100us.obj
 0003:00000908       $SG26209                   0000000180043908     c1_SpeedgoatCANOpen2Buses100us.obj
 0003:00000914       $SG26211                   0000000180043914     c1_SpeedgoatCANOpen2Buses100us.obj
 0003:0000091c       $SG26213                   000000018004391c     c1_SpeedgoatCANOpen2Buses100us.obj
 0003:00000928       $SG26215                   0000000180043928     c1_SpeedgoatCANOpen2Buses100us.obj
 0003:00000934       $SG26216                   0000000180043934     c1_SpeedgoatCANOpen2Buses100us.obj
 0003:0000093c       $SG26218                   000000018004393c     c1_SpeedgoatCANOpen2Buses100us.obj
 0003:00000944       $SG26220                   0000000180043944     c1_SpeedgoatCANOpen2Buses100us.obj
 0003:00000950       $SG26222                   0000000180043950     c1_SpeedgoatCANOpen2Buses100us.obj
 0003:00000964       $SG26223                   0000000180043964     c1_SpeedgoatCANOpen2Buses100us.obj
 0003:0000096c       $SG26224                   000000018004396c     c1_SpeedgoatCANOpen2Buses100us.obj
 0003:00000978       $SG26225                   0000000180043978     c1_SpeedgoatCANOpen2Buses100us.obj
 0003:0000098c       $SG26226                   000000018004398c     c1_SpeedgoatCANOpen2Buses100us.obj
 0003:00000998       $SG26227                   0000000180043998     c1_SpeedgoatCANOpen2Buses100us.obj
 0003:000009a4       $SG26228                   00000001800439a4     c1_SpeedgoatCANOpen2Buses100us.obj
 0003:000009ac       $SG26230                   00000001800439ac     c1_SpeedgoatCANOpen2Buses100us.obj
 0003:000009b4       $SG26232                   00000001800439b4     c1_SpeedgoatCANOpen2Buses100us.obj
 0003:000009c0       $SG26234                   00000001800439c0     c1_SpeedgoatCANOpen2Buses100us.obj
 0003:000009d4       $SG26235                   00000001800439d4     c1_SpeedgoatCANOpen2Buses100us.obj
 0003:000009dc       $SG26236                   00000001800439dc     c1_SpeedgoatCANOpen2Buses100us.obj
 0003:000009e8       $SG26237                   00000001800439e8     c1_SpeedgoatCANOpen2Buses100us.obj
 0003:000009fc       $SG26238                   00000001800439fc     c1_SpeedgoatCANOpen2Buses100us.obj
 0003:00000a08       $SG26239                   0000000180043a08     c1_SpeedgoatCANOpen2Buses100us.obj
 0003:00000a14       $SG26240                   0000000180043a14     c1_SpeedgoatCANOpen2Buses100us.obj
 0003:00000a1c       $SG26242                   0000000180043a1c     c1_SpeedgoatCANOpen2Buses100us.obj
 0003:00000a24       $SG26244                   0000000180043a24     c1_SpeedgoatCANOpen2Buses100us.obj
 0003:00000a30       $SG26246                   0000000180043a30     c1_SpeedgoatCANOpen2Buses100us.obj
 0003:00000a44       $SG26247                   0000000180043a44     c1_SpeedgoatCANOpen2Buses100us.obj
 0003:00000a4c       $SG26248                   0000000180043a4c     c1_SpeedgoatCANOpen2Buses100us.obj
 0003:00000a58       $SG26249                   0000000180043a58     c1_SpeedgoatCANOpen2Buses100us.obj
 0003:00000a6c       $SG26250                   0000000180043a6c     c1_SpeedgoatCANOpen2Buses100us.obj
 0003:00000a78       $SG26251                   0000000180043a78     c1_SpeedgoatCANOpen2Buses100us.obj
 0003:00000a84       $SG26252                   0000000180043a84     c1_SpeedgoatCANOpen2Buses100us.obj
 0003:00000a8c       $SG26254                   0000000180043a8c     c1_SpeedgoatCANOpen2Buses100us.obj
 0003:00000a94       $SG26256                   0000000180043a94     c1_SpeedgoatCANOpen2Buses100us.obj
 0003:00000aa0       $SG26258                   0000000180043aa0     c1_SpeedgoatCANOpen2Buses100us.obj
 0003:00000ab4       $SG26259                   0000000180043ab4     c1_SpeedgoatCANOpen2Buses100us.obj
 0003:00000abc       $SG26260                   0000000180043abc     c1_SpeedgoatCANOpen2Buses100us.obj
 0003:00000ac8       $SG26261                   0000000180043ac8     c1_SpeedgoatCANOpen2Buses100us.obj
 0003:00000adc       $SG26262                   0000000180043adc     c1_SpeedgoatCANOpen2Buses100us.obj
 0003:00000ae8       $SG26263                   0000000180043ae8     c1_SpeedgoatCANOpen2Buses100us.obj
 0003:00000af4       $SG26264                   0000000180043af4     c1_SpeedgoatCANOpen2Buses100us.obj
 0003:00000afc       $SG26266                   0000000180043afc     c1_SpeedgoatCANOpen2Buses100us.obj
 0003:00000b04       $SG26268                   0000000180043b04     c1_SpeedgoatCANOpen2Buses100us.obj
 0003:00000b10       $SG26270                   0000000180043b10     c1_SpeedgoatCANOpen2Buses100us.obj
 0003:00000b24       $SG26271                   0000000180043b24     c1_SpeedgoatCANOpen2Buses100us.obj
 0003:00000b2c       $SG26272                   0000000180043b2c     c1_SpeedgoatCANOpen2Buses100us.obj
 0003:00000b38       $SG26273                   0000000180043b38     c1_SpeedgoatCANOpen2Buses100us.obj
 0003:00000b4c       $SG26274                   0000000180043b4c     c1_SpeedgoatCANOpen2Buses100us.obj
 0003:00000b58       $SG26275                   0000000180043b58     c1_SpeedgoatCANOpen2Buses100us.obj
 0003:00000b68       $SG26276                   0000000180043b68     c1_SpeedgoatCANOpen2Buses100us.obj
 0003:00000b70       $SG26278                   0000000180043b70     c1_SpeedgoatCANOpen2Buses100us.obj
 0003:00000b78       $SG26280                   0000000180043b78     c1_SpeedgoatCANOpen2Buses100us.obj
 0003:00000b80       $SG26282                   0000000180043b80     c1_SpeedgoatCANOpen2Buses100us.obj
 0003:00000b8c       $SG26283                   0000000180043b8c     c1_SpeedgoatCANOpen2Buses100us.obj
 0003:00000b94       $SG26285                   0000000180043b94     c1_SpeedgoatCANOpen2Buses100us.obj
 0003:00000b9c       $SG26287                   0000000180043b9c     c1_SpeedgoatCANOpen2Buses100us.obj
 0003:00000ba8       $SG26289                   0000000180043ba8     c1_SpeedgoatCANOpen2Buses100us.obj
 0003:00000bbc       $SG26290                   0000000180043bbc     c1_SpeedgoatCANOpen2Buses100us.obj
 0003:00000bc4       $SG26291                   0000000180043bc4     c1_SpeedgoatCANOpen2Buses100us.obj
 0003:00000bd0       $SG26292                   0000000180043bd0     c1_SpeedgoatCANOpen2Buses100us.obj
 0003:00000be4       $SG26293                   0000000180043be4     c1_SpeedgoatCANOpen2Buses100us.obj
 0003:00000bf0       $SG26294                   0000000180043bf0     c1_SpeedgoatCANOpen2Buses100us.obj
 0003:00000bfc       $SG26295                   0000000180043bfc     c1_SpeedgoatCANOpen2Buses100us.obj
 0003:00000c04       $SG26297                   0000000180043c04     c1_SpeedgoatCANOpen2Buses100us.obj
 0003:00000c0c       $SG26299                   0000000180043c0c     c1_SpeedgoatCANOpen2Buses100us.obj
 0003:00000c18       $SG26301                   0000000180043c18     c1_SpeedgoatCANOpen2Buses100us.obj
 0003:00000c2c       $SG26302                   0000000180043c2c     c1_SpeedgoatCANOpen2Buses100us.obj
 0003:00000c34       $SG26303                   0000000180043c34     c1_SpeedgoatCANOpen2Buses100us.obj
 0003:00000c40       $SG26304                   0000000180043c40     c1_SpeedgoatCANOpen2Buses100us.obj
 0003:00000c54       $SG26305                   0000000180043c54     c1_SpeedgoatCANOpen2Buses100us.obj
 0003:00000c60       $SG26306                   0000000180043c60     c1_SpeedgoatCANOpen2Buses100us.obj
 0003:00000c6c       $SG26307                   0000000180043c6c     c1_SpeedgoatCANOpen2Buses100us.obj
 0003:00000c78       $SG26308                   0000000180043c78     c1_SpeedgoatCANOpen2Buses100us.obj
 0003:00000c88       $SG26324                   0000000180043c88     c1_SpeedgoatCANOpen2Buses100us.obj
 0003:00000c98       $SG26326                   0000000180043c98     c1_SpeedgoatCANOpen2Buses100us.obj
 0003:00000ca8       $SG26328                   0000000180043ca8     c1_SpeedgoatCANOpen2Buses100us.obj
 0003:00000cc0       $SG26330                   0000000180043cc0     c1_SpeedgoatCANOpen2Buses100us.obj
 0003:00000cd8       $SG26332                   0000000180043cd8     c1_SpeedgoatCANOpen2Buses100us.obj
 0003:00000cec       $SG26333                   0000000180043cec     c1_SpeedgoatCANOpen2Buses100us.obj
 0003:00000cf8       $SG26334                   0000000180043cf8     c1_SpeedgoatCANOpen2Buses100us.obj
 0003:00000d08       $SG26351                   0000000180043d08     c1_SpeedgoatCANOpen2Buses100us.obj
 0003:00000d30       $SG26353                   0000000180043d30     c1_SpeedgoatCANOpen2Buses100us.obj
 0003:00000d50       $SG26355                   0000000180043d50     c1_SpeedgoatCANOpen2Buses100us.obj
 0003:00000d78       $SG26356                   0000000180043d78     c1_SpeedgoatCANOpen2Buses100us.obj
 0003:00000d98       $SG26366                   0000000180043d98     c1_SpeedgoatCANOpen2Buses100us.obj
 0003:00000da8       $SG26368                   0000000180043da8     c1_SpeedgoatCANOpen2Buses100us.obj
 0003:00000db0       $SG26370                   0000000180043db0     c1_SpeedgoatCANOpen2Buses100us.obj
 0003:00000f28       ?condStart@?L@??chart_debug_initialization@@9@9 0000000180043f28     c1_SpeedgoatCANOpen2Buses100us.obj
 0003:00000f30       ?condEnd@?L@??chart_debug_initialization@@9@9 0000000180043f30     c1_SpeedgoatCANOpen2Buses100us.obj
 0003:00000f38       ?pfixExpr@?L@??chart_debug_initialization@@9@9 0000000180043f38     c1_SpeedgoatCANOpen2Buses100us.obj
 0003:00000f48       ?condStart@?M@??chart_debug_initialization@@9@9 0000000180043f48     c1_SpeedgoatCANOpen2Buses100us.obj
 0003:00000f50       ?condEnd@?M@??chart_debug_initialization@@9@9 0000000180043f50     c1_SpeedgoatCANOpen2Buses100us.obj
 0003:00000f58       ?pfixExpr@?M@??chart_debug_initialization@@9@9 0000000180043f58     c1_SpeedgoatCANOpen2Buses100us.obj
 0003:00000f68       ?condStart@?N@??chart_debug_initialization@@9@9 0000000180043f68     c1_SpeedgoatCANOpen2Buses100us.obj
 0003:00000f70       ?condEnd@?N@??chart_debug_initialization@@9@9 0000000180043f70     c1_SpeedgoatCANOpen2Buses100us.obj
 0003:00000f78       ?pfixExpr@?N@??chart_debug_initialization@@9@9 0000000180043f78     c1_SpeedgoatCANOpen2Buses100us.obj
 0003:00000f84       $SG26467                   0000000180043f84     c1_SpeedgoatCANOpen2Buses100us.obj
 0003:00000f90       $SG26468                   0000000180043f90     c1_SpeedgoatCANOpen2Buses100us.obj
 0003:00000fa0       $SG26469                   0000000180043fa0     c1_SpeedgoatCANOpen2Buses100us.obj
 0003:00000fb0       $SG26470                   0000000180043fb0     c1_SpeedgoatCANOpen2Buses100us.obj
 0003:00000fc0       $SG26471                   0000000180043fc0     c1_SpeedgoatCANOpen2Buses100us.obj
 0003:00000fd0       $SG26472                   0000000180043fd0     c1_SpeedgoatCANOpen2Buses100us.obj
 0003:00000fe0       $SG26473                   0000000180043fe0     c1_SpeedgoatCANOpen2Buses100us.obj
 0003:00000ff0       $SG26474                   0000000180043ff0     c1_SpeedgoatCANOpen2Buses100us.obj
 0003:00001000       $SG26503                   0000000180044000     c1_SpeedgoatCANOpen2Buses100us.obj
 0003:00001018       $SG26519                   0000000180044018     c1_SpeedgoatCANOpen2Buses100us.obj
 0003:00001028       ?checksum@?1??sf_get_sfun_dwork_checksum@@9@9 0000000180044028     c1_SpeedgoatCANOpen2Buses100us.obj
 0003:00001038       $SG26650                   0000000180044038     c1_SpeedgoatCANOpen2Buses100us.obj
 0003:00001060       $SG26523                   0000000180044060     c1_SpeedgoatCANOpen2Buses100us.obj
 0003:000012e0       $SG26608                   00000001800442e0     c1_SpeedgoatCANOpen2Buses100us.obj
 0003:00001448       $SG26658                   0000000180044448     c1_SpeedgoatCANOpen2Buses100us.obj
 0003:00001458       $SG26659                   0000000180044458     c1_SpeedgoatCANOpen2Buses100us.obj
 0003:00001470       $SG26682                   0000000180044470     c1_SpeedgoatCANOpen2Buses100us.obj
 0003:000014a0       $SG26697                   00000001800444a0     c1_SpeedgoatCANOpen2Buses100us.obj
 0003:00001520       $SG25196                   0000000180044520     c2_SpeedgoatCANOpen2Buses100us.obj
 0003:00001528       $SG25197                   0000000180044528     c2_SpeedgoatCANOpen2Buses100us.obj
 0003:00001530       $SG25199                   0000000180044530     c2_SpeedgoatCANOpen2Buses100us.obj
 0003:00001538       $SG25200                   0000000180044538     c2_SpeedgoatCANOpen2Buses100us.obj
 0003:00001540       $SG25202                   0000000180044540     c2_SpeedgoatCANOpen2Buses100us.obj
 0003:00001548       $SG25203                   0000000180044548     c2_SpeedgoatCANOpen2Buses100us.obj
 0003:00001550       $SG25205                   0000000180044550     c2_SpeedgoatCANOpen2Buses100us.obj
 0003:00001558       $SG25206                   0000000180044558     c2_SpeedgoatCANOpen2Buses100us.obj
 0003:00001560       $SG25208                   0000000180044560     c2_SpeedgoatCANOpen2Buses100us.obj
 0003:00001568       $SG25209                   0000000180044568     c2_SpeedgoatCANOpen2Buses100us.obj
 0003:00001570       $SG25210                   0000000180044570     c2_SpeedgoatCANOpen2Buses100us.obj
 0003:0000158c       $SG25212                   000000018004458c     c2_SpeedgoatCANOpen2Buses100us.obj
 0003:00001598       $SG25213                   0000000180044598     c2_SpeedgoatCANOpen2Buses100us.obj
 0003:000015a0       $SG25214                   00000001800445a0     c2_SpeedgoatCANOpen2Buses100us.obj
 0003:000015bc       $SG25216                   00000001800445bc     c2_SpeedgoatCANOpen2Buses100us.obj
 0003:000015c8       $SG25217                   00000001800445c8     c2_SpeedgoatCANOpen2Buses100us.obj
 0003:000015d0       $SG25218                   00000001800445d0     c2_SpeedgoatCANOpen2Buses100us.obj
 0003:000015ec       $SG25220                   00000001800445ec     c2_SpeedgoatCANOpen2Buses100us.obj
 0003:000015f8       $SG25221                   00000001800445f8     c2_SpeedgoatCANOpen2Buses100us.obj
 0003:00001600       $SG25222                   0000000180044600     c2_SpeedgoatCANOpen2Buses100us.obj
 0003:0000161c       $SG25224                   000000018004461c     c2_SpeedgoatCANOpen2Buses100us.obj
 0003:00001628       $SG25225                   0000000180044628     c2_SpeedgoatCANOpen2Buses100us.obj
 0003:00001630       $SG25226                   0000000180044630     c2_SpeedgoatCANOpen2Buses100us.obj
 0003:0000164c       $SG25228                   000000018004464c     c2_SpeedgoatCANOpen2Buses100us.obj
 0003:00001658       $SG25229                   0000000180044658     c2_SpeedgoatCANOpen2Buses100us.obj
 0003:00001660       $SG25230                   0000000180044660     c2_SpeedgoatCANOpen2Buses100us.obj
 0003:0000167c       $SG25529                   000000018004467c     c2_SpeedgoatCANOpen2Buses100us.obj
 0003:00001680       c2_debug_family_names      0000000180044680     c2_SpeedgoatCANOpen2Buses100us.obj
 0003:00001690       c2_b_debug_family_names    0000000180044690     c2_SpeedgoatCANOpen2Buses100us.obj
 0003:000016a0       c2_c_debug_family_names    00000001800446a0     c2_SpeedgoatCANOpen2Buses100us.obj
 0003:000016b0       c2_d_debug_family_names    00000001800446b0     c2_SpeedgoatCANOpen2Buses100us.obj
 0003:000016c0       c2_e_debug_family_names    00000001800446c0     c2_SpeedgoatCANOpen2Buses100us.obj
 0003:000016d8       c2_f_debug_family_names    00000001800446d8     c2_SpeedgoatCANOpen2Buses100us.obj
 0003:000016f0       c2_g_debug_family_names    00000001800446f0     c2_SpeedgoatCANOpen2Buses100us.obj
 0003:00001708       c2_h_debug_family_names    0000000180044708     c2_SpeedgoatCANOpen2Buses100us.obj
 0003:00001720       c2_i_debug_family_names    0000000180044720     c2_SpeedgoatCANOpen2Buses100us.obj
 0003:00001738       c2_j_debug_family_names    0000000180044738     c2_SpeedgoatCANOpen2Buses100us.obj
 0003:00001750       $SG25530                   0000000180044750     c2_SpeedgoatCANOpen2Buses100us.obj
 0003:00001754       $SG25531                   0000000180044754     c2_SpeedgoatCANOpen2Buses100us.obj
 0003:00001758       $SG25532                   0000000180044758     c2_SpeedgoatCANOpen2Buses100us.obj
 0003:0000175c       $SG25533                   000000018004475c     c2_SpeedgoatCANOpen2Buses100us.obj
 0003:00001760       $SG25534                   0000000180044760     c2_SpeedgoatCANOpen2Buses100us.obj
 0003:00001764       $SG25535                   0000000180044764     c2_SpeedgoatCANOpen2Buses100us.obj
 0003:00001768       $SG25536                   0000000180044768     c2_SpeedgoatCANOpen2Buses100us.obj
 0003:0000176c       $SG25537                   000000018004476c     c2_SpeedgoatCANOpen2Buses100us.obj
 0003:00001770       $SG25538                   0000000180044770     c2_SpeedgoatCANOpen2Buses100us.obj
 0003:00001774       $SG25555                   0000000180044774     c2_SpeedgoatCANOpen2Buses100us.obj
 0003:00001778       $SG25550                   0000000180044778     c2_SpeedgoatCANOpen2Buses100us.obj
 0003:00001784       $SG25816                   0000000180044784     c2_SpeedgoatCANOpen2Buses100us.obj
 0003:00001788       $SG25551                   0000000180044788     c2_SpeedgoatCANOpen2Buses100us.obj
 0003:00001794       $SG25860                   0000000180044794     c2_SpeedgoatCANOpen2Buses100us.obj
 0003:00001798       $SG25552                   0000000180044798     c2_SpeedgoatCANOpen2Buses100us.obj
 0003:000017a4       $SG25955                   00000001800447a4     c2_SpeedgoatCANOpen2Buses100us.obj
 0003:000017a8       $SG25553                   00000001800447a8     c2_SpeedgoatCANOpen2Buses100us.obj
 0003:000017b4       $SG26466                   00000001800447b4     c2_SpeedgoatCANOpen2Buses100us.obj
 0003:000017b8       $SG25554                   00000001800447b8     c2_SpeedgoatCANOpen2Buses100us.obj
 0003:000017c4       $SG25556                   00000001800447c4     c2_SpeedgoatCANOpen2Buses100us.obj
 0003:000017cc       $SG26167                   00000001800447cc     c2_SpeedgoatCANOpen2Buses100us.obj
 0003:000017d8       $SG25557                   00000001800447d8     c2_SpeedgoatCANOpen2Buses100us.obj
 0003:00001808       $SG25558                   0000000180044808     c2_SpeedgoatCANOpen2Buses100us.obj
 0003:00001830       $SG25559                   0000000180044830     c2_SpeedgoatCANOpen2Buses100us.obj
 0003:00001848       $SG25560                   0000000180044848     c2_SpeedgoatCANOpen2Buses100us.obj
 0003:00001868       $SG25895                   0000000180044868     c2_SpeedgoatCANOpen2Buses100us.obj
 0003:00001878       $SG26165                   0000000180044878     c2_SpeedgoatCANOpen2Buses100us.obj
 0003:00001888       $SG26169                   0000000180044888     c2_SpeedgoatCANOpen2Buses100us.obj
 0003:00001898       $SG26171                   0000000180044898     c2_SpeedgoatCANOpen2Buses100us.obj
 0003:000018a0       $SG26173                   00000001800448a0     c2_SpeedgoatCANOpen2Buses100us.obj
 0003:000018a8       $SG26175                   00000001800448a8     c2_SpeedgoatCANOpen2Buses100us.obj
 0003:000018b8       $SG26176                   00000001800448b8     c2_SpeedgoatCANOpen2Buses100us.obj
 0003:000018d0       $SG26177                   00000001800448d0     c2_SpeedgoatCANOpen2Buses100us.obj
 0003:000018dc       $SG26179                   00000001800448dc     c2_SpeedgoatCANOpen2Buses100us.obj
 0003:000018e4       $SG26181                   00000001800448e4     c2_SpeedgoatCANOpen2Buses100us.obj
 0003:000018f0       $SG26183                   00000001800448f0     c2_SpeedgoatCANOpen2Buses100us.obj
 0003:000018fc       $SG26184                   00000001800448fc     c2_SpeedgoatCANOpen2Buses100us.obj
 0003:00001904       $SG26186                   0000000180044904     c2_SpeedgoatCANOpen2Buses100us.obj
 0003:0000190c       $SG26188                   000000018004490c     c2_SpeedgoatCANOpen2Buses100us.obj
 0003:00001918       $SG26190                   0000000180044918     c2_SpeedgoatCANOpen2Buses100us.obj
 0003:0000192c       $SG26191                   000000018004492c     c2_SpeedgoatCANOpen2Buses100us.obj
 0003:00001934       $SG26192                   0000000180044934     c2_SpeedgoatCANOpen2Buses100us.obj
 0003:00001940       $SG26193                   0000000180044940     c2_SpeedgoatCANOpen2Buses100us.obj
 0003:00001954       $SG26194                   0000000180044954     c2_SpeedgoatCANOpen2Buses100us.obj
 0003:00001960       $SG26195                   0000000180044960     c2_SpeedgoatCANOpen2Buses100us.obj
 0003:0000196c       $SG26196                   000000018004496c     c2_SpeedgoatCANOpen2Buses100us.obj
 0003:00001974       $SG26198                   0000000180044974     c2_SpeedgoatCANOpen2Buses100us.obj
 0003:0000197c       $SG26200                   000000018004497c     c2_SpeedgoatCANOpen2Buses100us.obj
 0003:00001988       $SG26202                   0000000180044988     c2_SpeedgoatCANOpen2Buses100us.obj
 0003:0000199c       $SG26203                   000000018004499c     c2_SpeedgoatCANOpen2Buses100us.obj
 0003:000019a4       $SG26204                   00000001800449a4     c2_SpeedgoatCANOpen2Buses100us.obj
 0003:000019b0       $SG26205                   00000001800449b0     c2_SpeedgoatCANOpen2Buses100us.obj
 0003:000019c4       $SG26206                   00000001800449c4     c2_SpeedgoatCANOpen2Buses100us.obj
 0003:000019d0       $SG26207                   00000001800449d0     c2_SpeedgoatCANOpen2Buses100us.obj
 0003:000019dc       $SG26208                   00000001800449dc     c2_SpeedgoatCANOpen2Buses100us.obj
 0003:000019e8       $SG26209                   00000001800449e8     c2_SpeedgoatCANOpen2Buses100us.obj
 0003:000019f4       $SG26211                   00000001800449f4     c2_SpeedgoatCANOpen2Buses100us.obj
 0003:000019fc       $SG26213                   00000001800449fc     c2_SpeedgoatCANOpen2Buses100us.obj
 0003:00001a08       $SG26215                   0000000180044a08     c2_SpeedgoatCANOpen2Buses100us.obj
 0003:00001a14       $SG26216                   0000000180044a14     c2_SpeedgoatCANOpen2Buses100us.obj
 0003:00001a1c       $SG26218                   0000000180044a1c     c2_SpeedgoatCANOpen2Buses100us.obj
 0003:00001a24       $SG26220                   0000000180044a24     c2_SpeedgoatCANOpen2Buses100us.obj
 0003:00001a30       $SG26222                   0000000180044a30     c2_SpeedgoatCANOpen2Buses100us.obj
 0003:00001a44       $SG26223                   0000000180044a44     c2_SpeedgoatCANOpen2Buses100us.obj
 0003:00001a4c       $SG26224                   0000000180044a4c     c2_SpeedgoatCANOpen2Buses100us.obj
 0003:00001a58       $SG26225                   0000000180044a58     c2_SpeedgoatCANOpen2Buses100us.obj
 0003:00001a6c       $SG26226                   0000000180044a6c     c2_SpeedgoatCANOpen2Buses100us.obj
 0003:00001a78       $SG26227                   0000000180044a78     c2_SpeedgoatCANOpen2Buses100us.obj
 0003:00001a84       $SG26228                   0000000180044a84     c2_SpeedgoatCANOpen2Buses100us.obj
 0003:00001a8c       $SG26230                   0000000180044a8c     c2_SpeedgoatCANOpen2Buses100us.obj
 0003:00001a94       $SG26232                   0000000180044a94     c2_SpeedgoatCANOpen2Buses100us.obj
 0003:00001aa0       $SG26234                   0000000180044aa0     c2_SpeedgoatCANOpen2Buses100us.obj
 0003:00001ab4       $SG26235                   0000000180044ab4     c2_SpeedgoatCANOpen2Buses100us.obj
 0003:00001abc       $SG26236                   0000000180044abc     c2_SpeedgoatCANOpen2Buses100us.obj
 0003:00001ac8       $SG26237                   0000000180044ac8     c2_SpeedgoatCANOpen2Buses100us.obj
 0003:00001adc       $SG26238                   0000000180044adc     c2_SpeedgoatCANOpen2Buses100us.obj
 0003:00001ae8       $SG26239                   0000000180044ae8     c2_SpeedgoatCANOpen2Buses100us.obj
 0003:00001af4       $SG26240                   0000000180044af4     c2_SpeedgoatCANOpen2Buses100us.obj
 0003:00001afc       $SG26242                   0000000180044afc     c2_SpeedgoatCANOpen2Buses100us.obj
 0003:00001b04       $SG26244                   0000000180044b04     c2_SpeedgoatCANOpen2Buses100us.obj
 0003:00001b10       $SG26246                   0000000180044b10     c2_SpeedgoatCANOpen2Buses100us.obj
 0003:00001b24       $SG26247                   0000000180044b24     c2_SpeedgoatCANOpen2Buses100us.obj
 0003:00001b2c       $SG26248                   0000000180044b2c     c2_SpeedgoatCANOpen2Buses100us.obj
 0003:00001b38       $SG26249                   0000000180044b38     c2_SpeedgoatCANOpen2Buses100us.obj
 0003:00001b4c       $SG26250                   0000000180044b4c     c2_SpeedgoatCANOpen2Buses100us.obj
 0003:00001b58       $SG26251                   0000000180044b58     c2_SpeedgoatCANOpen2Buses100us.obj
 0003:00001b64       $SG26252                   0000000180044b64     c2_SpeedgoatCANOpen2Buses100us.obj
 0003:00001b6c       $SG26254                   0000000180044b6c     c2_SpeedgoatCANOpen2Buses100us.obj
 0003:00001b74       $SG26256                   0000000180044b74     c2_SpeedgoatCANOpen2Buses100us.obj
 0003:00001b80       $SG26258                   0000000180044b80     c2_SpeedgoatCANOpen2Buses100us.obj
 0003:00001b94       $SG26259                   0000000180044b94     c2_SpeedgoatCANOpen2Buses100us.obj
 0003:00001b9c       $SG26260                   0000000180044b9c     c2_SpeedgoatCANOpen2Buses100us.obj
 0003:00001ba8       $SG26261                   0000000180044ba8     c2_SpeedgoatCANOpen2Buses100us.obj
 0003:00001bbc       $SG26262                   0000000180044bbc     c2_SpeedgoatCANOpen2Buses100us.obj
 0003:00001bc8       $SG26263                   0000000180044bc8     c2_SpeedgoatCANOpen2Buses100us.obj
 0003:00001bd4       $SG26264                   0000000180044bd4     c2_SpeedgoatCANOpen2Buses100us.obj
 0003:00001bdc       $SG26266                   0000000180044bdc     c2_SpeedgoatCANOpen2Buses100us.obj
 0003:00001be4       $SG26268                   0000000180044be4     c2_SpeedgoatCANOpen2Buses100us.obj
 0003:00001bf0       $SG26270                   0000000180044bf0     c2_SpeedgoatCANOpen2Buses100us.obj
 0003:00001c04       $SG26271                   0000000180044c04     c2_SpeedgoatCANOpen2Buses100us.obj
 0003:00001c0c       $SG26272                   0000000180044c0c     c2_SpeedgoatCANOpen2Buses100us.obj
 0003:00001c18       $SG26273                   0000000180044c18     c2_SpeedgoatCANOpen2Buses100us.obj
 0003:00001c2c       $SG26274                   0000000180044c2c     c2_SpeedgoatCANOpen2Buses100us.obj
 0003:00001c38       $SG26275                   0000000180044c38     c2_SpeedgoatCANOpen2Buses100us.obj
 0003:00001c48       $SG26276                   0000000180044c48     c2_SpeedgoatCANOpen2Buses100us.obj
 0003:00001c50       $SG26278                   0000000180044c50     c2_SpeedgoatCANOpen2Buses100us.obj
 0003:00001c58       $SG26280                   0000000180044c58     c2_SpeedgoatCANOpen2Buses100us.obj
 0003:00001c60       $SG26282                   0000000180044c60     c2_SpeedgoatCANOpen2Buses100us.obj
 0003:00001c6c       $SG26283                   0000000180044c6c     c2_SpeedgoatCANOpen2Buses100us.obj
 0003:00001c74       $SG26285                   0000000180044c74     c2_SpeedgoatCANOpen2Buses100us.obj
 0003:00001c7c       $SG26287                   0000000180044c7c     c2_SpeedgoatCANOpen2Buses100us.obj
 0003:00001c88       $SG26289                   0000000180044c88     c2_SpeedgoatCANOpen2Buses100us.obj
 0003:00001c9c       $SG26290                   0000000180044c9c     c2_SpeedgoatCANOpen2Buses100us.obj
 0003:00001ca4       $SG26291                   0000000180044ca4     c2_SpeedgoatCANOpen2Buses100us.obj
 0003:00001cb0       $SG26292                   0000000180044cb0     c2_SpeedgoatCANOpen2Buses100us.obj
 0003:00001cc4       $SG26293                   0000000180044cc4     c2_SpeedgoatCANOpen2Buses100us.obj
 0003:00001cd0       $SG26294                   0000000180044cd0     c2_SpeedgoatCANOpen2Buses100us.obj
 0003:00001cdc       $SG26295                   0000000180044cdc     c2_SpeedgoatCANOpen2Buses100us.obj
 0003:00001ce4       $SG26297                   0000000180044ce4     c2_SpeedgoatCANOpen2Buses100us.obj
 0003:00001cec       $SG26299                   0000000180044cec     c2_SpeedgoatCANOpen2Buses100us.obj
 0003:00001cf8       $SG26301                   0000000180044cf8     c2_SpeedgoatCANOpen2Buses100us.obj
 0003:00001d0c       $SG26302                   0000000180044d0c     c2_SpeedgoatCANOpen2Buses100us.obj
 0003:00001d14       $SG26303                   0000000180044d14     c2_SpeedgoatCANOpen2Buses100us.obj
 0003:00001d20       $SG26304                   0000000180044d20     c2_SpeedgoatCANOpen2Buses100us.obj
 0003:00001d34       $SG26305                   0000000180044d34     c2_SpeedgoatCANOpen2Buses100us.obj
 0003:00001d40       $SG26306                   0000000180044d40     c2_SpeedgoatCANOpen2Buses100us.obj
 0003:00001d4c       $SG26307                   0000000180044d4c     c2_SpeedgoatCANOpen2Buses100us.obj
 0003:00001d58       $SG26308                   0000000180044d58     c2_SpeedgoatCANOpen2Buses100us.obj
 0003:00001d68       $SG26324                   0000000180044d68     c2_SpeedgoatCANOpen2Buses100us.obj
 0003:00001d78       $SG26326                   0000000180044d78     c2_SpeedgoatCANOpen2Buses100us.obj
 0003:00001d88       $SG26328                   0000000180044d88     c2_SpeedgoatCANOpen2Buses100us.obj
 0003:00001da0       $SG26330                   0000000180044da0     c2_SpeedgoatCANOpen2Buses100us.obj
 0003:00001db8       $SG26332                   0000000180044db8     c2_SpeedgoatCANOpen2Buses100us.obj
 0003:00001dcc       $SG26333                   0000000180044dcc     c2_SpeedgoatCANOpen2Buses100us.obj
 0003:00001dd8       $SG26334                   0000000180044dd8     c2_SpeedgoatCANOpen2Buses100us.obj
 0003:00001de8       $SG26351                   0000000180044de8     c2_SpeedgoatCANOpen2Buses100us.obj
 0003:00001e10       $SG26353                   0000000180044e10     c2_SpeedgoatCANOpen2Buses100us.obj
 0003:00001e30       $SG26355                   0000000180044e30     c2_SpeedgoatCANOpen2Buses100us.obj
 0003:00001e58       $SG26356                   0000000180044e58     c2_SpeedgoatCANOpen2Buses100us.obj
 0003:00001e78       $SG26366                   0000000180044e78     c2_SpeedgoatCANOpen2Buses100us.obj
 0003:00001e88       $SG26368                   0000000180044e88     c2_SpeedgoatCANOpen2Buses100us.obj
 0003:00001e90       $SG26370                   0000000180044e90     c2_SpeedgoatCANOpen2Buses100us.obj
 0003:00002008       ?condStart@?L@??chart_debug_initialization@@9@9 0000000180045008     c2_SpeedgoatCANOpen2Buses100us.obj
 0003:00002010       ?condEnd@?L@??chart_debug_initialization@@9@9 0000000180045010     c2_SpeedgoatCANOpen2Buses100us.obj
 0003:00002018       ?pfixExpr@?L@??chart_debug_initialization@@9@9 0000000180045018     c2_SpeedgoatCANOpen2Buses100us.obj
 0003:00002028       ?condStart@?M@??chart_debug_initialization@@9@9 0000000180045028     c2_SpeedgoatCANOpen2Buses100us.obj
 0003:00002030       ?condEnd@?M@??chart_debug_initialization@@9@9 0000000180045030     c2_SpeedgoatCANOpen2Buses100us.obj
 0003:00002038       ?pfixExpr@?M@??chart_debug_initialization@@9@9 0000000180045038     c2_SpeedgoatCANOpen2Buses100us.obj
 0003:00002048       ?condStart@?N@??chart_debug_initialization@@9@9 0000000180045048     c2_SpeedgoatCANOpen2Buses100us.obj
 0003:00002050       ?condEnd@?N@??chart_debug_initialization@@9@9 0000000180045050     c2_SpeedgoatCANOpen2Buses100us.obj
 0003:00002058       ?pfixExpr@?N@??chart_debug_initialization@@9@9 0000000180045058     c2_SpeedgoatCANOpen2Buses100us.obj
 0003:00002064       $SG26467                   0000000180045064     c2_SpeedgoatCANOpen2Buses100us.obj
 0003:00002070       $SG26468                   0000000180045070     c2_SpeedgoatCANOpen2Buses100us.obj
 0003:00002080       $SG26469                   0000000180045080     c2_SpeedgoatCANOpen2Buses100us.obj
 0003:00002090       $SG26470                   0000000180045090     c2_SpeedgoatCANOpen2Buses100us.obj
 0003:000020a0       $SG26471                   00000001800450a0     c2_SpeedgoatCANOpen2Buses100us.obj
 0003:000020b0       $SG26472                   00000001800450b0     c2_SpeedgoatCANOpen2Buses100us.obj
 0003:000020c0       $SG26473                   00000001800450c0     c2_SpeedgoatCANOpen2Buses100us.obj
 0003:000020d0       $SG26474                   00000001800450d0     c2_SpeedgoatCANOpen2Buses100us.obj
 0003:000020e0       $SG26503                   00000001800450e0     c2_SpeedgoatCANOpen2Buses100us.obj
 0003:000020f8       $SG26519                   00000001800450f8     c2_SpeedgoatCANOpen2Buses100us.obj
 0003:00002108       ?checksum@?1??sf_get_sfun_dwork_checksum@@9@9 0000000180045108     c2_SpeedgoatCANOpen2Buses100us.obj
 0003:00002118       $SG26650                   0000000180045118     c2_SpeedgoatCANOpen2Buses100us.obj
 0003:00002140       $SG26523                   0000000180045140     c2_SpeedgoatCANOpen2Buses100us.obj
 0003:000023c0       $SG26608                   00000001800453c0     c2_SpeedgoatCANOpen2Buses100us.obj
 0003:00002528       $SG26658                   0000000180045528     c2_SpeedgoatCANOpen2Buses100us.obj
 0003:00002538       $SG26659                   0000000180045538     c2_SpeedgoatCANOpen2Buses100us.obj
 0003:00002550       $SG26682                   0000000180045550     c2_SpeedgoatCANOpen2Buses100us.obj
 0003:00002580       $SG26697                   0000000180045580     c2_SpeedgoatCANOpen2Buses100us.obj
 0003:00002600       $SG25196                   0000000180045600     c3_SpeedgoatCANOpen2Buses100us.obj
 0003:00002608       $SG25197                   0000000180045608     c3_SpeedgoatCANOpen2Buses100us.obj
 0003:00002610       $SG25199                   0000000180045610     c3_SpeedgoatCANOpen2Buses100us.obj
 0003:00002618       $SG25200                   0000000180045618     c3_SpeedgoatCANOpen2Buses100us.obj
 0003:00002620       $SG25202                   0000000180045620     c3_SpeedgoatCANOpen2Buses100us.obj
 0003:00002628       $SG25203                   0000000180045628     c3_SpeedgoatCANOpen2Buses100us.obj
 0003:00002630       $SG25205                   0000000180045630     c3_SpeedgoatCANOpen2Buses100us.obj
 0003:00002638       $SG25206                   0000000180045638     c3_SpeedgoatCANOpen2Buses100us.obj
 0003:00002640       $SG25208                   0000000180045640     c3_SpeedgoatCANOpen2Buses100us.obj
 0003:00002648       $SG25209                   0000000180045648     c3_SpeedgoatCANOpen2Buses100us.obj
 0003:00002650       $SG25210                   0000000180045650     c3_SpeedgoatCANOpen2Buses100us.obj
 0003:0000266c       $SG25212                   000000018004566c     c3_SpeedgoatCANOpen2Buses100us.obj
 0003:00002678       $SG25213                   0000000180045678     c3_SpeedgoatCANOpen2Buses100us.obj
 0003:00002680       $SG25214                   0000000180045680     c3_SpeedgoatCANOpen2Buses100us.obj
 0003:0000269c       $SG25216                   000000018004569c     c3_SpeedgoatCANOpen2Buses100us.obj
 0003:000026a8       $SG25217                   00000001800456a8     c3_SpeedgoatCANOpen2Buses100us.obj
 0003:000026b0       $SG25218                   00000001800456b0     c3_SpeedgoatCANOpen2Buses100us.obj
 0003:000026cc       $SG25220                   00000001800456cc     c3_SpeedgoatCANOpen2Buses100us.obj
 0003:000026d8       $SG25221                   00000001800456d8     c3_SpeedgoatCANOpen2Buses100us.obj
 0003:000026e0       $SG25222                   00000001800456e0     c3_SpeedgoatCANOpen2Buses100us.obj
 0003:000026fc       $SG25224                   00000001800456fc     c3_SpeedgoatCANOpen2Buses100us.obj
 0003:00002708       $SG25225                   0000000180045708     c3_SpeedgoatCANOpen2Buses100us.obj
 0003:00002710       $SG25226                   0000000180045710     c3_SpeedgoatCANOpen2Buses100us.obj
 0003:0000272c       $SG25228                   000000018004572c     c3_SpeedgoatCANOpen2Buses100us.obj
 0003:00002738       $SG25229                   0000000180045738     c3_SpeedgoatCANOpen2Buses100us.obj
 0003:00002740       $SG25230                   0000000180045740     c3_SpeedgoatCANOpen2Buses100us.obj
 0003:0000275c       $SG25529                   000000018004575c     c3_SpeedgoatCANOpen2Buses100us.obj
 0003:00002760       c3_debug_family_names      0000000180045760     c3_SpeedgoatCANOpen2Buses100us.obj
 0003:00002770       c3_b_debug_family_names    0000000180045770     c3_SpeedgoatCANOpen2Buses100us.obj
 0003:00002780       c3_c_debug_family_names    0000000180045780     c3_SpeedgoatCANOpen2Buses100us.obj
 0003:00002790       c3_d_debug_family_names    0000000180045790     c3_SpeedgoatCANOpen2Buses100us.obj
 0003:000027a0       c3_e_debug_family_names    00000001800457a0     c3_SpeedgoatCANOpen2Buses100us.obj
 0003:000027b8       c3_f_debug_family_names    00000001800457b8     c3_SpeedgoatCANOpen2Buses100us.obj
 0003:000027d0       c3_g_debug_family_names    00000001800457d0     c3_SpeedgoatCANOpen2Buses100us.obj
 0003:000027e8       c3_h_debug_family_names    00000001800457e8     c3_SpeedgoatCANOpen2Buses100us.obj
 0003:00002800       c3_i_debug_family_names    0000000180045800     c3_SpeedgoatCANOpen2Buses100us.obj
 0003:00002818       c3_j_debug_family_names    0000000180045818     c3_SpeedgoatCANOpen2Buses100us.obj
 0003:00002830       $SG25530                   0000000180045830     c3_SpeedgoatCANOpen2Buses100us.obj
 0003:00002834       $SG25531                   0000000180045834     c3_SpeedgoatCANOpen2Buses100us.obj
 0003:00002838       $SG25532                   0000000180045838     c3_SpeedgoatCANOpen2Buses100us.obj
 0003:0000283c       $SG25533                   000000018004583c     c3_SpeedgoatCANOpen2Buses100us.obj
 0003:00002840       $SG25534                   0000000180045840     c3_SpeedgoatCANOpen2Buses100us.obj
 0003:00002844       $SG25535                   0000000180045844     c3_SpeedgoatCANOpen2Buses100us.obj
 0003:00002848       $SG25536                   0000000180045848     c3_SpeedgoatCANOpen2Buses100us.obj
 0003:0000284c       $SG25537                   000000018004584c     c3_SpeedgoatCANOpen2Buses100us.obj
 0003:00002850       $SG25538                   0000000180045850     c3_SpeedgoatCANOpen2Buses100us.obj
 0003:00002854       $SG25555                   0000000180045854     c3_SpeedgoatCANOpen2Buses100us.obj
 0003:00002858       $SG25550                   0000000180045858     c3_SpeedgoatCANOpen2Buses100us.obj
 0003:00002864       $SG25816                   0000000180045864     c3_SpeedgoatCANOpen2Buses100us.obj
 0003:00002868       $SG25551                   0000000180045868     c3_SpeedgoatCANOpen2Buses100us.obj
 0003:00002874       $SG25860                   0000000180045874     c3_SpeedgoatCANOpen2Buses100us.obj
 0003:00002878       $SG25552                   0000000180045878     c3_SpeedgoatCANOpen2Buses100us.obj
 0003:00002884       $SG25955                   0000000180045884     c3_SpeedgoatCANOpen2Buses100us.obj
 0003:00002888       $SG25553                   0000000180045888     c3_SpeedgoatCANOpen2Buses100us.obj
 0003:00002894       $SG26466                   0000000180045894     c3_SpeedgoatCANOpen2Buses100us.obj
 0003:00002898       $SG25554                   0000000180045898     c3_SpeedgoatCANOpen2Buses100us.obj
 0003:000028a4       $SG25556                   00000001800458a4     c3_SpeedgoatCANOpen2Buses100us.obj
 0003:000028ac       $SG26167                   00000001800458ac     c3_SpeedgoatCANOpen2Buses100us.obj
 0003:000028b8       $SG25557                   00000001800458b8     c3_SpeedgoatCANOpen2Buses100us.obj
 0003:000028e8       $SG25558                   00000001800458e8     c3_SpeedgoatCANOpen2Buses100us.obj
 0003:00002910       $SG25559                   0000000180045910     c3_SpeedgoatCANOpen2Buses100us.obj
 0003:00002928       $SG25560                   0000000180045928     c3_SpeedgoatCANOpen2Buses100us.obj
 0003:00002948       $SG25895                   0000000180045948     c3_SpeedgoatCANOpen2Buses100us.obj
 0003:00002958       $SG26165                   0000000180045958     c3_SpeedgoatCANOpen2Buses100us.obj
 0003:00002968       $SG26169                   0000000180045968     c3_SpeedgoatCANOpen2Buses100us.obj
 0003:00002978       $SG26171                   0000000180045978     c3_SpeedgoatCANOpen2Buses100us.obj
 0003:00002980       $SG26173                   0000000180045980     c3_SpeedgoatCANOpen2Buses100us.obj
 0003:00002988       $SG26175                   0000000180045988     c3_SpeedgoatCANOpen2Buses100us.obj
 0003:00002998       $SG26176                   0000000180045998     c3_SpeedgoatCANOpen2Buses100us.obj
 0003:000029b0       $SG26177                   00000001800459b0     c3_SpeedgoatCANOpen2Buses100us.obj
 0003:000029bc       $SG26179                   00000001800459bc     c3_SpeedgoatCANOpen2Buses100us.obj
 0003:000029c4       $SG26181                   00000001800459c4     c3_SpeedgoatCANOpen2Buses100us.obj
 0003:000029d0       $SG26183                   00000001800459d0     c3_SpeedgoatCANOpen2Buses100us.obj
 0003:000029dc       $SG26184                   00000001800459dc     c3_SpeedgoatCANOpen2Buses100us.obj
 0003:000029e4       $SG26186                   00000001800459e4     c3_SpeedgoatCANOpen2Buses100us.obj
 0003:000029ec       $SG26188                   00000001800459ec     c3_SpeedgoatCANOpen2Buses100us.obj
 0003:000029f8       $SG26190                   00000001800459f8     c3_SpeedgoatCANOpen2Buses100us.obj
 0003:00002a0c       $SG26191                   0000000180045a0c     c3_SpeedgoatCANOpen2Buses100us.obj
 0003:00002a14       $SG26192                   0000000180045a14     c3_SpeedgoatCANOpen2Buses100us.obj
 0003:00002a20       $SG26193                   0000000180045a20     c3_SpeedgoatCANOpen2Buses100us.obj
 0003:00002a34       $SG26194                   0000000180045a34     c3_SpeedgoatCANOpen2Buses100us.obj
 0003:00002a40       $SG26195                   0000000180045a40     c3_SpeedgoatCANOpen2Buses100us.obj
 0003:00002a4c       $SG26196                   0000000180045a4c     c3_SpeedgoatCANOpen2Buses100us.obj
 0003:00002a54       $SG26198                   0000000180045a54     c3_SpeedgoatCANOpen2Buses100us.obj
 0003:00002a5c       $SG26200                   0000000180045a5c     c3_SpeedgoatCANOpen2Buses100us.obj
 0003:00002a68       $SG26202                   0000000180045a68     c3_SpeedgoatCANOpen2Buses100us.obj
 0003:00002a7c       $SG26203                   0000000180045a7c     c3_SpeedgoatCANOpen2Buses100us.obj
 0003:00002a84       $SG26204                   0000000180045a84     c3_SpeedgoatCANOpen2Buses100us.obj
 0003:00002a90       $SG26205                   0000000180045a90     c3_SpeedgoatCANOpen2Buses100us.obj
 0003:00002aa4       $SG26206                   0000000180045aa4     c3_SpeedgoatCANOpen2Buses100us.obj
 0003:00002ab0       $SG26207                   0000000180045ab0     c3_SpeedgoatCANOpen2Buses100us.obj
 0003:00002abc       $SG26208                   0000000180045abc     c3_SpeedgoatCANOpen2Buses100us.obj
 0003:00002ac8       $SG26209                   0000000180045ac8     c3_SpeedgoatCANOpen2Buses100us.obj
 0003:00002ad4       $SG26211                   0000000180045ad4     c3_SpeedgoatCANOpen2Buses100us.obj
 0003:00002adc       $SG26213                   0000000180045adc     c3_SpeedgoatCANOpen2Buses100us.obj
 0003:00002ae8       $SG26215                   0000000180045ae8     c3_SpeedgoatCANOpen2Buses100us.obj
 0003:00002af4       $SG26216                   0000000180045af4     c3_SpeedgoatCANOpen2Buses100us.obj
 0003:00002afc       $SG26218                   0000000180045afc     c3_SpeedgoatCANOpen2Buses100us.obj
 0003:00002b04       $SG26220                   0000000180045b04     c3_SpeedgoatCANOpen2Buses100us.obj
 0003:00002b10       $SG26222                   0000000180045b10     c3_SpeedgoatCANOpen2Buses100us.obj
 0003:00002b24       $SG26223                   0000000180045b24     c3_SpeedgoatCANOpen2Buses100us.obj
 0003:00002b2c       $SG26224                   0000000180045b2c     c3_SpeedgoatCANOpen2Buses100us.obj
 0003:00002b38       $SG26225                   0000000180045b38     c3_SpeedgoatCANOpen2Buses100us.obj
 0003:00002b4c       $SG26226                   0000000180045b4c     c3_SpeedgoatCANOpen2Buses100us.obj
 0003:00002b58       $SG26227                   0000000180045b58     c3_SpeedgoatCANOpen2Buses100us.obj
 0003:00002b64       $SG26228                   0000000180045b64     c3_SpeedgoatCANOpen2Buses100us.obj
 0003:00002b6c       $SG26230                   0000000180045b6c     c3_SpeedgoatCANOpen2Buses100us.obj
 0003:00002b74       $SG26232                   0000000180045b74     c3_SpeedgoatCANOpen2Buses100us.obj
 0003:00002b80       $SG26234                   0000000180045b80     c3_SpeedgoatCANOpen2Buses100us.obj
 0003:00002b94       $SG26235                   0000000180045b94     c3_SpeedgoatCANOpen2Buses100us.obj
 0003:00002b9c       $SG26236                   0000000180045b9c     c3_SpeedgoatCANOpen2Buses100us.obj
 0003:00002ba8       $SG26237                   0000000180045ba8     c3_SpeedgoatCANOpen2Buses100us.obj
 0003:00002bbc       $SG26238                   0000000180045bbc     c3_SpeedgoatCANOpen2Buses100us.obj
 0003:00002bc8       $SG26239                   0000000180045bc8     c3_SpeedgoatCANOpen2Buses100us.obj
 0003:00002bd4       $SG26240                   0000000180045bd4     c3_SpeedgoatCANOpen2Buses100us.obj
 0003:00002bdc       $SG26242                   0000000180045bdc     c3_SpeedgoatCANOpen2Buses100us.obj
 0003:00002be4       $SG26244                   0000000180045be4     c3_SpeedgoatCANOpen2Buses100us.obj
 0003:00002bf0       $SG26246                   0000000180045bf0     c3_SpeedgoatCANOpen2Buses100us.obj
 0003:00002c04       $SG26247                   0000000180045c04     c3_SpeedgoatCANOpen2Buses100us.obj
 0003:00002c0c       $SG26248                   0000000180045c0c     c3_SpeedgoatCANOpen2Buses100us.obj
 0003:00002c18       $SG26249                   0000000180045c18     c3_SpeedgoatCANOpen2Buses100us.obj
 0003:00002c2c       $SG26250                   0000000180045c2c     c3_SpeedgoatCANOpen2Buses100us.obj
 0003:00002c38       $SG26251                   0000000180045c38     c3_SpeedgoatCANOpen2Buses100us.obj
 0003:00002c44       $SG26252                   0000000180045c44     c3_SpeedgoatCANOpen2Buses100us.obj
 0003:00002c4c       $SG26254                   0000000180045c4c     c3_SpeedgoatCANOpen2Buses100us.obj
 0003:00002c54       $SG26256                   0000000180045c54     c3_SpeedgoatCANOpen2Buses100us.obj
 0003:00002c60       $SG26258                   0000000180045c60     c3_SpeedgoatCANOpen2Buses100us.obj
 0003:00002c74       $SG26259                   0000000180045c74     c3_SpeedgoatCANOpen2Buses100us.obj
 0003:00002c7c       $SG26260                   0000000180045c7c     c3_SpeedgoatCANOpen2Buses100us.obj
 0003:00002c88       $SG26261                   0000000180045c88     c3_SpeedgoatCANOpen2Buses100us.obj
 0003:00002c9c       $SG26262                   0000000180045c9c     c3_SpeedgoatCANOpen2Buses100us.obj
 0003:00002ca8       $SG26263                   0000000180045ca8     c3_SpeedgoatCANOpen2Buses100us.obj
 0003:00002cb4       $SG26264                   0000000180045cb4     c3_SpeedgoatCANOpen2Buses100us.obj
 0003:00002cbc       $SG26266                   0000000180045cbc     c3_SpeedgoatCANOpen2Buses100us.obj
 0003:00002cc4       $SG26268                   0000000180045cc4     c3_SpeedgoatCANOpen2Buses100us.obj
 0003:00002cd0       $SG26270                   0000000180045cd0     c3_SpeedgoatCANOpen2Buses100us.obj
 0003:00002ce4       $SG26271                   0000000180045ce4     c3_SpeedgoatCANOpen2Buses100us.obj
 0003:00002cec       $SG26272                   0000000180045cec     c3_SpeedgoatCANOpen2Buses100us.obj
 0003:00002cf8       $SG26273                   0000000180045cf8     c3_SpeedgoatCANOpen2Buses100us.obj
 0003:00002d0c       $SG26274                   0000000180045d0c     c3_SpeedgoatCANOpen2Buses100us.obj
 0003:00002d18       $SG26275                   0000000180045d18     c3_SpeedgoatCANOpen2Buses100us.obj
 0003:00002d28       $SG26276                   0000000180045d28     c3_SpeedgoatCANOpen2Buses100us.obj
 0003:00002d30       $SG26278                   0000000180045d30     c3_SpeedgoatCANOpen2Buses100us.obj
 0003:00002d38       $SG26280                   0000000180045d38     c3_SpeedgoatCANOpen2Buses100us.obj
 0003:00002d40       $SG26282                   0000000180045d40     c3_SpeedgoatCANOpen2Buses100us.obj
 0003:00002d4c       $SG26283                   0000000180045d4c     c3_SpeedgoatCANOpen2Buses100us.obj
 0003:00002d54       $SG26285                   0000000180045d54     c3_SpeedgoatCANOpen2Buses100us.obj
 0003:00002d5c       $SG26287                   0000000180045d5c     c3_SpeedgoatCANOpen2Buses100us.obj
 0003:00002d68       $SG26289                   0000000180045d68     c3_SpeedgoatCANOpen2Buses100us.obj
 0003:00002d7c       $SG26290                   0000000180045d7c     c3_SpeedgoatCANOpen2Buses100us.obj
 0003:00002d84       $SG26291                   0000000180045d84     c3_SpeedgoatCANOpen2Buses100us.obj
 0003:00002d90       $SG26292                   0000000180045d90     c3_SpeedgoatCANOpen2Buses100us.obj
 0003:00002da4       $SG26293                   0000000180045da4     c3_SpeedgoatCANOpen2Buses100us.obj
 0003:00002db0       $SG26294                   0000000180045db0     c3_SpeedgoatCANOpen2Buses100us.obj
 0003:00002dbc       $SG26295                   0000000180045dbc     c3_SpeedgoatCANOpen2Buses100us.obj
 0003:00002dc4       $SG26297                   0000000180045dc4     c3_SpeedgoatCANOpen2Buses100us.obj
 0003:00002dcc       $SG26299                   0000000180045dcc     c3_SpeedgoatCANOpen2Buses100us.obj
 0003:00002dd8       $SG26301                   0000000180045dd8     c3_SpeedgoatCANOpen2Buses100us.obj
 0003:00002dec       $SG26302                   0000000180045dec     c3_SpeedgoatCANOpen2Buses100us.obj
 0003:00002df4       $SG26303                   0000000180045df4     c3_SpeedgoatCANOpen2Buses100us.obj
 0003:00002e00       $SG26304                   0000000180045e00     c3_SpeedgoatCANOpen2Buses100us.obj
 0003:00002e14       $SG26305                   0000000180045e14     c3_SpeedgoatCANOpen2Buses100us.obj
 0003:00002e20       $SG26306                   0000000180045e20     c3_SpeedgoatCANOpen2Buses100us.obj
 0003:00002e2c       $SG26307                   0000000180045e2c     c3_SpeedgoatCANOpen2Buses100us.obj
 0003:00002e38       $SG26308                   0000000180045e38     c3_SpeedgoatCANOpen2Buses100us.obj
 0003:00002e48       $SG26324                   0000000180045e48     c3_SpeedgoatCANOpen2Buses100us.obj
 0003:00002e58       $SG26326                   0000000180045e58     c3_SpeedgoatCANOpen2Buses100us.obj
 0003:00002e68       $SG26328                   0000000180045e68     c3_SpeedgoatCANOpen2Buses100us.obj
 0003:00002e80       $SG26330                   0000000180045e80     c3_SpeedgoatCANOpen2Buses100us.obj
 0003:00002e98       $SG26332                   0000000180045e98     c3_SpeedgoatCANOpen2Buses100us.obj
 0003:00002eac       $SG26333                   0000000180045eac     c3_SpeedgoatCANOpen2Buses100us.obj
 0003:00002eb8       $SG26334                   0000000180045eb8     c3_SpeedgoatCANOpen2Buses100us.obj
 0003:00002ec8       $SG26351                   0000000180045ec8     c3_SpeedgoatCANOpen2Buses100us.obj
 0003:00002ef0       $SG26353                   0000000180045ef0     c3_SpeedgoatCANOpen2Buses100us.obj
 0003:00002f10       $SG26355                   0000000180045f10     c3_SpeedgoatCANOpen2Buses100us.obj
 0003:00002f38       $SG26356                   0000000180045f38     c3_SpeedgoatCANOpen2Buses100us.obj
 0003:00002f58       $SG26366                   0000000180045f58     c3_SpeedgoatCANOpen2Buses100us.obj
 0003:00002f68       $SG26368                   0000000180045f68     c3_SpeedgoatCANOpen2Buses100us.obj
 0003:00002f70       $SG26370                   0000000180045f70     c3_SpeedgoatCANOpen2Buses100us.obj
 0003:000030e8       ?condStart@?L@??chart_debug_initialization@@9@9 00000001800460e8     c3_SpeedgoatCANOpen2Buses100us.obj
 0003:000030f0       ?condEnd@?L@??chart_debug_initialization@@9@9 00000001800460f0     c3_SpeedgoatCANOpen2Buses100us.obj
 0003:000030f8       ?pfixExpr@?L@??chart_debug_initialization@@9@9 00000001800460f8     c3_SpeedgoatCANOpen2Buses100us.obj
 0003:00003108       ?condStart@?M@??chart_debug_initialization@@9@9 0000000180046108     c3_SpeedgoatCANOpen2Buses100us.obj
 0003:00003110       ?condEnd@?M@??chart_debug_initialization@@9@9 0000000180046110     c3_SpeedgoatCANOpen2Buses100us.obj
 0003:00003118       ?pfixExpr@?M@??chart_debug_initialization@@9@9 0000000180046118     c3_SpeedgoatCANOpen2Buses100us.obj
 0003:00003128       ?condStart@?N@??chart_debug_initialization@@9@9 0000000180046128     c3_SpeedgoatCANOpen2Buses100us.obj
 0003:00003130       ?condEnd@?N@??chart_debug_initialization@@9@9 0000000180046130     c3_SpeedgoatCANOpen2Buses100us.obj
 0003:00003138       ?pfixExpr@?N@??chart_debug_initialization@@9@9 0000000180046138     c3_SpeedgoatCANOpen2Buses100us.obj
 0003:00003144       $SG26467                   0000000180046144     c3_SpeedgoatCANOpen2Buses100us.obj
 0003:00003150       $SG26468                   0000000180046150     c3_SpeedgoatCANOpen2Buses100us.obj
 0003:00003160       $SG26469                   0000000180046160     c3_SpeedgoatCANOpen2Buses100us.obj
 0003:00003170       $SG26470                   0000000180046170     c3_SpeedgoatCANOpen2Buses100us.obj
 0003:00003180       $SG26471                   0000000180046180     c3_SpeedgoatCANOpen2Buses100us.obj
 0003:00003190       $SG26472                   0000000180046190     c3_SpeedgoatCANOpen2Buses100us.obj
 0003:000031a0       $SG26473                   00000001800461a0     c3_SpeedgoatCANOpen2Buses100us.obj
 0003:000031b0       $SG26474                   00000001800461b0     c3_SpeedgoatCANOpen2Buses100us.obj
 0003:000031c0       $SG26503                   00000001800461c0     c3_SpeedgoatCANOpen2Buses100us.obj
 0003:000031d8       $SG26519                   00000001800461d8     c3_SpeedgoatCANOpen2Buses100us.obj
 0003:000031e8       ?checksum@?1??sf_get_sfun_dwork_checksum@@9@9 00000001800461e8     c3_SpeedgoatCANOpen2Buses100us.obj
 0003:000031f8       $SG26650                   00000001800461f8     c3_SpeedgoatCANOpen2Buses100us.obj
 0003:00003220       $SG26523                   0000000180046220     c3_SpeedgoatCANOpen2Buses100us.obj
 0003:000034a0       $SG26608                   00000001800464a0     c3_SpeedgoatCANOpen2Buses100us.obj
 0003:00003608       $SG26658                   0000000180046608     c3_SpeedgoatCANOpen2Buses100us.obj
 0003:00003618       $SG26659                   0000000180046618     c3_SpeedgoatCANOpen2Buses100us.obj
 0003:00003630       $SG26682                   0000000180046630     c3_SpeedgoatCANOpen2Buses100us.obj
 0003:00003660       $SG26697                   0000000180046660     c3_SpeedgoatCANOpen2Buses100us.obj
 0003:000036e0       $SG25189                   00000001800466e0     c4_SpeedgoatCANOpen2Buses100us.obj
 0003:000036e8       $SG25190                   00000001800466e8     c4_SpeedgoatCANOpen2Buses100us.obj
 0003:000036f0       $SG25192                   00000001800466f0     c4_SpeedgoatCANOpen2Buses100us.obj
 0003:000036f8       $SG25193                   00000001800466f8     c4_SpeedgoatCANOpen2Buses100us.obj
 0003:00003700       $SG25195                   0000000180046700     c4_SpeedgoatCANOpen2Buses100us.obj
 0003:00003708       $SG25196                   0000000180046708     c4_SpeedgoatCANOpen2Buses100us.obj
 0003:00003710       $SG25197                   0000000180046710     c4_SpeedgoatCANOpen2Buses100us.obj
 0003:0000372c       $SG25199                   000000018004672c     c4_SpeedgoatCANOpen2Buses100us.obj
 0003:00003738       $SG25200                   0000000180046738     c4_SpeedgoatCANOpen2Buses100us.obj
 0003:00003740       $SG25201                   0000000180046740     c4_SpeedgoatCANOpen2Buses100us.obj
 0003:0000375c       $SG25460                   000000018004675c     c4_SpeedgoatCANOpen2Buses100us.obj
 0003:00003760       c4_debug_family_names      0000000180046760     c4_SpeedgoatCANOpen2Buses100us.obj
 0003:00003770       c4_b_debug_family_names    0000000180046770     c4_SpeedgoatCANOpen2Buses100us.obj
 0003:00003780       c4_c_debug_family_names    0000000180046780     c4_SpeedgoatCANOpen2Buses100us.obj
 0003:00003798       c4_d_debug_family_names    0000000180046798     c4_SpeedgoatCANOpen2Buses100us.obj
 0003:000037b0       $SG25461                   00000001800467b0     c4_SpeedgoatCANOpen2Buses100us.obj
 0003:000037b4       $SG25462                   00000001800467b4     c4_SpeedgoatCANOpen2Buses100us.obj
 0003:000037b8       $SG25463                   00000001800467b8     c4_SpeedgoatCANOpen2Buses100us.obj
 0003:000037bc       $SG25471                   00000001800467bc     c4_SpeedgoatCANOpen2Buses100us.obj
 0003:000037c4       $SG25587                   00000001800467c4     c4_SpeedgoatCANOpen2Buses100us.obj
 0003:000037c8       $SG25472                   00000001800467c8     c4_SpeedgoatCANOpen2Buses100us.obj
 0003:000037f4       $SG25631                   00000001800467f4     c4_SpeedgoatCANOpen2Buses100us.obj
 0003:000037f8       $SG25473                   00000001800467f8     c4_SpeedgoatCANOpen2Buses100us.obj
 0003:0000381c       $SG25726                   000000018004681c     c4_SpeedgoatCANOpen2Buses100us.obj
 0003:00003820       $SG25474                   0000000180046820     c4_SpeedgoatCANOpen2Buses100us.obj
 0003:00003838       $SG25475                   0000000180046838     c4_SpeedgoatCANOpen2Buses100us.obj
 0003:00003858       $SG25666                   0000000180046858     c4_SpeedgoatCANOpen2Buses100us.obj
 0003:00003868       $SG25895                   0000000180046868     c4_SpeedgoatCANOpen2Buses100us.obj
 0003:00003874       $SG25897                   0000000180046874     c4_SpeedgoatCANOpen2Buses100us.obj
 0003:00003880       $SG25899                   0000000180046880     c4_SpeedgoatCANOpen2Buses100us.obj
 0003:00003890       $SG25901                   0000000180046890     c4_SpeedgoatCANOpen2Buses100us.obj
 0003:00003898       $SG25903                   0000000180046898     c4_SpeedgoatCANOpen2Buses100us.obj
 0003:000038a0       $SG25905                   00000001800468a0     c4_SpeedgoatCANOpen2Buses100us.obj
 0003:000038b0       $SG25906                   00000001800468b0     c4_SpeedgoatCANOpen2Buses100us.obj
 0003:000038c8       $SG25907                   00000001800468c8     c4_SpeedgoatCANOpen2Buses100us.obj
 0003:000038d4       $SG25909                   00000001800468d4     c4_SpeedgoatCANOpen2Buses100us.obj
 0003:000038dc       $SG25911                   00000001800468dc     c4_SpeedgoatCANOpen2Buses100us.obj
 0003:000038e8       $SG25913                   00000001800468e8     c4_SpeedgoatCANOpen2Buses100us.obj
 0003:000038f4       $SG25914                   00000001800468f4     c4_SpeedgoatCANOpen2Buses100us.obj
 0003:000038fc       $SG25916                   00000001800468fc     c4_SpeedgoatCANOpen2Buses100us.obj
 0003:00003904       $SG25918                   0000000180046904     c4_SpeedgoatCANOpen2Buses100us.obj
 0003:00003910       $SG25920                   0000000180046910     c4_SpeedgoatCANOpen2Buses100us.obj
 0003:00003924       $SG25921                   0000000180046924     c4_SpeedgoatCANOpen2Buses100us.obj
 0003:0000392c       $SG25922                   000000018004692c     c4_SpeedgoatCANOpen2Buses100us.obj
 0003:00003938       $SG25923                   0000000180046938     c4_SpeedgoatCANOpen2Buses100us.obj
 0003:0000394c       $SG25924                   000000018004694c     c4_SpeedgoatCANOpen2Buses100us.obj
 0003:00003958       $SG25925                   0000000180046958     c4_SpeedgoatCANOpen2Buses100us.obj
 0003:00003964       $SG25926                   0000000180046964     c4_SpeedgoatCANOpen2Buses100us.obj
 0003:00003970       $SG25927                   0000000180046970     c4_SpeedgoatCANOpen2Buses100us.obj
 0003:0000397c       $SG25929                   000000018004697c     c4_SpeedgoatCANOpen2Buses100us.obj
 0003:00003984       $SG25931                   0000000180046984     c4_SpeedgoatCANOpen2Buses100us.obj
 0003:00003990       $SG25933                   0000000180046990     c4_SpeedgoatCANOpen2Buses100us.obj
 0003:0000399c       $SG25934                   000000018004699c     c4_SpeedgoatCANOpen2Buses100us.obj
 0003:000039a4       $SG25936                   00000001800469a4     c4_SpeedgoatCANOpen2Buses100us.obj
 0003:000039ac       $SG25938                   00000001800469ac     c4_SpeedgoatCANOpen2Buses100us.obj
 0003:000039b8       $SG25940                   00000001800469b8     c4_SpeedgoatCANOpen2Buses100us.obj
 0003:000039cc       $SG25941                   00000001800469cc     c4_SpeedgoatCANOpen2Buses100us.obj
 0003:000039d4       $SG25942                   00000001800469d4     c4_SpeedgoatCANOpen2Buses100us.obj
 0003:000039e0       $SG25943                   00000001800469e0     c4_SpeedgoatCANOpen2Buses100us.obj
 0003:000039f4       $SG25944                   00000001800469f4     c4_SpeedgoatCANOpen2Buses100us.obj
 0003:00003a00       $SG25945                   0000000180046a00     c4_SpeedgoatCANOpen2Buses100us.obj
 0003:00003a10       $SG25946                   0000000180046a10     c4_SpeedgoatCANOpen2Buses100us.obj
 0003:00003a18       $SG25947                   0000000180046a18     c4_SpeedgoatCANOpen2Buses100us.obj
 0003:00003a20       $SG25948                   0000000180046a20     c4_SpeedgoatCANOpen2Buses100us.obj
 0003:00003a30       $SG25964                   0000000180046a30     c4_SpeedgoatCANOpen2Buses100us.obj
 0003:00003a40       $SG25966                   0000000180046a40     c4_SpeedgoatCANOpen2Buses100us.obj
 0003:00003a50       $SG25968                   0000000180046a50     c4_SpeedgoatCANOpen2Buses100us.obj
 0003:00003a68       $SG25970                   0000000180046a68     c4_SpeedgoatCANOpen2Buses100us.obj
 0003:00003a80       $SG25972                   0000000180046a80     c4_SpeedgoatCANOpen2Buses100us.obj
 0003:00003a94       $SG25973                   0000000180046a94     c4_SpeedgoatCANOpen2Buses100us.obj
 0003:00003aa0       $SG25974                   0000000180046aa0     c4_SpeedgoatCANOpen2Buses100us.obj
 0003:00003ab0       $SG25991                   0000000180046ab0     c4_SpeedgoatCANOpen2Buses100us.obj
 0003:00003ad8       $SG25993                   0000000180046ad8     c4_SpeedgoatCANOpen2Buses100us.obj
 0003:00003af8       $SG25995                   0000000180046af8     c4_SpeedgoatCANOpen2Buses100us.obj
 0003:00003b20       $SG25996                   0000000180046b20     c4_SpeedgoatCANOpen2Buses100us.obj
 0003:00003b40       $SG26006                   0000000180046b40     c4_SpeedgoatCANOpen2Buses100us.obj
 0003:00003b50       $SG26008                   0000000180046b50     c4_SpeedgoatCANOpen2Buses100us.obj
 0003:00003b58       $SG26051                   0000000180046b58     c4_SpeedgoatCANOpen2Buses100us.obj
 0003:00003b60       $SG26010                   0000000180046b60     c4_SpeedgoatCANOpen2Buses100us.obj
 0003:00003c38       $SG26050                   0000000180046c38     c4_SpeedgoatCANOpen2Buses100us.obj
 0003:00003c48       $SG26066                   0000000180046c48     c4_SpeedgoatCANOpen2Buses100us.obj
 0003:00003c60       $SG26082                   0000000180046c60     c4_SpeedgoatCANOpen2Buses100us.obj
 0003:00003c70       $SG26086                   0000000180046c70     c4_SpeedgoatCANOpen2Buses100us.obj
 0003:00003ef0       $SG26171                   0000000180046ef0     c4_SpeedgoatCANOpen2Buses100us.obj
 0003:00004008       ?checksum@?1??sf_get_sfun_dwork_checksum@@9@9 0000000180047008     c4_SpeedgoatCANOpen2Buses100us.obj
 0003:00004018       $SG26213                   0000000180047018     c4_SpeedgoatCANOpen2Buses100us.obj
 0003:00004040       $SG26221                   0000000180047040     c4_SpeedgoatCANOpen2Buses100us.obj
 0003:00004050       $SG26222                   0000000180047050     c4_SpeedgoatCANOpen2Buses100us.obj
 0003:00004068       $SG26245                   0000000180047068     c4_SpeedgoatCANOpen2Buses100us.obj
 0003:000040a0       $SG26260                   00000001800470a0     c4_SpeedgoatCANOpen2Buses100us.obj
 0003:00004120       $SG25191                   0000000180047120     c5_SpeedgoatCANOpen2Buses100us.obj
 0003:00004128       $SG25192                   0000000180047128     c5_SpeedgoatCANOpen2Buses100us.obj
 0003:00004130       $SG25194                   0000000180047130     c5_SpeedgoatCANOpen2Buses100us.obj
 0003:00004138       $SG25195                   0000000180047138     c5_SpeedgoatCANOpen2Buses100us.obj
 0003:00004140       $SG25197                   0000000180047140     c5_SpeedgoatCANOpen2Buses100us.obj
 0003:00004148       $SG25198                   0000000180047148     c5_SpeedgoatCANOpen2Buses100us.obj
 0003:00004150       $SG25199                   0000000180047150     c5_SpeedgoatCANOpen2Buses100us.obj
 0003:0000416c       $SG25201                   000000018004716c     c5_SpeedgoatCANOpen2Buses100us.obj
 0003:00004178       $SG25202                   0000000180047178     c5_SpeedgoatCANOpen2Buses100us.obj
 0003:00004180       $SG25203                   0000000180047180     c5_SpeedgoatCANOpen2Buses100us.obj
 0003:0000419c       $SG25480                   000000018004719c     c5_SpeedgoatCANOpen2Buses100us.obj
 0003:000041a0       c5_debug_family_names      00000001800471a0     c5_SpeedgoatCANOpen2Buses100us.obj
 0003:000041b0       c5_b_debug_family_names    00000001800471b0     c5_SpeedgoatCANOpen2Buses100us.obj
 0003:000041c0       c5_c_debug_family_names    00000001800471c0     c5_SpeedgoatCANOpen2Buses100us.obj
 0003:000041d8       c5_d_debug_family_names    00000001800471d8     c5_SpeedgoatCANOpen2Buses100us.obj
 0003:000041f0       $SG25481                   00000001800471f0     c5_SpeedgoatCANOpen2Buses100us.obj
 0003:000041f4       $SG25482                   00000001800471f4     c5_SpeedgoatCANOpen2Buses100us.obj
 0003:000041f8       $SG25483                   00000001800471f8     c5_SpeedgoatCANOpen2Buses100us.obj
 0003:000041fc       $SG25484                   00000001800471fc     c5_SpeedgoatCANOpen2Buses100us.obj
 0003:00004200       $SG25492                   0000000180047200     c5_SpeedgoatCANOpen2Buses100us.obj
 0003:00004210       $SG25493                   0000000180047210     c5_SpeedgoatCANOpen2Buses100us.obj
 0003:0000423c       $SG25622                   000000018004723c     c5_SpeedgoatCANOpen2Buses100us.obj
 0003:00004240       $SG25494                   0000000180047240     c5_SpeedgoatCANOpen2Buses100us.obj
 0003:00004264       $SG25666                   0000000180047264     c5_SpeedgoatCANOpen2Buses100us.obj
 0003:00004268       $SG25495                   0000000180047268     c5_SpeedgoatCANOpen2Buses100us.obj
 0003:0000427c       $SG25761                   000000018004727c     c5_SpeedgoatCANOpen2Buses100us.obj
 0003:00004280       $SG25496                   0000000180047280     c5_SpeedgoatCANOpen2Buses100us.obj
 0003:00004298       $SG25497                   0000000180047298     c5_SpeedgoatCANOpen2Buses100us.obj
 0003:000042b8       $SG25504                   00000001800472b8     c5_SpeedgoatCANOpen2Buses100us.obj
 0003:000042d8       $SG25701                   00000001800472d8     c5_SpeedgoatCANOpen2Buses100us.obj
 0003:000042e8       $SG25957                   00000001800472e8     c5_SpeedgoatCANOpen2Buses100us.obj
 0003:000042f4       $SG25959                   00000001800472f4     c5_SpeedgoatCANOpen2Buses100us.obj
 0003:00004300       $SG25961                   0000000180047300     c5_SpeedgoatCANOpen2Buses100us.obj
 0003:00004310       $SG25963                   0000000180047310     c5_SpeedgoatCANOpen2Buses100us.obj
 0003:00004318       $SG25965                   0000000180047318     c5_SpeedgoatCANOpen2Buses100us.obj
 0003:00004320       $SG25967                   0000000180047320     c5_SpeedgoatCANOpen2Buses100us.obj
 0003:00004330       $SG25968                   0000000180047330     c5_SpeedgoatCANOpen2Buses100us.obj
 0003:00004348       $SG25969                   0000000180047348     c5_SpeedgoatCANOpen2Buses100us.obj
 0003:00004354       $SG25971                   0000000180047354     c5_SpeedgoatCANOpen2Buses100us.obj
 0003:0000435c       $SG25973                   000000018004735c     c5_SpeedgoatCANOpen2Buses100us.obj
 0003:00004368       $SG25975                   0000000180047368     c5_SpeedgoatCANOpen2Buses100us.obj
 0003:00004374       $SG25976                   0000000180047374     c5_SpeedgoatCANOpen2Buses100us.obj
 0003:0000437c       $SG25978                   000000018004737c     c5_SpeedgoatCANOpen2Buses100us.obj
 0003:00004384       $SG25980                   0000000180047384     c5_SpeedgoatCANOpen2Buses100us.obj
 0003:00004390       $SG25982                   0000000180047390     c5_SpeedgoatCANOpen2Buses100us.obj
 0003:000043a4       $SG25983                   00000001800473a4     c5_SpeedgoatCANOpen2Buses100us.obj
 0003:000043ac       $SG25984                   00000001800473ac     c5_SpeedgoatCANOpen2Buses100us.obj
 0003:000043b8       $SG25985                   00000001800473b8     c5_SpeedgoatCANOpen2Buses100us.obj
 0003:000043cc       $SG25986                   00000001800473cc     c5_SpeedgoatCANOpen2Buses100us.obj
 0003:000043d8       $SG25987                   00000001800473d8     c5_SpeedgoatCANOpen2Buses100us.obj
 0003:000043e4       $SG25988                   00000001800473e4     c5_SpeedgoatCANOpen2Buses100us.obj
 0003:000043ec       $SG25990                   00000001800473ec     c5_SpeedgoatCANOpen2Buses100us.obj
 0003:000043f4       $SG25992                   00000001800473f4     c5_SpeedgoatCANOpen2Buses100us.obj
 0003:00004400       $SG25994                   0000000180047400     c5_SpeedgoatCANOpen2Buses100us.obj
 0003:00004414       $SG25995                   0000000180047414     c5_SpeedgoatCANOpen2Buses100us.obj
 0003:0000441c       $SG25996                   000000018004741c     c5_SpeedgoatCANOpen2Buses100us.obj
 0003:00004428       $SG25997                   0000000180047428     c5_SpeedgoatCANOpen2Buses100us.obj
 0003:0000443c       $SG25998                   000000018004743c     c5_SpeedgoatCANOpen2Buses100us.obj
 0003:00004448       $SG25999                   0000000180047448     c5_SpeedgoatCANOpen2Buses100us.obj
 0003:00004454       $SG26000                   0000000180047454     c5_SpeedgoatCANOpen2Buses100us.obj
 0003:00004460       $SG26001                   0000000180047460     c5_SpeedgoatCANOpen2Buses100us.obj
 0003:0000446c       $SG26003                   000000018004746c     c5_SpeedgoatCANOpen2Buses100us.obj
 0003:00004474       $SG26005                   0000000180047474     c5_SpeedgoatCANOpen2Buses100us.obj
 0003:00004480       $SG26007                   0000000180047480     c5_SpeedgoatCANOpen2Buses100us.obj
 0003:0000448c       $SG26008                   000000018004748c     c5_SpeedgoatCANOpen2Buses100us.obj
 0003:00004494       $SG26010                   0000000180047494     c5_SpeedgoatCANOpen2Buses100us.obj
 0003:0000449c       $SG26012                   000000018004749c     c5_SpeedgoatCANOpen2Buses100us.obj
 0003:000044a8       $SG26014                   00000001800474a8     c5_SpeedgoatCANOpen2Buses100us.obj
 0003:000044bc       $SG26015                   00000001800474bc     c5_SpeedgoatCANOpen2Buses100us.obj
 0003:000044c4       $SG26016                   00000001800474c4     c5_SpeedgoatCANOpen2Buses100us.obj
 0003:000044d0       $SG26017                   00000001800474d0     c5_SpeedgoatCANOpen2Buses100us.obj
 0003:000044e4       $SG26018                   00000001800474e4     c5_SpeedgoatCANOpen2Buses100us.obj
 0003:000044f0       $SG26019                   00000001800474f0     c5_SpeedgoatCANOpen2Buses100us.obj
 0003:00004500       $SG26020                   0000000180047500     c5_SpeedgoatCANOpen2Buses100us.obj
 0003:00004508       $SG26021                   0000000180047508     c5_SpeedgoatCANOpen2Buses100us.obj
 0003:00004510       $SG26022                   0000000180047510     c5_SpeedgoatCANOpen2Buses100us.obj
 0003:00004520       $SG26038                   0000000180047520     c5_SpeedgoatCANOpen2Buses100us.obj
 0003:00004530       $SG26040                   0000000180047530     c5_SpeedgoatCANOpen2Buses100us.obj
 0003:00004540       $SG26042                   0000000180047540     c5_SpeedgoatCANOpen2Buses100us.obj
 0003:00004558       $SG26044                   0000000180047558     c5_SpeedgoatCANOpen2Buses100us.obj
 0003:00004570       $SG26046                   0000000180047570     c5_SpeedgoatCANOpen2Buses100us.obj
 0003:00004584       $SG26047                   0000000180047584     c5_SpeedgoatCANOpen2Buses100us.obj
 0003:00004590       $SG26048                   0000000180047590     c5_SpeedgoatCANOpen2Buses100us.obj
 0003:000045a0       $SG26065                   00000001800475a0     c5_SpeedgoatCANOpen2Buses100us.obj
 0003:000045c8       $SG26067                   00000001800475c8     c5_SpeedgoatCANOpen2Buses100us.obj
 0003:000045e8       $SG26069                   00000001800475e8     c5_SpeedgoatCANOpen2Buses100us.obj
 0003:00004610       $SG26070                   0000000180047610     c5_SpeedgoatCANOpen2Buses100us.obj
 0003:00004630       $SG26080                   0000000180047630     c5_SpeedgoatCANOpen2Buses100us.obj
 0003:00004640       $SG26082                   0000000180047640     c5_SpeedgoatCANOpen2Buses100us.obj
 0003:00004648       $SG26128                   0000000180047648     c5_SpeedgoatCANOpen2Buses100us.obj
 0003:00004660       $SG26084                   0000000180047660     c5_SpeedgoatCANOpen2Buses100us.obj
 0003:00004780       $SG26129                   0000000180047780     c5_SpeedgoatCANOpen2Buses100us.obj
 0003:00004790       $SG26130                   0000000180047790     c5_SpeedgoatCANOpen2Buses100us.obj
 0003:000047a0       $SG26147                   00000001800477a0     c5_SpeedgoatCANOpen2Buses100us.obj
 0003:000047b8       $SG26163                   00000001800477b8     c5_SpeedgoatCANOpen2Buses100us.obj
 0003:000047c8       ?checksum@?1??sf_get_sfun_dwork_checksum@@9@9 00000001800477c8     c5_SpeedgoatCANOpen2Buses100us.obj
 0003:000047d8       $SG26294                   00000001800477d8     c5_SpeedgoatCANOpen2Buses100us.obj
 0003:00004800       $SG26167                   0000000180047800     c5_SpeedgoatCANOpen2Buses100us.obj
 0003:00004a80       $SG26252                   0000000180047a80     c5_SpeedgoatCANOpen2Buses100us.obj
 0003:00004bc0       $SG26302                   0000000180047bc0     c5_SpeedgoatCANOpen2Buses100us.obj
 0003:00004bd0       $SG26303                   0000000180047bd0     c5_SpeedgoatCANOpen2Buses100us.obj
 0003:00004be8       $SG26326                   0000000180047be8     c5_SpeedgoatCANOpen2Buses100us.obj
 0003:00004c20       $SG26341                   0000000180047c20     c5_SpeedgoatCANOpen2Buses100us.obj
 0003:00004ca0       $SG25196                   0000000180047ca0     c12_SpeedgoatCANOpen2Buses100us.obj
 0003:00004ca8       $SG25197                   0000000180047ca8     c12_SpeedgoatCANOpen2Buses100us.obj
 0003:00004cb0       $SG25199                   0000000180047cb0     c12_SpeedgoatCANOpen2Buses100us.obj
 0003:00004cb8       $SG25200                   0000000180047cb8     c12_SpeedgoatCANOpen2Buses100us.obj
 0003:00004cc0       $SG25202                   0000000180047cc0     c12_SpeedgoatCANOpen2Buses100us.obj
 0003:00004cc8       $SG25203                   0000000180047cc8     c12_SpeedgoatCANOpen2Buses100us.obj
 0003:00004cd0       $SG25205                   0000000180047cd0     c12_SpeedgoatCANOpen2Buses100us.obj
 0003:00004cd8       $SG25206                   0000000180047cd8     c12_SpeedgoatCANOpen2Buses100us.obj
 0003:00004ce0       $SG25208                   0000000180047ce0     c12_SpeedgoatCANOpen2Buses100us.obj
 0003:00004ce8       $SG25209                   0000000180047ce8     c12_SpeedgoatCANOpen2Buses100us.obj
 0003:00004cf0       $SG25210                   0000000180047cf0     c12_SpeedgoatCANOpen2Buses100us.obj
 0003:00004d0c       $SG25212                   0000000180047d0c     c12_SpeedgoatCANOpen2Buses100us.obj
 0003:00004d18       $SG25213                   0000000180047d18     c12_SpeedgoatCANOpen2Buses100us.obj
 0003:00004d20       $SG25214                   0000000180047d20     c12_SpeedgoatCANOpen2Buses100us.obj
 0003:00004d3c       $SG25216                   0000000180047d3c     c12_SpeedgoatCANOpen2Buses100us.obj
 0003:00004d48       $SG25217                   0000000180047d48     c12_SpeedgoatCANOpen2Buses100us.obj
 0003:00004d50       $SG25218                   0000000180047d50     c12_SpeedgoatCANOpen2Buses100us.obj
 0003:00004d6c       $SG25220                   0000000180047d6c     c12_SpeedgoatCANOpen2Buses100us.obj
 0003:00004d78       $SG25221                   0000000180047d78     c12_SpeedgoatCANOpen2Buses100us.obj
 0003:00004d80       $SG25222                   0000000180047d80     c12_SpeedgoatCANOpen2Buses100us.obj
 0003:00004d9c       $SG25224                   0000000180047d9c     c12_SpeedgoatCANOpen2Buses100us.obj
 0003:00004da8       $SG25225                   0000000180047da8     c12_SpeedgoatCANOpen2Buses100us.obj
 0003:00004db0       $SG25226                   0000000180047db0     c12_SpeedgoatCANOpen2Buses100us.obj
 0003:00004dcc       $SG25228                   0000000180047dcc     c12_SpeedgoatCANOpen2Buses100us.obj
 0003:00004dd8       $SG25229                   0000000180047dd8     c12_SpeedgoatCANOpen2Buses100us.obj
 0003:00004de0       $SG25230                   0000000180047de0     c12_SpeedgoatCANOpen2Buses100us.obj
 0003:00004dfc       $SG25529                   0000000180047dfc     c12_SpeedgoatCANOpen2Buses100us.obj
 0003:00004e00       c12_debug_family_names     0000000180047e00     c12_SpeedgoatCANOpen2Buses100us.obj
 0003:00004e10       c12_b_debug_family_names   0000000180047e10     c12_SpeedgoatCANOpen2Buses100us.obj
 0003:00004e20       c12_c_debug_family_names   0000000180047e20     c12_SpeedgoatCANOpen2Buses100us.obj
 0003:00004e30       c12_d_debug_family_names   0000000180047e30     c12_SpeedgoatCANOpen2Buses100us.obj
 0003:00004e40       c12_e_debug_family_names   0000000180047e40     c12_SpeedgoatCANOpen2Buses100us.obj
 0003:00004e58       c12_f_debug_family_names   0000000180047e58     c12_SpeedgoatCANOpen2Buses100us.obj
 0003:00004e70       c12_g_debug_family_names   0000000180047e70     c12_SpeedgoatCANOpen2Buses100us.obj
 0003:00004e88       c12_h_debug_family_names   0000000180047e88     c12_SpeedgoatCANOpen2Buses100us.obj
 0003:00004ea0       c12_i_debug_family_names   0000000180047ea0     c12_SpeedgoatCANOpen2Buses100us.obj
 0003:00004eb8       c12_j_debug_family_names   0000000180047eb8     c12_SpeedgoatCANOpen2Buses100us.obj
 0003:00004ed0       $SG25530                   0000000180047ed0     c12_SpeedgoatCANOpen2Buses100us.obj
 0003:00004ed4       $SG25531                   0000000180047ed4     c12_SpeedgoatCANOpen2Buses100us.obj
 0003:00004ed8       $SG25532                   0000000180047ed8     c12_SpeedgoatCANOpen2Buses100us.obj
 0003:00004edc       $SG25533                   0000000180047edc     c12_SpeedgoatCANOpen2Buses100us.obj
 0003:00004ee0       $SG25534                   0000000180047ee0     c12_SpeedgoatCANOpen2Buses100us.obj
 0003:00004ee4       $SG25535                   0000000180047ee4     c12_SpeedgoatCANOpen2Buses100us.obj
 0003:00004ee8       $SG25536                   0000000180047ee8     c12_SpeedgoatCANOpen2Buses100us.obj
 0003:00004eec       $SG25537                   0000000180047eec     c12_SpeedgoatCANOpen2Buses100us.obj
 0003:00004ef0       $SG25538                   0000000180047ef0     c12_SpeedgoatCANOpen2Buses100us.obj
 0003:00004ef4       $SG25555                   0000000180047ef4     c12_SpeedgoatCANOpen2Buses100us.obj
 0003:00004ef8       $SG25550                   0000000180047ef8     c12_SpeedgoatCANOpen2Buses100us.obj
 0003:00004f04       $SG25816                   0000000180047f04     c12_SpeedgoatCANOpen2Buses100us.obj
 0003:00004f08       $SG25551                   0000000180047f08     c12_SpeedgoatCANOpen2Buses100us.obj
 0003:00004f14       $SG25860                   0000000180047f14     c12_SpeedgoatCANOpen2Buses100us.obj
 0003:00004f18       $SG25552                   0000000180047f18     c12_SpeedgoatCANOpen2Buses100us.obj
 0003:00004f24       $SG25955                   0000000180047f24     c12_SpeedgoatCANOpen2Buses100us.obj
 0003:00004f28       $SG25553                   0000000180047f28     c12_SpeedgoatCANOpen2Buses100us.obj
 0003:00004f34       $SG26466                   0000000180047f34     c12_SpeedgoatCANOpen2Buses100us.obj
 0003:00004f38       $SG25554                   0000000180047f38     c12_SpeedgoatCANOpen2Buses100us.obj
 0003:00004f44       $SG25556                   0000000180047f44     c12_SpeedgoatCANOpen2Buses100us.obj
 0003:00004f4c       $SG26167                   0000000180047f4c     c12_SpeedgoatCANOpen2Buses100us.obj
 0003:00004f58       $SG25557                   0000000180047f58     c12_SpeedgoatCANOpen2Buses100us.obj
 0003:00004f88       $SG25558                   0000000180047f88     c12_SpeedgoatCANOpen2Buses100us.obj
 0003:00004fb0       $SG25559                   0000000180047fb0     c12_SpeedgoatCANOpen2Buses100us.obj
 0003:00004fc8       $SG25560                   0000000180047fc8     c12_SpeedgoatCANOpen2Buses100us.obj
 0003:00004fe8       $SG25895                   0000000180047fe8     c12_SpeedgoatCANOpen2Buses100us.obj
 0003:00004ff8       $SG26165                   0000000180047ff8     c12_SpeedgoatCANOpen2Buses100us.obj
 0003:00005008       $SG26169                   0000000180048008     c12_SpeedgoatCANOpen2Buses100us.obj
 0003:00005018       $SG26171                   0000000180048018     c12_SpeedgoatCANOpen2Buses100us.obj
 0003:00005020       $SG26173                   0000000180048020     c12_SpeedgoatCANOpen2Buses100us.obj
 0003:00005028       $SG26175                   0000000180048028     c12_SpeedgoatCANOpen2Buses100us.obj
 0003:00005038       $SG26176                   0000000180048038     c12_SpeedgoatCANOpen2Buses100us.obj
 0003:00005050       $SG26177                   0000000180048050     c12_SpeedgoatCANOpen2Buses100us.obj
 0003:0000505c       $SG26179                   000000018004805c     c12_SpeedgoatCANOpen2Buses100us.obj
 0003:00005064       $SG26181                   0000000180048064     c12_SpeedgoatCANOpen2Buses100us.obj
 0003:00005070       $SG26183                   0000000180048070     c12_SpeedgoatCANOpen2Buses100us.obj
 0003:0000507c       $SG26184                   000000018004807c     c12_SpeedgoatCANOpen2Buses100us.obj
 0003:00005084       $SG26186                   0000000180048084     c12_SpeedgoatCANOpen2Buses100us.obj
 0003:0000508c       $SG26188                   000000018004808c     c12_SpeedgoatCANOpen2Buses100us.obj
 0003:00005098       $SG26190                   0000000180048098     c12_SpeedgoatCANOpen2Buses100us.obj
 0003:000050ac       $SG26191                   00000001800480ac     c12_SpeedgoatCANOpen2Buses100us.obj
 0003:000050b4       $SG26192                   00000001800480b4     c12_SpeedgoatCANOpen2Buses100us.obj
 0003:000050c0       $SG26193                   00000001800480c0     c12_SpeedgoatCANOpen2Buses100us.obj
 0003:000050d4       $SG26194                   00000001800480d4     c12_SpeedgoatCANOpen2Buses100us.obj
 0003:000050e0       $SG26195                   00000001800480e0     c12_SpeedgoatCANOpen2Buses100us.obj
 0003:000050ec       $SG26196                   00000001800480ec     c12_SpeedgoatCANOpen2Buses100us.obj
 0003:000050f4       $SG26198                   00000001800480f4     c12_SpeedgoatCANOpen2Buses100us.obj
 0003:000050fc       $SG26200                   00000001800480fc     c12_SpeedgoatCANOpen2Buses100us.obj
 0003:00005108       $SG26202                   0000000180048108     c12_SpeedgoatCANOpen2Buses100us.obj
 0003:0000511c       $SG26203                   000000018004811c     c12_SpeedgoatCANOpen2Buses100us.obj
 0003:00005124       $SG26204                   0000000180048124     c12_SpeedgoatCANOpen2Buses100us.obj
 0003:00005130       $SG26205                   0000000180048130     c12_SpeedgoatCANOpen2Buses100us.obj
 0003:00005144       $SG26206                   0000000180048144     c12_SpeedgoatCANOpen2Buses100us.obj
 0003:00005150       $SG26207                   0000000180048150     c12_SpeedgoatCANOpen2Buses100us.obj
 0003:0000515c       $SG26208                   000000018004815c     c12_SpeedgoatCANOpen2Buses100us.obj
 0003:00005168       $SG26209                   0000000180048168     c12_SpeedgoatCANOpen2Buses100us.obj
 0003:00005174       $SG26211                   0000000180048174     c12_SpeedgoatCANOpen2Buses100us.obj
 0003:0000517c       $SG26213                   000000018004817c     c12_SpeedgoatCANOpen2Buses100us.obj
 0003:00005188       $SG26215                   0000000180048188     c12_SpeedgoatCANOpen2Buses100us.obj
 0003:00005194       $SG26216                   0000000180048194     c12_SpeedgoatCANOpen2Buses100us.obj
 0003:0000519c       $SG26218                   000000018004819c     c12_SpeedgoatCANOpen2Buses100us.obj
 0003:000051a4       $SG26220                   00000001800481a4     c12_SpeedgoatCANOpen2Buses100us.obj
 0003:000051b0       $SG26222                   00000001800481b0     c12_SpeedgoatCANOpen2Buses100us.obj
 0003:000051c4       $SG26223                   00000001800481c4     c12_SpeedgoatCANOpen2Buses100us.obj
 0003:000051cc       $SG26224                   00000001800481cc     c12_SpeedgoatCANOpen2Buses100us.obj
 0003:000051d8       $SG26225                   00000001800481d8     c12_SpeedgoatCANOpen2Buses100us.obj
 0003:000051ec       $SG26226                   00000001800481ec     c12_SpeedgoatCANOpen2Buses100us.obj
 0003:000051f8       $SG26227                   00000001800481f8     c12_SpeedgoatCANOpen2Buses100us.obj
 0003:00005204       $SG26228                   0000000180048204     c12_SpeedgoatCANOpen2Buses100us.obj
 0003:0000520c       $SG26230                   000000018004820c     c12_SpeedgoatCANOpen2Buses100us.obj
 0003:00005214       $SG26232                   0000000180048214     c12_SpeedgoatCANOpen2Buses100us.obj
 0003:00005220       $SG26234                   0000000180048220     c12_SpeedgoatCANOpen2Buses100us.obj
 0003:00005234       $SG26235                   0000000180048234     c12_SpeedgoatCANOpen2Buses100us.obj
 0003:0000523c       $SG26236                   000000018004823c     c12_SpeedgoatCANOpen2Buses100us.obj
 0003:00005248       $SG26237                   0000000180048248     c12_SpeedgoatCANOpen2Buses100us.obj
 0003:0000525c       $SG26238                   000000018004825c     c12_SpeedgoatCANOpen2Buses100us.obj
 0003:00005268       $SG26239                   0000000180048268     c12_SpeedgoatCANOpen2Buses100us.obj
 0003:00005274       $SG26240                   0000000180048274     c12_SpeedgoatCANOpen2Buses100us.obj
 0003:0000527c       $SG26242                   000000018004827c     c12_SpeedgoatCANOpen2Buses100us.obj
 0003:00005284       $SG26244                   0000000180048284     c12_SpeedgoatCANOpen2Buses100us.obj
 0003:00005290       $SG26246                   0000000180048290     c12_SpeedgoatCANOpen2Buses100us.obj
 0003:000052a4       $SG26247                   00000001800482a4     c12_SpeedgoatCANOpen2Buses100us.obj
 0003:000052ac       $SG26248                   00000001800482ac     c12_SpeedgoatCANOpen2Buses100us.obj
 0003:000052b8       $SG26249                   00000001800482b8     c12_SpeedgoatCANOpen2Buses100us.obj
 0003:000052cc       $SG26250                   00000001800482cc     c12_SpeedgoatCANOpen2Buses100us.obj
 0003:000052d8       $SG26251                   00000001800482d8     c12_SpeedgoatCANOpen2Buses100us.obj
 0003:000052e4       $SG26252                   00000001800482e4     c12_SpeedgoatCANOpen2Buses100us.obj
 0003:000052ec       $SG26254                   00000001800482ec     c12_SpeedgoatCANOpen2Buses100us.obj
 0003:000052f4       $SG26256                   00000001800482f4     c12_SpeedgoatCANOpen2Buses100us.obj
 0003:00005300       $SG26258                   0000000180048300     c12_SpeedgoatCANOpen2Buses100us.obj
 0003:00005314       $SG26259                   0000000180048314     c12_SpeedgoatCANOpen2Buses100us.obj
 0003:0000531c       $SG26260                   000000018004831c     c12_SpeedgoatCANOpen2Buses100us.obj
 0003:00005328       $SG26261                   0000000180048328     c12_SpeedgoatCANOpen2Buses100us.obj
 0003:0000533c       $SG26262                   000000018004833c     c12_SpeedgoatCANOpen2Buses100us.obj
 0003:00005348       $SG26263                   0000000180048348     c12_SpeedgoatCANOpen2Buses100us.obj
 0003:00005354       $SG26264                   0000000180048354     c12_SpeedgoatCANOpen2Buses100us.obj
 0003:0000535c       $SG26266                   000000018004835c     c12_SpeedgoatCANOpen2Buses100us.obj
 0003:00005364       $SG26268                   0000000180048364     c12_SpeedgoatCANOpen2Buses100us.obj
 0003:00005370       $SG26270                   0000000180048370     c12_SpeedgoatCANOpen2Buses100us.obj
 0003:00005384       $SG26271                   0000000180048384     c12_SpeedgoatCANOpen2Buses100us.obj
 0003:0000538c       $SG26272                   000000018004838c     c12_SpeedgoatCANOpen2Buses100us.obj
 0003:00005398       $SG26273                   0000000180048398     c12_SpeedgoatCANOpen2Buses100us.obj
 0003:000053ac       $SG26274                   00000001800483ac     c12_SpeedgoatCANOpen2Buses100us.obj
 0003:000053b8       $SG26275                   00000001800483b8     c12_SpeedgoatCANOpen2Buses100us.obj
 0003:000053c8       $SG26276                   00000001800483c8     c12_SpeedgoatCANOpen2Buses100us.obj
 0003:000053d0       $SG26278                   00000001800483d0     c12_SpeedgoatCANOpen2Buses100us.obj
 0003:000053d8       $SG26280                   00000001800483d8     c12_SpeedgoatCANOpen2Buses100us.obj
 0003:000053e0       $SG26282                   00000001800483e0     c12_SpeedgoatCANOpen2Buses100us.obj
 0003:000053ec       $SG26283                   00000001800483ec     c12_SpeedgoatCANOpen2Buses100us.obj
 0003:000053f4       $SG26285                   00000001800483f4     c12_SpeedgoatCANOpen2Buses100us.obj
 0003:000053fc       $SG26287                   00000001800483fc     c12_SpeedgoatCANOpen2Buses100us.obj
 0003:00005408       $SG26289                   0000000180048408     c12_SpeedgoatCANOpen2Buses100us.obj
 0003:0000541c       $SG26290                   000000018004841c     c12_SpeedgoatCANOpen2Buses100us.obj
 0003:00005424       $SG26291                   0000000180048424     c12_SpeedgoatCANOpen2Buses100us.obj
 0003:00005430       $SG26292                   0000000180048430     c12_SpeedgoatCANOpen2Buses100us.obj
 0003:00005444       $SG26293                   0000000180048444     c12_SpeedgoatCANOpen2Buses100us.obj
 0003:00005450       $SG26294                   0000000180048450     c12_SpeedgoatCANOpen2Buses100us.obj
 0003:0000545c       $SG26295                   000000018004845c     c12_SpeedgoatCANOpen2Buses100us.obj
 0003:00005464       $SG26297                   0000000180048464     c12_SpeedgoatCANOpen2Buses100us.obj
 0003:0000546c       $SG26299                   000000018004846c     c12_SpeedgoatCANOpen2Buses100us.obj
 0003:00005478       $SG26301                   0000000180048478     c12_SpeedgoatCANOpen2Buses100us.obj
 0003:0000548c       $SG26302                   000000018004848c     c12_SpeedgoatCANOpen2Buses100us.obj
 0003:00005494       $SG26303                   0000000180048494     c12_SpeedgoatCANOpen2Buses100us.obj
 0003:000054a0       $SG26304                   00000001800484a0     c12_SpeedgoatCANOpen2Buses100us.obj
 0003:000054b4       $SG26305                   00000001800484b4     c12_SpeedgoatCANOpen2Buses100us.obj
 0003:000054c0       $SG26306                   00000001800484c0     c12_SpeedgoatCANOpen2Buses100us.obj
 0003:000054cc       $SG26307                   00000001800484cc     c12_SpeedgoatCANOpen2Buses100us.obj
 0003:000054d8       $SG26308                   00000001800484d8     c12_SpeedgoatCANOpen2Buses100us.obj
 0003:000054e8       $SG26324                   00000001800484e8     c12_SpeedgoatCANOpen2Buses100us.obj
 0003:000054f8       $SG26326                   00000001800484f8     c12_SpeedgoatCANOpen2Buses100us.obj
 0003:00005508       $SG26328                   0000000180048508     c12_SpeedgoatCANOpen2Buses100us.obj
 0003:00005520       $SG26330                   0000000180048520     c12_SpeedgoatCANOpen2Buses100us.obj
 0003:00005538       $SG26332                   0000000180048538     c12_SpeedgoatCANOpen2Buses100us.obj
 0003:0000554c       $SG26333                   000000018004854c     c12_SpeedgoatCANOpen2Buses100us.obj
 0003:00005558       $SG26334                   0000000180048558     c12_SpeedgoatCANOpen2Buses100us.obj
 0003:00005568       $SG26351                   0000000180048568     c12_SpeedgoatCANOpen2Buses100us.obj
 0003:00005590       $SG26353                   0000000180048590     c12_SpeedgoatCANOpen2Buses100us.obj
 0003:000055b0       $SG26355                   00000001800485b0     c12_SpeedgoatCANOpen2Buses100us.obj
 0003:000055d8       $SG26356                   00000001800485d8     c12_SpeedgoatCANOpen2Buses100us.obj
 0003:000055f8       $SG26366                   00000001800485f8     c12_SpeedgoatCANOpen2Buses100us.obj
 0003:00005608       $SG26368                   0000000180048608     c12_SpeedgoatCANOpen2Buses100us.obj
 0003:00005610       $SG26370                   0000000180048610     c12_SpeedgoatCANOpen2Buses100us.obj
 0003:00005788       ?condStart@?L@??chart_debug_initialization@@9@9 0000000180048788     c12_SpeedgoatCANOpen2Buses100us.obj
 0003:00005790       ?condEnd@?L@??chart_debug_initialization@@9@9 0000000180048790     c12_SpeedgoatCANOpen2Buses100us.obj
 0003:00005798       ?pfixExpr@?L@??chart_debug_initialization@@9@9 0000000180048798     c12_SpeedgoatCANOpen2Buses100us.obj
 0003:000057a8       ?condStart@?M@??chart_debug_initialization@@9@9 00000001800487a8     c12_SpeedgoatCANOpen2Buses100us.obj
 0003:000057b0       ?condEnd@?M@??chart_debug_initialization@@9@9 00000001800487b0     c12_SpeedgoatCANOpen2Buses100us.obj
 0003:000057b8       ?pfixExpr@?M@??chart_debug_initialization@@9@9 00000001800487b8     c12_SpeedgoatCANOpen2Buses100us.obj
 0003:000057c8       ?condStart@?N@??chart_debug_initialization@@9@9 00000001800487c8     c12_SpeedgoatCANOpen2Buses100us.obj
 0003:000057d0       ?condEnd@?N@??chart_debug_initialization@@9@9 00000001800487d0     c12_SpeedgoatCANOpen2Buses100us.obj
 0003:000057d8       ?pfixExpr@?N@??chart_debug_initialization@@9@9 00000001800487d8     c12_SpeedgoatCANOpen2Buses100us.obj
 0003:000057e4       $SG26467                   00000001800487e4     c12_SpeedgoatCANOpen2Buses100us.obj
 0003:000057f0       $SG26468                   00000001800487f0     c12_SpeedgoatCANOpen2Buses100us.obj
 0003:00005800       $SG26469                   0000000180048800     c12_SpeedgoatCANOpen2Buses100us.obj
 0003:00005810       $SG26470                   0000000180048810     c12_SpeedgoatCANOpen2Buses100us.obj
 0003:00005820       $SG26471                   0000000180048820     c12_SpeedgoatCANOpen2Buses100us.obj
 0003:00005830       $SG26472                   0000000180048830     c12_SpeedgoatCANOpen2Buses100us.obj
 0003:00005840       $SG26473                   0000000180048840     c12_SpeedgoatCANOpen2Buses100us.obj
 0003:00005850       $SG26474                   0000000180048850     c12_SpeedgoatCANOpen2Buses100us.obj
 0003:00005860       $SG26503                   0000000180048860     c12_SpeedgoatCANOpen2Buses100us.obj
 0003:00005878       $SG26519                   0000000180048878     c12_SpeedgoatCANOpen2Buses100us.obj
 0003:00005888       ?checksum@?1??sf_get_sfun_dwork_checksum@@9@9 0000000180048888     c12_SpeedgoatCANOpen2Buses100us.obj
 0003:00005898       $SG26650                   0000000180048898     c12_SpeedgoatCANOpen2Buses100us.obj
 0003:000058c0       $SG26523                   00000001800488c0     c12_SpeedgoatCANOpen2Buses100us.obj
 0003:00005b40       $SG26608                   0000000180048b40     c12_SpeedgoatCANOpen2Buses100us.obj
 0003:00005ca8       $SG26658                   0000000180048ca8     c12_SpeedgoatCANOpen2Buses100us.obj
 0003:00005cb8       $SG26659                   0000000180048cb8     c12_SpeedgoatCANOpen2Buses100us.obj
 0003:00005cd0       $SG26682                   0000000180048cd0     c12_SpeedgoatCANOpen2Buses100us.obj
 0003:00005d00       $SG26697                   0000000180048d00     c12_SpeedgoatCANOpen2Buses100us.obj
 0003:00005d88       $SG25216                   0000000180048d88     SpeedgoatCANOpen2Buses100us_sfun_registry.obj
 0003:00005da8       $SG25218                   0000000180048da8     SpeedgoatCANOpen2Buses100us_sfun_registry.obj
 0003:00005dc4       $SG27181                   0000000180048dc4     SpeedgoatCANOpen2Buses100us_sfun_registry.obj
 0003:00005dc8       $SG25254                   0000000180048dc8     SpeedgoatCANOpen2Buses100us_sfun_registry.obj
 0003:00005de4       $SG25551                   0000000180048de4     SpeedgoatCANOpen2Buses100us_sfun_registry.obj
 0003:00005dec       $SG27259                   0000000180048dec     SpeedgoatCANOpen2Buses100us_sfun_registry.obj
 0003:00005df0       $SG25256                   0000000180048df0     SpeedgoatCANOpen2Buses100us_sfun_registry.obj
 0003:00005e10       $SG25292                   0000000180048e10     SpeedgoatCANOpen2Buses100us_sfun_registry.obj
 0003:00005e28       $SG25294                   0000000180048e28     SpeedgoatCANOpen2Buses100us_sfun_registry.obj
 0003:00005e48       $SG25330                   0000000180048e48     SpeedgoatCANOpen2Buses100us_sfun_registry.obj
 0003:00005e68       $SG25332                   0000000180048e68     SpeedgoatCANOpen2Buses100us_sfun_registry.obj
 0003:00005e88       $SG25368                   0000000180048e88     SpeedgoatCANOpen2Buses100us_sfun_registry.obj
 0003:00005ea8       $SG25370                   0000000180048ea8     SpeedgoatCANOpen2Buses100us_sfun_registry.obj
 0003:00005ec8       $SG25390                   0000000180048ec8     SpeedgoatCANOpen2Buses100us_sfun_registry.obj
 0003:00005ed8       $SG25431                   0000000180048ed8     SpeedgoatCANOpen2Buses100us_sfun_registry.obj
 0003:00005ef0       $SG25462                   0000000180048ef0     SpeedgoatCANOpen2Buses100us_sfun_registry.obj
 0003:00005f10       $SG25473                   0000000180048f10     SpeedgoatCANOpen2Buses100us_sfun_registry.obj
 0003:00005f48       $SG25496                   0000000180048f48     SpeedgoatCANOpen2Buses100us_sfun_registry.obj
 0003:00005f80       $SG25552                   0000000180048f80     SpeedgoatCANOpen2Buses100us_sfun_registry.obj
 0003:00005f94       $SG25557                   0000000180048f94     SpeedgoatCANOpen2Buses100us_sfun_registry.obj
 0003:00005fa0       $SG25558                   0000000180048fa0     SpeedgoatCANOpen2Buses100us_sfun_registry.obj
 0003:00005fc0       $SG25699                   0000000180048fc0     SpeedgoatCANOpen2Buses100us_sfun_registry.obj
 0003:00005fe8       _sfcnName                  0000000180048fe8     SpeedgoatCANOpen2Buses100us_sfun_registry.obj
 0003:00006008       $SG26035                   0000000180049008     SpeedgoatCANOpen2Buses100us_sfun_registry.obj
 0003:00006010       $SG25716                   0000000180049010     SpeedgoatCANOpen2Buses100us_sfun_registry.obj
 0003:00006088       $SG26036                   0000000180049088     SpeedgoatCANOpen2Buses100us_sfun_registry.obj
 0003:00006090       $SG26050                   0000000180049090     SpeedgoatCANOpen2Buses100us_sfun_registry.obj
 0003:000060a0       $SG26240                   00000001800490a0     SpeedgoatCANOpen2Buses100us_sfun_registry.obj
 0003:000060e0       $SG26241                   00000001800490e0     SpeedgoatCANOpen2Buses100us_sfun_registry.obj
 0003:000060e8       $SG26242                   00000001800490e8     SpeedgoatCANOpen2Buses100us_sfun_registry.obj
 0003:000060f0       $SG26246                   00000001800490f0     SpeedgoatCANOpen2Buses100us_sfun_registry.obj
 0003:00006138       $SG26247                   0000000180049138     SpeedgoatCANOpen2Buses100us_sfun_registry.obj
 0003:00006140       $SG26248                   0000000180049140     SpeedgoatCANOpen2Buses100us_sfun_registry.obj
 0003:00006148       $SG26250                   0000000180049148     SpeedgoatCANOpen2Buses100us_sfun_registry.obj
 0003:00006150       $SG26249                   0000000180049150     SpeedgoatCANOpen2Buses100us_sfun_registry.obj
 0003:000061a4       $SG26251                   00000001800491a4     SpeedgoatCANOpen2Buses100us_sfun_registry.obj
 0003:000061b0       $SG26273                   00000001800491b0     SpeedgoatCANOpen2Buses100us_sfun_registry.obj
 0003:000061f0       $SG26274                   00000001800491f0     SpeedgoatCANOpen2Buses100us_sfun_registry.obj
 0003:000061f8       $SG26275                   00000001800491f8     SpeedgoatCANOpen2Buses100us_sfun_registry.obj
 0003:00006200       $SG26279                   0000000180049200     SpeedgoatCANOpen2Buses100us_sfun_registry.obj
 0003:00006248       $SG26280                   0000000180049248     SpeedgoatCANOpen2Buses100us_sfun_registry.obj
 0003:00006250       $SG26281                   0000000180049250     SpeedgoatCANOpen2Buses100us_sfun_registry.obj
 0003:00006258       $SG26283                   0000000180049258     SpeedgoatCANOpen2Buses100us_sfun_registry.obj
 0003:00006260       $SG26282                   0000000180049260     SpeedgoatCANOpen2Buses100us_sfun_registry.obj
 0003:000062b4       $SG26284                   00000001800492b4     SpeedgoatCANOpen2Buses100us_sfun_registry.obj
 0003:000062c0       $SG26299                   00000001800492c0     SpeedgoatCANOpen2Buses100us_sfun_registry.obj
 0003:00006310       $SG26300                   0000000180049310     SpeedgoatCANOpen2Buses100us_sfun_registry.obj
 0003:00006318       $SG26301                   0000000180049318     SpeedgoatCANOpen2Buses100us_sfun_registry.obj
 0003:00006320       $SG26313                   0000000180049320     SpeedgoatCANOpen2Buses100us_sfun_registry.obj
 0003:00006380       $SG26314                   0000000180049380     SpeedgoatCANOpen2Buses100us_sfun_registry.obj
 0003:00006388       $SG26315                   0000000180049388     SpeedgoatCANOpen2Buses100us_sfun_registry.obj
 0003:00006390       $SG26327                   0000000180049390     SpeedgoatCANOpen2Buses100us_sfun_registry.obj
 0003:000063f0       $SG26328                   00000001800493f0     SpeedgoatCANOpen2Buses100us_sfun_registry.obj
 0003:000063f8       $SG26329                   00000001800493f8     SpeedgoatCANOpen2Buses100us_sfun_registry.obj
 0003:00006400       $SG26544                   0000000180049400     SpeedgoatCANOpen2Buses100us_sfun_registry.obj
 0003:00006478       $SG27166                   0000000180049478     SpeedgoatCANOpen2Buses100us_sfun_registry.obj
 0003:00006490       $SG26547                   0000000180049490     SpeedgoatCANOpen2Buses100us_sfun_registry.obj
 0003:00006504       $SG27233                   0000000180049504     SpeedgoatCANOpen2Buses100us_sfun_registry.obj
 0003:00006510       $SG26552                   0000000180049510     SpeedgoatCANOpen2Buses100us_sfun_registry.obj
 0003:00006588       $SG27234                   0000000180049588     SpeedgoatCANOpen2Buses100us_sfun_registry.obj
 0003:00006590       $SG26560                   0000000180049590     SpeedgoatCANOpen2Buses100us_sfun_registry.obj
 0003:00006600       $SG26835                   0000000180049600     SpeedgoatCANOpen2Buses100us_sfun_registry.obj
 0003:00006678       $SG27235                   0000000180049678     SpeedgoatCANOpen2Buses100us_sfun_registry.obj
 0003:00006680       $SG26840                   0000000180049680     SpeedgoatCANOpen2Buses100us_sfun_registry.obj
 0003:000066f8       $SG27241                   00000001800496f8     SpeedgoatCANOpen2Buses100us_sfun_registry.obj
 0003:00006700       $SG27178                   0000000180049700     SpeedgoatCANOpen2Buses100us_sfun_registry.obj
 0003:00006778       $SG27244                   0000000180049778     SpeedgoatCANOpen2Buses100us_sfun_registry.obj
 0003:00006780       $SG27236                   0000000180049780     SpeedgoatCANOpen2Buses100us_sfun_registry.obj
 0003:000067f8       $SG27247                   00000001800497f8     SpeedgoatCANOpen2Buses100us_sfun_registry.obj
 0003:00006800       $SG27238                   0000000180049800     SpeedgoatCANOpen2Buses100us_sfun_registry.obj
 0003:00006880       $SG27248                   0000000180049880     SpeedgoatCANOpen2Buses100us_sfun_registry.obj
 0003:00006900       $SG27249                   0000000180049900     SpeedgoatCANOpen2Buses100us_sfun_registry.obj
 0003:00006910       $SG27251                   0000000180049910     SpeedgoatCANOpen2Buses100us_sfun_registry.obj
 0003:0000691c       $SG27253                   000000018004991c     SpeedgoatCANOpen2Buses100us_sfun_registry.obj
 0003:00006924       $SG27255                   0000000180049924     SpeedgoatCANOpen2Buses100us_sfun_registry.obj
 0003:00006930       $SG27257                   0000000180049930     SpeedgoatCANOpen2Buses100us_sfun_registry.obj
 0003:00006940       $SG27262                   0000000180049940     SpeedgoatCANOpen2Buses100us_sfun_registry.obj
 0003:00006a28       $SG27367                   0000000180049a28     SpeedgoatCANOpen2Buses100us_sfun_registry.obj
 0003:00006a58       $SG27368                   0000000180049a58     SpeedgoatCANOpen2Buses100us_sfun_registry.obj
 0003:00006a60       $SG27369                   0000000180049a60     SpeedgoatCANOpen2Buses100us_sfun_registry.obj
 0003:00006a68       $SG27371                   0000000180049a68     SpeedgoatCANOpen2Buses100us_sfun_registry.obj
 0003:00006aa0       $SG27372                   0000000180049aa0     SpeedgoatCANOpen2Buses100us_sfun_registry.obj
 0003:00006aa8       $SG27373                   0000000180049aa8     SpeedgoatCANOpen2Buses100us_sfun_registry.obj
 0003:00006ab0       $SG27376                   0000000180049ab0     SpeedgoatCANOpen2Buses100us_sfun_registry.obj
 0003:00006ae8       $SG27377                   0000000180049ae8     SpeedgoatCANOpen2Buses100us_sfun_registry.obj
 0003:00006af0       $SG27378                   0000000180049af0     SpeedgoatCANOpen2Buses100us_sfun_registry.obj
 0003:00006af8       $SG27380                   0000000180049af8     SpeedgoatCANOpen2Buses100us_sfun_registry.obj
 0003:00006b30       $SG27381                   0000000180049b30     SpeedgoatCANOpen2Buses100us_sfun_registry.obj
 0003:00006b38       $SG27382                   0000000180049b38     SpeedgoatCANOpen2Buses100us_sfun_registry.obj
 0003:00006b40       $SG27384                   0000000180049b40     SpeedgoatCANOpen2Buses100us_sfun_registry.obj
 0003:00006b78       $SG27385                   0000000180049b78     SpeedgoatCANOpen2Buses100us_sfun_registry.obj
 0003:00006b80       $SG27386                   0000000180049b80     SpeedgoatCANOpen2Buses100us_sfun_registry.obj
 0003:00006b88       $SG27389                   0000000180049b88     SpeedgoatCANOpen2Buses100us_sfun_registry.obj
 0003:00006b90       $SG27391                   0000000180049b90     SpeedgoatCANOpen2Buses100us_sfun_registry.obj
 0003:00006ba8       $SG27392                   0000000180049ba8     SpeedgoatCANOpen2Buses100us_sfun_registry.obj
 0003:00006be0       $SG27393                   0000000180049be0     SpeedgoatCANOpen2Buses100us_sfun_registry.obj
 0003:00006be8       $SG27394                   0000000180049be8     SpeedgoatCANOpen2Buses100us_sfun_registry.obj
 0003:00006bf0       $SG27554                   0000000180049bf0     SpeedgoatCANOpen2Buses100us_sfun_registry.obj
 0003:00006c10       $SG27555                   0000000180049c10     SpeedgoatCANOpen2Buses100us_sfun_registry.obj
 0003:00006ca0       $SG27559                   0000000180049ca0     SpeedgoatCANOpen2Buses100us_sfun_registry.obj
 0003:00006cb8       $SG27564                   0000000180049cb8     SpeedgoatCANOpen2Buses100us_sfun_registry.obj
 0003:00006cd0       $SG27560                   0000000180049cd0     SpeedgoatCANOpen2Buses100us_sfun_registry.obj
 0003:00006d60       $SG27565                   0000000180049d60     SpeedgoatCANOpen2Buses100us_sfun_registry.obj
 0003:00006df0       $SG27569                   0000000180049df0     SpeedgoatCANOpen2Buses100us_sfun_registry.obj
 0003:00006e10       $SG27570                   0000000180049e10     SpeedgoatCANOpen2Buses100us_sfun_registry.obj
 0003:00006ea0       $SG27574                   0000000180049ea0     SpeedgoatCANOpen2Buses100us_sfun_registry.obj
 0003:00006ec0       $SG27575                   0000000180049ec0     SpeedgoatCANOpen2Buses100us_sfun_registry.obj
 0003:00006f50       $SG27579                   0000000180049f50     SpeedgoatCANOpen2Buses100us_sfun_registry.obj
 0003:00006f70       $SG27580                   0000000180049f70     SpeedgoatCANOpen2Buses100us_sfun_registry.obj
 0003:00007000       $SG27584                   000000018004a000     SpeedgoatCANOpen2Buses100us_sfun_registry.obj
 0003:00007028       $SG27589                   000000018004a028     SpeedgoatCANOpen2Buses100us_sfun_registry.obj
 0003:00007050       $SG27585                   000000018004a050     SpeedgoatCANOpen2Buses100us_sfun_registry.obj
 0003:000070e0       $SG27590                   000000018004a0e0     SpeedgoatCANOpen2Buses100us_sfun_registry.obj
 0003:00007170       $SG27594                   000000018004a170     SpeedgoatCANOpen2Buses100us_sfun_registry.obj
 0003:00007190       $SG27595                   000000018004a190     SpeedgoatCANOpen2Buses100us_sfun_registry.obj
 0003:00007220       $SG27599                   000000018004a220     SpeedgoatCANOpen2Buses100us_sfun_registry.obj
 0003:00007240       $SG27600                   000000018004a240     SpeedgoatCANOpen2Buses100us_sfun_registry.obj
 0003:000072d0       $SG27604                   000000018004a2d0     SpeedgoatCANOpen2Buses100us_sfun_registry.obj
 0003:000072e8       $SG27640                   000000018004a2e8     SpeedgoatCANOpen2Buses100us_sfun_registry.obj
 0003:00007300       $SG27605                   000000018004a300     SpeedgoatCANOpen2Buses100us_sfun_registry.obj
 0003:00007390       $SG27609                   000000018004a390     SpeedgoatCANOpen2Buses100us_sfun_registry.obj
 0003:000073b0       $SG27610                   000000018004a3b0     SpeedgoatCANOpen2Buses100us_sfun_registry.obj
 0003:00007440       $SG27614                   000000018004a440     SpeedgoatCANOpen2Buses100us_sfun_registry.obj
 0003:00007460       $SG27615                   000000018004a460     SpeedgoatCANOpen2Buses100us_sfun_registry.obj
 0003:000074f0       $SG27619                   000000018004a4f0     SpeedgoatCANOpen2Buses100us_sfun_registry.obj
 0003:00007510       $SG27620                   000000018004a510     SpeedgoatCANOpen2Buses100us_sfun_registry.obj
 0003:000075a0       $SG27624                   000000018004a5a0     SpeedgoatCANOpen2Buses100us_sfun_registry.obj
 0003:000075c0       $SG27625                   000000018004a5c0     SpeedgoatCANOpen2Buses100us_sfun_registry.obj
 0003:00007650       $SG27629                   000000018004a650     SpeedgoatCANOpen2Buses100us_sfun_registry.obj
 0003:00007670       $SG27630                   000000018004a670     SpeedgoatCANOpen2Buses100us_sfun_registry.obj
 0003:00007700       $SG27634                   000000018004a700     SpeedgoatCANOpen2Buses100us_sfun_registry.obj
 0003:00007720       $SG27635                   000000018004a720     SpeedgoatCANOpen2Buses100us_sfun_registry.obj
 0003:000077b0       $SG27641                   000000018004a7b0     SpeedgoatCANOpen2Buses100us_sfun_registry.obj
 0003:00007840       $SG27645                   000000018004a840     SpeedgoatCANOpen2Buses100us_sfun_registry.obj
 0003:00007848       $SG27650                   000000018004a848     SpeedgoatCANOpen2Buses100us_sfun_registry.obj
 0003:00007860       $SG27646                   000000018004a860     SpeedgoatCANOpen2Buses100us_sfun_registry.obj
 0003:000078f0       $SG27651                   000000018004a8f0     SpeedgoatCANOpen2Buses100us_sfun_registry.obj
 0003:00007980       $SG27655                   000000018004a980     SpeedgoatCANOpen2Buses100us_sfun_registry.obj
 0003:00007990       $SG27656                   000000018004a990     SpeedgoatCANOpen2Buses100us_sfun_registry.obj
 0003:00007a20       $SG27660                   000000018004aa20     SpeedgoatCANOpen2Buses100us_sfun_registry.obj
 0003:00007a30       $SG27661                   000000018004aa30     SpeedgoatCANOpen2Buses100us_sfun_registry.obj
 0003:00007ac0       $SG27665                   000000018004aac0     SpeedgoatCANOpen2Buses100us_sfun_registry.obj
 0003:00007ad0       $SG27666                   000000018004aad0     SpeedgoatCANOpen2Buses100us_sfun_registry.obj
 0003:00007b60       $SG27670                   000000018004ab60     SpeedgoatCANOpen2Buses100us_sfun_registry.obj
 0003:00007b78       $SG27675                   000000018004ab78     SpeedgoatCANOpen2Buses100us_sfun_registry.obj
 0003:00007b90       $SG27671                   000000018004ab90     SpeedgoatCANOpen2Buses100us_sfun_registry.obj
 0003:00007c20       $SG27676                   000000018004ac20     SpeedgoatCANOpen2Buses100us_sfun_registry.obj
 0003:00007cb0       $SG27680                   000000018004acb0     SpeedgoatCANOpen2Buses100us_sfun_registry.obj
 0003:00007cc0       $SG27681                   000000018004acc0     SpeedgoatCANOpen2Buses100us_sfun_registry.obj
 0003:00007d50       $SG27689                   000000018004ad50     SpeedgoatCANOpen2Buses100us_sfun_registry.obj
 0003:00007d60       $SG27690                   000000018004ad60     SpeedgoatCANOpen2Buses100us_sfun_registry.obj
 0003:00007df0       $SG27694                   000000018004adf0     SpeedgoatCANOpen2Buses100us_sfun_registry.obj
 0003:00007e00       $SG27695                   000000018004ae00     SpeedgoatCANOpen2Buses100us_sfun_registry.obj
 0003:00007e90       $SG27699                   000000018004ae90     SpeedgoatCANOpen2Buses100us_sfun_registry.obj
 0003:00007ea0       $SG27700                   000000018004aea0     SpeedgoatCANOpen2Buses100us_sfun_registry.obj
 0003:00007f30       $SG27705                   000000018004af30     SpeedgoatCANOpen2Buses100us_sfun_registry.obj
 0003:00007f40       $SG27706                   000000018004af40     SpeedgoatCANOpen2Buses100us_sfun_registry.obj
 0003:00007fd0       $SG27710                   000000018004afd0     SpeedgoatCANOpen2Buses100us_sfun_registry.obj
 0003:00008048       $SG27747                   000000018004b048     SpeedgoatCANOpen2Buses100us_sfun_registry.obj
 0003:00008060       $SG27735                   000000018004b060     SpeedgoatCANOpen2Buses100us_sfun_registry.obj
 0003:00008178       $SG27757                   000000018004b178     SpeedgoatCANOpen2Buses100us_sfun_registry.obj
 0003:00008188       $SG27769                   000000018004b188     SpeedgoatCANOpen2Buses100us_sfun_registry.obj
 0003:00008198       $SG27779                   000000018004b198     SpeedgoatCANOpen2Buses100us_sfun_registry.obj
 0003:000081a8       $SG27791                   000000018004b1a8     SpeedgoatCANOpen2Buses100us_sfun_registry.obj
 0003:000081b8       $SG27801                   000000018004b1b8     SpeedgoatCANOpen2Buses100us_sfun_registry.obj
 0003:000081c8       $SG27811                   000000018004b1c8     SpeedgoatCANOpen2Buses100us_sfun_registry.obj
 0003:00008240       sRtwOptimizationInfoStruct 000000018004b240     SpeedgoatCANOpen2Buses100us_sfun.obj
 0003:00008248       sOptimizationInfoFlags     000000018004b248     SpeedgoatCANOpen2Buses100us_sfun.obj
 0003:00008250       _sfTime_                   000000018004b250     c1_SpeedgoatCANOpen2Buses100us.obj
 0003:00008258       $SG26335                   000000018004b258     c1_SpeedgoatCANOpen2Buses100us.obj
 0003:00008259       $SG26336                   000000018004b259     c1_SpeedgoatCANOpen2Buses100us.obj
 0003:0000825a       $SG26337                   000000018004b25a     c1_SpeedgoatCANOpen2Buses100us.obj
 0003:0000825b       $SG26354                   000000018004b25b     c1_SpeedgoatCANOpen2Buses100us.obj
 0003:00008260       _sfTime_                   000000018004b260     c2_SpeedgoatCANOpen2Buses100us.obj
 0003:00008268       $SG26335                   000000018004b268     c2_SpeedgoatCANOpen2Buses100us.obj
 0003:00008269       $SG26336                   000000018004b269     c2_SpeedgoatCANOpen2Buses100us.obj
 0003:0000826a       $SG26337                   000000018004b26a     c2_SpeedgoatCANOpen2Buses100us.obj
 0003:0000826b       $SG26354                   000000018004b26b     c2_SpeedgoatCANOpen2Buses100us.obj
 0003:00008270       _sfTime_                   000000018004b270     c3_SpeedgoatCANOpen2Buses100us.obj
 0003:00008278       $SG26335                   000000018004b278     c3_SpeedgoatCANOpen2Buses100us.obj
 0003:00008279       $SG26336                   000000018004b279     c3_SpeedgoatCANOpen2Buses100us.obj
 0003:0000827a       $SG26337                   000000018004b27a     c3_SpeedgoatCANOpen2Buses100us.obj
 0003:0000827b       $SG26354                   000000018004b27b     c3_SpeedgoatCANOpen2Buses100us.obj
 0003:00008280       _sfTime_                   000000018004b280     c4_SpeedgoatCANOpen2Buses100us.obj
 0003:00008288       $SG25975                   000000018004b288     c4_SpeedgoatCANOpen2Buses100us.obj
 0003:00008289       $SG25976                   000000018004b289     c4_SpeedgoatCANOpen2Buses100us.obj
 0003:0000828a       $SG25977                   000000018004b28a     c4_SpeedgoatCANOpen2Buses100us.obj
 0003:0000828b       $SG25994                   000000018004b28b     c4_SpeedgoatCANOpen2Buses100us.obj
 0003:00008290       _sfTime_                   000000018004b290     c5_SpeedgoatCANOpen2Buses100us.obj
 0003:00008298       $SG26049                   000000018004b298     c5_SpeedgoatCANOpen2Buses100us.obj
 0003:00008299       $SG26050                   000000018004b299     c5_SpeedgoatCANOpen2Buses100us.obj
 0003:0000829a       $SG26051                   000000018004b29a     c5_SpeedgoatCANOpen2Buses100us.obj
 0003:0000829b       $SG26068                   000000018004b29b     c5_SpeedgoatCANOpen2Buses100us.obj
 0003:000082a0       _sfTime_                   000000018004b2a0     c12_SpeedgoatCANOpen2Buses100us.obj
 0003:000082a8       $SG26335                   000000018004b2a8     c12_SpeedgoatCANOpen2Buses100us.obj
 0003:000082a9       $SG26336                   000000018004b2a9     c12_SpeedgoatCANOpen2Buses100us.obj
 0003:000082aa       $SG26337                   000000018004b2aa     c12_SpeedgoatCANOpen2Buses100us.obj
 0003:000082ab       $SG26354                   000000018004b2ab     c12_SpeedgoatCANOpen2Buses100us.obj
 0003:000082b8       sfGlobalMdlStartCallCounts 000000018004b2b8     SpeedgoatCANOpen2Buses100us_sfun_registry.obj
 0003:000082bc       $SG27229                   000000018004b2bc     SpeedgoatCANOpen2Buses100us_sfun_registry.obj
 0003:000082c0       GS_ExceptionRecord         000000018004b2c0     MSVCRT:gs_report.obj
 0003:00008360       GS_ContextRecord           000000018004b360     MSVCRT:gs_report.obj
 0003:00008830       ?__proc_attached@@3HA      000000018004b830     MSVCRT:dll_dllmain.obj
 0003:00008870       ?is_initialized_as_dll@@3_NA 000000018004b870     MSVCRT:utility.obj
 0003:00008871       ?module_local_atexit_table_initialized@@3_NA 000000018004b871     MSVCRT:utility.obj
 0003:00008878       ?module_local_atexit_table@@3U_onexit_table_t@@A 000000018004b878     MSVCRT:utility.obj
 0003:00008890       ?module_local_at_quick_exit_table@@3U_onexit_table_t@@A 000000018004b890     MSVCRT:utility.obj
 0004:00000000       $pdata$load_SpeedgoatCANOpen2Buses100us_optimization_info 000000018004c000     SpeedgoatCANOpen2Buses100us_sfun.obj
 0004:0000000c       $pdata$unload_SpeedgoatCANOpen2Buses100us_optimization_info 000000018004c00c     SpeedgoatCANOpen2Buses100us_sfun.obj
 0004:00000018       $pdata$sf_SpeedgoatCANOpen2Buses100us_method_dispatcher 000000018004c018     SpeedgoatCANOpen2Buses100us_sfun.obj
 0004:00000024       $pdata$sf_SpeedgoatCANOpen2Buses100us_process_testpoint_info_call 000000018004c024     SpeedgoatCANOpen2Buses100us_sfun.obj
 0004:00000030       $pdata$sf_SpeedgoatCANOpen2Buses100us_process_check_sum_call 000000018004c030     SpeedgoatCANOpen2Buses100us_sfun.obj
 0004:0000003c       $pdata$sf_SpeedgoatCANOpen2Buses100us_autoinheritance_info 000000018004c03c     SpeedgoatCANOpen2Buses100us_sfun.obj
 0004:00000048       $pdata$sf_SpeedgoatCANOpen2Buses100us_get_eml_resolved_functions_info 000000018004c048     SpeedgoatCANOpen2Buses100us_sfun.obj
 0004:00000054       $pdata$sf_SpeedgoatCANOpen2Buses100us_third_party_uses_info 000000018004c054     SpeedgoatCANOpen2Buses100us_sfun.obj
 0004:00000060       $pdata$sf_SpeedgoatCANOpen2Buses100us_jit_fallback_info 000000018004c060     SpeedgoatCANOpen2Buses100us_sfun.obj
 0004:0000006c       $pdata$sf_SpeedgoatCANOpen2Buses100us_updateBuildInfo_args_info 000000018004c06c     SpeedgoatCANOpen2Buses100us_sfun.obj
 0004:00000078       $pdata$SpeedgoatCANOpen2Buses100us_debug_initialize 000000018004c078     SpeedgoatCANOpen2Buses100us_sfun.obj
 0004:00000084       $pdata$sf_c1_SpeedgoatCANOpen2Buses100us_get_eml_resolved_functions_info 000000018004c084     c1_SpeedgoatCANOpen2Buses100us.obj
 0004:00000090       $pdata$sf_c1_SpeedgoatCANOpen2Buses100us_get_check_sum 000000018004c090     c1_SpeedgoatCANOpen2Buses100us.obj
 0004:0000009c       $pdata$c1_SpeedgoatCANOpen2Buses100us_method_dispatcher 000000018004c09c     c1_SpeedgoatCANOpen2Buses100us.obj
 0004:000000a8       $pdata$chart_debug_initialization 000000018004c0a8     c1_SpeedgoatCANOpen2Buses100us.obj
 0004:000000b4       $pdata$chart_debug_initialize_data_addresses 000000018004c0b4     c1_SpeedgoatCANOpen2Buses100us.obj
 0004:000000c0       $pdata$sf_opaque_get_hover_data_for_msg 000000018004c0c0     c1_SpeedgoatCANOpen2Buses100us.obj
 0004:000000cc       $pdata$initialize_c1_SpeedgoatCANOpen2Buses100us 000000018004c0cc     c1_SpeedgoatCANOpen2Buses100us.obj
 0004:000000d8       $pdata$enable_c1_SpeedgoatCANOpen2Buses100us 000000018004c0d8     c1_SpeedgoatCANOpen2Buses100us.obj
 0004:000000e4       $pdata$disable_c1_SpeedgoatCANOpen2Buses100us 000000018004c0e4     c1_SpeedgoatCANOpen2Buses100us.obj
 0004:000000f0       $pdata$c1_update_debugger_state_c1_SpeedgoatCANOpen2Buses100us 000000018004c0f0     c1_SpeedgoatCANOpen2Buses100us.obj
 0004:000000fc       $pdata$ext_mode_exec_c1_SpeedgoatCANOpen2Buses100us 000000018004c0fc     c1_SpeedgoatCANOpen2Buses100us.obj
 0004:00000108       $pdata$get_sim_state_c1_SpeedgoatCANOpen2Buses100us 000000018004c108     c1_SpeedgoatCANOpen2Buses100us.obj
 0004:00000114       $pdata$set_sim_state_c1_SpeedgoatCANOpen2Buses100us 000000018004c114     c1_SpeedgoatCANOpen2Buses100us.obj
 0004:00000120       $pdata$finalize_c1_SpeedgoatCANOpen2Buses100us 000000018004c120     c1_SpeedgoatCANOpen2Buses100us.obj
 0004:0000012c       $pdata$sf_gateway_c1_SpeedgoatCANOpen2Buses100us 000000018004c12c     c1_SpeedgoatCANOpen2Buses100us.obj
 0004:00000138       $pdata$mdl_start_c1_SpeedgoatCANOpen2Buses100us 000000018004c138     c1_SpeedgoatCANOpen2Buses100us.obj
 0004:00000144       $pdata$c1_chartstep_c1_SpeedgoatCANOpen2Buses100us 000000018004c144     c1_SpeedgoatCANOpen2Buses100us.obj
 0004:00000150       $pdata$c1_enter_atomic_Init 000000018004c150     c1_SpeedgoatCANOpen2Buses100us.obj
 0004:0000015c       $pdata$c1_sf_marshallOut   000000018004c15c     c1_SpeedgoatCANOpen2Buses100us.obj
 0004:00000168       $pdata$c1_emlrt_marshallIn 000000018004c168     c1_SpeedgoatCANOpen2Buses100us.obj
 0004:00000174       $pdata$c1_sf_marshallIn    000000018004c174     c1_SpeedgoatCANOpen2Buses100us.obj
 0004:00000180       $pdata$c1_b_sf_marshallOut 000000018004c180     c1_SpeedgoatCANOpen2Buses100us.obj
 0004:0000018c       $pdata$c1_b_emlrt_marshallIn 000000018004c18c     c1_SpeedgoatCANOpen2Buses100us.obj
 0004:00000198       $pdata$c1_b_sf_marshallIn  000000018004c198     c1_SpeedgoatCANOpen2Buses100us.obj
 0004:000001a4       $pdata$c1_d_sf_marshallOut 000000018004c1a4     c1_SpeedgoatCANOpen2Buses100us.obj
 0004:000001b0       $pdata$c1_d_emlrt_marshallIn 000000018004c1b0     c1_SpeedgoatCANOpen2Buses100us.obj
 0004:000001bc       $pdata$c1_e_emlrt_marshallIn 000000018004c1bc     c1_SpeedgoatCANOpen2Buses100us.obj
 0004:000001c8       $pdata$c1_d_sf_marshallIn  000000018004c1c8     c1_SpeedgoatCANOpen2Buses100us.obj
 0004:000001d4       $pdata$c1_f_emlrt_marshallIn 000000018004c1d4     c1_SpeedgoatCANOpen2Buses100us.obj
 0004:000001e0       $pdata$c1_g_emlrt_marshallIn 000000018004c1e0     c1_SpeedgoatCANOpen2Buses100us.obj
 0004:000001ec       $pdata$c1_h_emlrt_marshallIn 000000018004c1ec     c1_SpeedgoatCANOpen2Buses100us.obj
 0004:000001f8       $pdata$c1_i_emlrt_marshallIn 000000018004c1f8     c1_SpeedgoatCANOpen2Buses100us.obj
 0004:00000204       $pdata$c1_j_emlrt_marshallIn 000000018004c204     c1_SpeedgoatCANOpen2Buses100us.obj
 0004:00000210       $pdata$c1_k_emlrt_marshallIn 000000018004c210     c1_SpeedgoatCANOpen2Buses100us.obj
 0004:0000021c       $pdata$init_simulink_io_address 000000018004c21c     c1_SpeedgoatCANOpen2Buses100us.obj
 0004:00000228       $pdata$sf_c1_SpeedgoatCANOpen2Buses100us_get_post_codegen_info 000000018004c228     c1_SpeedgoatCANOpen2Buses100us.obj
 0004:00000234       $pdata$sf_c1_SpeedgoatCANOpen2Buses100us_get_autoinheritance_info 000000018004c234     c1_SpeedgoatCANOpen2Buses100us.obj
 0004:00000240       $pdata$sf_c1_SpeedgoatCANOpen2Buses100us_third_party_uses_info 000000018004c240     c1_SpeedgoatCANOpen2Buses100us.obj
 0004:0000024c       $pdata$sf_c1_SpeedgoatCANOpen2Buses100us_jit_fallback_info 000000018004c24c     c1_SpeedgoatCANOpen2Buses100us.obj
 0004:00000258       $pdata$sf_c1_SpeedgoatCANOpen2Buses100us_updateBuildInfo_args_info 000000018004c258     c1_SpeedgoatCANOpen2Buses100us.obj
 0004:00000264       $pdata$sf_get_sim_state_info_c1_SpeedgoatCANOpen2Buses100us 000000018004c264     c1_SpeedgoatCANOpen2Buses100us.obj
 0004:00000270       $pdata$sf_check_dwork_consistency 000000018004c270     c1_SpeedgoatCANOpen2Buses100us.obj
 0004:0000027c       $pdata$sf_opaque_initialize_c1_SpeedgoatCANOpen2Buses100us 000000018004c27c     c1_SpeedgoatCANOpen2Buses100us.obj
 0004:00000288       $pdata$sf_opaque_enable_c1_SpeedgoatCANOpen2Buses100us 000000018004c288     c1_SpeedgoatCANOpen2Buses100us.obj
 0004:00000294       $pdata$sf_opaque_disable_c1_SpeedgoatCANOpen2Buses100us 000000018004c294     c1_SpeedgoatCANOpen2Buses100us.obj
 0004:000002a0       $pdata$sf_opaque_gateway_c1_SpeedgoatCANOpen2Buses100us 000000018004c2a0     c1_SpeedgoatCANOpen2Buses100us.obj
 0004:000002ac       $pdata$sf_opaque_ext_mode_exec_c1_SpeedgoatCANOpen2Buses100us 000000018004c2ac     c1_SpeedgoatCANOpen2Buses100us.obj
 0004:000002b8       $pdata$sf_opaque_get_sim_state_c1_SpeedgoatCANOpen2Buses100us 000000018004c2b8     c1_SpeedgoatCANOpen2Buses100us.obj
 0004:000002c4       $pdata$sf_opaque_set_sim_state_c1_SpeedgoatCANOpen2Buses100us 000000018004c2c4     c1_SpeedgoatCANOpen2Buses100us.obj
 0004:000002d0       $pdata$sf_opaque_terminate_c1_SpeedgoatCANOpen2Buses100us 000000018004c2d0     c1_SpeedgoatCANOpen2Buses100us.obj
 0004:000002dc       $pdata$mdlProcessParameters_c1_SpeedgoatCANOpen2Buses100us 000000018004c2dc     c1_SpeedgoatCANOpen2Buses100us.obj
 0004:000002e8       $pdata$sf_set_sfun_dwork_info 000000018004c2e8     c1_SpeedgoatCANOpen2Buses100us.obj
 0004:000002f4       $pdata$mdlSetWorkWidths_c1_SpeedgoatCANOpen2Buses100us 000000018004c2f4     c1_SpeedgoatCANOpen2Buses100us.obj
 0004:00000300       $pdata$mdlRTW_c1_SpeedgoatCANOpen2Buses100us 000000018004c300     c1_SpeedgoatCANOpen2Buses100us.obj
 0004:0000030c       $pdata$mdlStart_c1_SpeedgoatCANOpen2Buses100us 000000018004c30c     c1_SpeedgoatCANOpen2Buses100us.obj
 0004:00000318       $pdata$sf_c2_SpeedgoatCANOpen2Buses100us_get_eml_resolved_functions_info 000000018004c318     c2_SpeedgoatCANOpen2Buses100us.obj
 0004:00000324       $pdata$sf_c2_SpeedgoatCANOpen2Buses100us_get_check_sum 000000018004c324     c2_SpeedgoatCANOpen2Buses100us.obj
 0004:00000330       $pdata$c2_SpeedgoatCANOpen2Buses100us_method_dispatcher 000000018004c330     c2_SpeedgoatCANOpen2Buses100us.obj
 0004:0000033c       $pdata$chart_debug_initialization 000000018004c33c     c2_SpeedgoatCANOpen2Buses100us.obj
 0004:00000348       $pdata$chart_debug_initialize_data_addresses 000000018004c348     c2_SpeedgoatCANOpen2Buses100us.obj
 0004:00000354       $pdata$sf_opaque_get_hover_data_for_msg 000000018004c354     c2_SpeedgoatCANOpen2Buses100us.obj
 0004:00000360       $pdata$initialize_c2_SpeedgoatCANOpen2Buses100us 000000018004c360     c2_SpeedgoatCANOpen2Buses100us.obj
 0004:0000036c       $pdata$enable_c2_SpeedgoatCANOpen2Buses100us 000000018004c36c     c2_SpeedgoatCANOpen2Buses100us.obj
 0004:00000378       $pdata$disable_c2_SpeedgoatCANOpen2Buses100us 000000018004c378     c2_SpeedgoatCANOpen2Buses100us.obj
 0004:00000384       $pdata$c2_update_debugger_state_c2_SpeedgoatCANOpen2Buses100us 000000018004c384     c2_SpeedgoatCANOpen2Buses100us.obj
 0004:00000390       $pdata$ext_mode_exec_c2_SpeedgoatCANOpen2Buses100us 000000018004c390     c2_SpeedgoatCANOpen2Buses100us.obj
 0004:0000039c       $pdata$get_sim_state_c2_SpeedgoatCANOpen2Buses100us 000000018004c39c     c2_SpeedgoatCANOpen2Buses100us.obj
 0004:000003a8       $pdata$set_sim_state_c2_SpeedgoatCANOpen2Buses100us 000000018004c3a8     c2_SpeedgoatCANOpen2Buses100us.obj
 0004:000003b4       $pdata$finalize_c2_SpeedgoatCANOpen2Buses100us 000000018004c3b4     c2_SpeedgoatCANOpen2Buses100us.obj
 0004:000003c0       $pdata$sf_gateway_c2_SpeedgoatCANOpen2Buses100us 000000018004c3c0     c2_SpeedgoatCANOpen2Buses100us.obj
 0004:000003cc       $pdata$mdl_start_c2_SpeedgoatCANOpen2Buses100us 000000018004c3cc     c2_SpeedgoatCANOpen2Buses100us.obj
 0004:000003d8       $pdata$c2_chartstep_c2_SpeedgoatCANOpen2Buses100us 000000018004c3d8     c2_SpeedgoatCANOpen2Buses100us.obj
 0004:000003e4       $pdata$c2_enter_atomic_Init 000000018004c3e4     c2_SpeedgoatCANOpen2Buses100us.obj
 0004:000003f0       $pdata$c2_sf_marshallOut   000000018004c3f0     c2_SpeedgoatCANOpen2Buses100us.obj
 0004:000003fc       $pdata$c2_emlrt_marshallIn 000000018004c3fc     c2_SpeedgoatCANOpen2Buses100us.obj
 0004:00000408       $pdata$c2_sf_marshallIn    000000018004c408     c2_SpeedgoatCANOpen2Buses100us.obj
 0004:00000414       $pdata$c2_b_sf_marshallOut 000000018004c414     c2_SpeedgoatCANOpen2Buses100us.obj
 0004:00000420       $pdata$c2_b_emlrt_marshallIn 000000018004c420     c2_SpeedgoatCANOpen2Buses100us.obj
 0004:0000042c       $pdata$c2_b_sf_marshallIn  000000018004c42c     c2_SpeedgoatCANOpen2Buses100us.obj
 0004:00000438       $pdata$c2_d_sf_marshallOut 000000018004c438     c2_SpeedgoatCANOpen2Buses100us.obj
 0004:00000444       $pdata$c2_d_emlrt_marshallIn 000000018004c444     c2_SpeedgoatCANOpen2Buses100us.obj
 0004:00000450       $pdata$c2_e_emlrt_marshallIn 000000018004c450     c2_SpeedgoatCANOpen2Buses100us.obj
 0004:0000045c       $pdata$c2_d_sf_marshallIn  000000018004c45c     c2_SpeedgoatCANOpen2Buses100us.obj
 0004:00000468       $pdata$c2_f_emlrt_marshallIn 000000018004c468     c2_SpeedgoatCANOpen2Buses100us.obj
 0004:00000474       $pdata$c2_g_emlrt_marshallIn 000000018004c474     c2_SpeedgoatCANOpen2Buses100us.obj
 0004:00000480       $pdata$c2_h_emlrt_marshallIn 000000018004c480     c2_SpeedgoatCANOpen2Buses100us.obj
 0004:0000048c       $pdata$c2_i_emlrt_marshallIn 000000018004c48c     c2_SpeedgoatCANOpen2Buses100us.obj
 0004:00000498       $pdata$c2_j_emlrt_marshallIn 000000018004c498     c2_SpeedgoatCANOpen2Buses100us.obj
 0004:000004a4       $pdata$c2_k_emlrt_marshallIn 000000018004c4a4     c2_SpeedgoatCANOpen2Buses100us.obj
 0004:000004b0       $pdata$init_simulink_io_address 000000018004c4b0     c2_SpeedgoatCANOpen2Buses100us.obj
 0004:000004bc       $pdata$sf_c2_SpeedgoatCANOpen2Buses100us_get_post_codegen_info 000000018004c4bc     c2_SpeedgoatCANOpen2Buses100us.obj
 0004:000004c8       $pdata$sf_c2_SpeedgoatCANOpen2Buses100us_get_autoinheritance_info 000000018004c4c8     c2_SpeedgoatCANOpen2Buses100us.obj
 0004:000004d4       $pdata$sf_c2_SpeedgoatCANOpen2Buses100us_third_party_uses_info 000000018004c4d4     c2_SpeedgoatCANOpen2Buses100us.obj
 0004:000004e0       $pdata$sf_c2_SpeedgoatCANOpen2Buses100us_jit_fallback_info 000000018004c4e0     c2_SpeedgoatCANOpen2Buses100us.obj
 0004:000004ec       $pdata$sf_c2_SpeedgoatCANOpen2Buses100us_updateBuildInfo_args_info 000000018004c4ec     c2_SpeedgoatCANOpen2Buses100us.obj
 0004:000004f8       $pdata$sf_get_sim_state_info_c2_SpeedgoatCANOpen2Buses100us 000000018004c4f8     c2_SpeedgoatCANOpen2Buses100us.obj
 0004:00000504       $pdata$sf_check_dwork_consistency 000000018004c504     c2_SpeedgoatCANOpen2Buses100us.obj
 0004:00000510       $pdata$sf_opaque_initialize_c2_SpeedgoatCANOpen2Buses100us 000000018004c510     c2_SpeedgoatCANOpen2Buses100us.obj
 0004:0000051c       $pdata$sf_opaque_enable_c2_SpeedgoatCANOpen2Buses100us 000000018004c51c     c2_SpeedgoatCANOpen2Buses100us.obj
 0004:00000528       $pdata$sf_opaque_disable_c2_SpeedgoatCANOpen2Buses100us 000000018004c528     c2_SpeedgoatCANOpen2Buses100us.obj
 0004:00000534       $pdata$sf_opaque_gateway_c2_SpeedgoatCANOpen2Buses100us 000000018004c534     c2_SpeedgoatCANOpen2Buses100us.obj
 0004:00000540       $pdata$sf_opaque_ext_mode_exec_c2_SpeedgoatCANOpen2Buses100us 000000018004c540     c2_SpeedgoatCANOpen2Buses100us.obj
 0004:0000054c       $pdata$sf_opaque_get_sim_state_c2_SpeedgoatCANOpen2Buses100us 000000018004c54c     c2_SpeedgoatCANOpen2Buses100us.obj
 0004:00000558       $pdata$sf_opaque_set_sim_state_c2_SpeedgoatCANOpen2Buses100us 000000018004c558     c2_SpeedgoatCANOpen2Buses100us.obj
 0004:00000564       $pdata$sf_opaque_terminate_c2_SpeedgoatCANOpen2Buses100us 000000018004c564     c2_SpeedgoatCANOpen2Buses100us.obj
 0004:00000570       $pdata$mdlProcessParameters_c2_SpeedgoatCANOpen2Buses100us 000000018004c570     c2_SpeedgoatCANOpen2Buses100us.obj
 0004:0000057c       $pdata$sf_set_sfun_dwork_info 000000018004c57c     c2_SpeedgoatCANOpen2Buses100us.obj
 0004:00000588       $pdata$mdlSetWorkWidths_c2_SpeedgoatCANOpen2Buses100us 000000018004c588     c2_SpeedgoatCANOpen2Buses100us.obj
 0004:00000594       $pdata$mdlRTW_c2_SpeedgoatCANOpen2Buses100us 000000018004c594     c2_SpeedgoatCANOpen2Buses100us.obj
 0004:000005a0       $pdata$mdlStart_c2_SpeedgoatCANOpen2Buses100us 000000018004c5a0     c2_SpeedgoatCANOpen2Buses100us.obj
 0004:000005ac       $pdata$sf_c3_SpeedgoatCANOpen2Buses100us_get_eml_resolved_functions_info 000000018004c5ac     c3_SpeedgoatCANOpen2Buses100us.obj
 0004:000005b8       $pdata$sf_c3_SpeedgoatCANOpen2Buses100us_get_check_sum 000000018004c5b8     c3_SpeedgoatCANOpen2Buses100us.obj
 0004:000005c4       $pdata$c3_SpeedgoatCANOpen2Buses100us_method_dispatcher 000000018004c5c4     c3_SpeedgoatCANOpen2Buses100us.obj
 0004:000005d0       $pdata$chart_debug_initialization 000000018004c5d0     c3_SpeedgoatCANOpen2Buses100us.obj
 0004:000005dc       $pdata$chart_debug_initialize_data_addresses 000000018004c5dc     c3_SpeedgoatCANOpen2Buses100us.obj
 0004:000005e8       $pdata$sf_opaque_get_hover_data_for_msg 000000018004c5e8     c3_SpeedgoatCANOpen2Buses100us.obj
 0004:000005f4       $pdata$initialize_c3_SpeedgoatCANOpen2Buses100us 000000018004c5f4     c3_SpeedgoatCANOpen2Buses100us.obj
 0004:00000600       $pdata$enable_c3_SpeedgoatCANOpen2Buses100us 000000018004c600     c3_SpeedgoatCANOpen2Buses100us.obj
 0004:0000060c       $pdata$disable_c3_SpeedgoatCANOpen2Buses100us 000000018004c60c     c3_SpeedgoatCANOpen2Buses100us.obj
 0004:00000618       $pdata$c3_update_debugger_state_c3_SpeedgoatCANOpen2Buses100us 000000018004c618     c3_SpeedgoatCANOpen2Buses100us.obj
 0004:00000624       $pdata$ext_mode_exec_c3_SpeedgoatCANOpen2Buses100us 000000018004c624     c3_SpeedgoatCANOpen2Buses100us.obj
 0004:00000630       $pdata$get_sim_state_c3_SpeedgoatCANOpen2Buses100us 000000018004c630     c3_SpeedgoatCANOpen2Buses100us.obj
 0004:0000063c       $pdata$set_sim_state_c3_SpeedgoatCANOpen2Buses100us 000000018004c63c     c3_SpeedgoatCANOpen2Buses100us.obj
 0004:00000648       $pdata$finalize_c3_SpeedgoatCANOpen2Buses100us 000000018004c648     c3_SpeedgoatCANOpen2Buses100us.obj
 0004:00000654       $pdata$sf_gateway_c3_SpeedgoatCANOpen2Buses100us 000000018004c654     c3_SpeedgoatCANOpen2Buses100us.obj
 0004:00000660       $pdata$mdl_start_c3_SpeedgoatCANOpen2Buses100us 000000018004c660     c3_SpeedgoatCANOpen2Buses100us.obj
 0004:0000066c       $pdata$c3_chartstep_c3_SpeedgoatCANOpen2Buses100us 000000018004c66c     c3_SpeedgoatCANOpen2Buses100us.obj
 0004:00000678       $pdata$c3_enter_atomic_Init 000000018004c678     c3_SpeedgoatCANOpen2Buses100us.obj
 0004:00000684       $pdata$c3_sf_marshallOut   000000018004c684     c3_SpeedgoatCANOpen2Buses100us.obj
 0004:00000690       $pdata$c3_emlrt_marshallIn 000000018004c690     c3_SpeedgoatCANOpen2Buses100us.obj
 0004:0000069c       $pdata$c3_sf_marshallIn    000000018004c69c     c3_SpeedgoatCANOpen2Buses100us.obj
 0004:000006a8       $pdata$c3_b_sf_marshallOut 000000018004c6a8     c3_SpeedgoatCANOpen2Buses100us.obj
 0004:000006b4       $pdata$c3_b_emlrt_marshallIn 000000018004c6b4     c3_SpeedgoatCANOpen2Buses100us.obj
 0004:000006c0       $pdata$c3_b_sf_marshallIn  000000018004c6c0     c3_SpeedgoatCANOpen2Buses100us.obj
 0004:000006cc       $pdata$c3_d_sf_marshallOut 000000018004c6cc     c3_SpeedgoatCANOpen2Buses100us.obj
 0004:000006d8       $pdata$c3_d_emlrt_marshallIn 000000018004c6d8     c3_SpeedgoatCANOpen2Buses100us.obj
 0004:000006e4       $pdata$c3_e_emlrt_marshallIn 000000018004c6e4     c3_SpeedgoatCANOpen2Buses100us.obj
 0004:000006f0       $pdata$c3_d_sf_marshallIn  000000018004c6f0     c3_SpeedgoatCANOpen2Buses100us.obj
 0004:000006fc       $pdata$c3_f_emlrt_marshallIn 000000018004c6fc     c3_SpeedgoatCANOpen2Buses100us.obj
 0004:00000708       $pdata$c3_g_emlrt_marshallIn 000000018004c708     c3_SpeedgoatCANOpen2Buses100us.obj
 0004:00000714       $pdata$c3_h_emlrt_marshallIn 000000018004c714     c3_SpeedgoatCANOpen2Buses100us.obj
 0004:00000720       $pdata$c3_i_emlrt_marshallIn 000000018004c720     c3_SpeedgoatCANOpen2Buses100us.obj
 0004:0000072c       $pdata$c3_j_emlrt_marshallIn 000000018004c72c     c3_SpeedgoatCANOpen2Buses100us.obj
 0004:00000738       $pdata$c3_k_emlrt_marshallIn 000000018004c738     c3_SpeedgoatCANOpen2Buses100us.obj
 0004:00000744       $pdata$init_simulink_io_address 000000018004c744     c3_SpeedgoatCANOpen2Buses100us.obj
 0004:00000750       $pdata$sf_c3_SpeedgoatCANOpen2Buses100us_get_post_codegen_info 000000018004c750     c3_SpeedgoatCANOpen2Buses100us.obj
 0004:0000075c       $pdata$sf_c3_SpeedgoatCANOpen2Buses100us_get_autoinheritance_info 000000018004c75c     c3_SpeedgoatCANOpen2Buses100us.obj
 0004:00000768       $pdata$sf_c3_SpeedgoatCANOpen2Buses100us_third_party_uses_info 000000018004c768     c3_SpeedgoatCANOpen2Buses100us.obj
 0004:00000774       $pdata$sf_c3_SpeedgoatCANOpen2Buses100us_jit_fallback_info 000000018004c774     c3_SpeedgoatCANOpen2Buses100us.obj
 0004:00000780       $pdata$sf_c3_SpeedgoatCANOpen2Buses100us_updateBuildInfo_args_info 000000018004c780     c3_SpeedgoatCANOpen2Buses100us.obj
 0004:0000078c       $pdata$sf_get_sim_state_info_c3_SpeedgoatCANOpen2Buses100us 000000018004c78c     c3_SpeedgoatCANOpen2Buses100us.obj
 0004:00000798       $pdata$sf_check_dwork_consistency 000000018004c798     c3_SpeedgoatCANOpen2Buses100us.obj
 0004:000007a4       $pdata$sf_opaque_initialize_c3_SpeedgoatCANOpen2Buses100us 000000018004c7a4     c3_SpeedgoatCANOpen2Buses100us.obj
 0004:000007b0       $pdata$sf_opaque_enable_c3_SpeedgoatCANOpen2Buses100us 000000018004c7b0     c3_SpeedgoatCANOpen2Buses100us.obj
 0004:000007bc       $pdata$sf_opaque_disable_c3_SpeedgoatCANOpen2Buses100us 000000018004c7bc     c3_SpeedgoatCANOpen2Buses100us.obj
 0004:000007c8       $pdata$sf_opaque_gateway_c3_SpeedgoatCANOpen2Buses100us 000000018004c7c8     c3_SpeedgoatCANOpen2Buses100us.obj
 0004:000007d4       $pdata$sf_opaque_ext_mode_exec_c3_SpeedgoatCANOpen2Buses100us 000000018004c7d4     c3_SpeedgoatCANOpen2Buses100us.obj
 0004:000007e0       $pdata$sf_opaque_get_sim_state_c3_SpeedgoatCANOpen2Buses100us 000000018004c7e0     c3_SpeedgoatCANOpen2Buses100us.obj
 0004:000007ec       $pdata$sf_opaque_set_sim_state_c3_SpeedgoatCANOpen2Buses100us 000000018004c7ec     c3_SpeedgoatCANOpen2Buses100us.obj
 0004:000007f8       $pdata$sf_opaque_terminate_c3_SpeedgoatCANOpen2Buses100us 000000018004c7f8     c3_SpeedgoatCANOpen2Buses100us.obj
 0004:00000804       $pdata$mdlProcessParameters_c3_SpeedgoatCANOpen2Buses100us 000000018004c804     c3_SpeedgoatCANOpen2Buses100us.obj
 0004:00000810       $pdata$sf_set_sfun_dwork_info 000000018004c810     c3_SpeedgoatCANOpen2Buses100us.obj
 0004:0000081c       $pdata$mdlSetWorkWidths_c3_SpeedgoatCANOpen2Buses100us 000000018004c81c     c3_SpeedgoatCANOpen2Buses100us.obj
 0004:00000828       $pdata$mdlRTW_c3_SpeedgoatCANOpen2Buses100us 000000018004c828     c3_SpeedgoatCANOpen2Buses100us.obj
 0004:00000834       $pdata$mdlStart_c3_SpeedgoatCANOpen2Buses100us 000000018004c834     c3_SpeedgoatCANOpen2Buses100us.obj
 0004:00000840       $pdata$sf_c4_SpeedgoatCANOpen2Buses100us_get_eml_resolved_functions_info 000000018004c840     c4_SpeedgoatCANOpen2Buses100us.obj
 0004:0000084c       $pdata$sf_c4_SpeedgoatCANOpen2Buses100us_get_check_sum 000000018004c84c     c4_SpeedgoatCANOpen2Buses100us.obj
 0004:00000858       $pdata$c4_SpeedgoatCANOpen2Buses100us_method_dispatcher 000000018004c858     c4_SpeedgoatCANOpen2Buses100us.obj
 0004:00000864       $pdata$chart_debug_initialization 000000018004c864     c4_SpeedgoatCANOpen2Buses100us.obj
 0004:00000870       $pdata$chart_debug_initialize_data_addresses 000000018004c870     c4_SpeedgoatCANOpen2Buses100us.obj
 0004:0000087c       $pdata$sf_opaque_get_hover_data_for_msg 000000018004c87c     c4_SpeedgoatCANOpen2Buses100us.obj
 0004:00000888       $pdata$initialize_c4_SpeedgoatCANOpen2Buses100us 000000018004c888     c4_SpeedgoatCANOpen2Buses100us.obj
 0004:00000894       $pdata$enable_c4_SpeedgoatCANOpen2Buses100us 000000018004c894     c4_SpeedgoatCANOpen2Buses100us.obj
 0004:000008a0       $pdata$disable_c4_SpeedgoatCANOpen2Buses100us 000000018004c8a0     c4_SpeedgoatCANOpen2Buses100us.obj
 0004:000008ac       $pdata$c4_update_debugger_state_c4_SpeedgoatCANOpen2Buses100us 000000018004c8ac     c4_SpeedgoatCANOpen2Buses100us.obj
 0004:000008b8       $pdata$ext_mode_exec_c4_SpeedgoatCANOpen2Buses100us 000000018004c8b8     c4_SpeedgoatCANOpen2Buses100us.obj
 0004:000008c4       $pdata$get_sim_state_c4_SpeedgoatCANOpen2Buses100us 000000018004c8c4     c4_SpeedgoatCANOpen2Buses100us.obj
 0004:000008d0       $pdata$set_sim_state_c4_SpeedgoatCANOpen2Buses100us 000000018004c8d0     c4_SpeedgoatCANOpen2Buses100us.obj
 0004:000008dc       $pdata$finalize_c4_SpeedgoatCANOpen2Buses100us 000000018004c8dc     c4_SpeedgoatCANOpen2Buses100us.obj
 0004:000008e8       $pdata$sf_gateway_c4_SpeedgoatCANOpen2Buses100us 000000018004c8e8     c4_SpeedgoatCANOpen2Buses100us.obj
 0004:000008f4       $pdata$mdl_start_c4_SpeedgoatCANOpen2Buses100us 000000018004c8f4     c4_SpeedgoatCANOpen2Buses100us.obj
 0004:00000900       $pdata$c4_sf_marshallOut   000000018004c900     c4_SpeedgoatCANOpen2Buses100us.obj
 0004:0000090c       $pdata$c4_emlrt_marshallIn 000000018004c90c     c4_SpeedgoatCANOpen2Buses100us.obj
 0004:00000918       $pdata$c4_sf_marshallIn    000000018004c918     c4_SpeedgoatCANOpen2Buses100us.obj
 0004:00000924       $pdata$c4_b_sf_marshallOut 000000018004c924     c4_SpeedgoatCANOpen2Buses100us.obj
 0004:00000930       $pdata$c4_b_emlrt_marshallIn 000000018004c930     c4_SpeedgoatCANOpen2Buses100us.obj
 0004:0000093c       $pdata$c4_b_sf_marshallIn  000000018004c93c     c4_SpeedgoatCANOpen2Buses100us.obj
 0004:00000948       $pdata$c4_d_sf_marshallOut 000000018004c948     c4_SpeedgoatCANOpen2Buses100us.obj
 0004:00000954       $pdata$c4_d_emlrt_marshallIn 000000018004c954     c4_SpeedgoatCANOpen2Buses100us.obj
 0004:00000960       $pdata$c4_e_emlrt_marshallIn 000000018004c960     c4_SpeedgoatCANOpen2Buses100us.obj
 0004:0000096c       $pdata$c4_d_sf_marshallIn  000000018004c96c     c4_SpeedgoatCANOpen2Buses100us.obj
 0004:00000978       $pdata$c4_f_emlrt_marshallIn 000000018004c978     c4_SpeedgoatCANOpen2Buses100us.obj
 0004:00000984       $pdata$c4_g_emlrt_marshallIn 000000018004c984     c4_SpeedgoatCANOpen2Buses100us.obj
 0004:00000990       $pdata$c4_h_emlrt_marshallIn 000000018004c990     c4_SpeedgoatCANOpen2Buses100us.obj
 0004:0000099c       $pdata$c4_i_emlrt_marshallIn 000000018004c99c     c4_SpeedgoatCANOpen2Buses100us.obj
 0004:000009a8       $pdata$c4_j_emlrt_marshallIn 000000018004c9a8     c4_SpeedgoatCANOpen2Buses100us.obj
 0004:000009b4       $pdata$c4_k_emlrt_marshallIn 000000018004c9b4     c4_SpeedgoatCANOpen2Buses100us.obj
 0004:000009c0       $pdata$init_simulink_io_address 000000018004c9c0     c4_SpeedgoatCANOpen2Buses100us.obj
 0004:000009cc       $pdata$sf_c4_SpeedgoatCANOpen2Buses100us_get_post_codegen_info 000000018004c9cc     c4_SpeedgoatCANOpen2Buses100us.obj
 0004:000009d8       $pdata$sf_c4_SpeedgoatCANOpen2Buses100us_get_autoinheritance_info 000000018004c9d8     c4_SpeedgoatCANOpen2Buses100us.obj
 0004:000009e4       $pdata$sf_c4_SpeedgoatCANOpen2Buses100us_third_party_uses_info 000000018004c9e4     c4_SpeedgoatCANOpen2Buses100us.obj
 0004:000009f0       $pdata$sf_c4_SpeedgoatCANOpen2Buses100us_jit_fallback_info 000000018004c9f0     c4_SpeedgoatCANOpen2Buses100us.obj
 0004:000009fc       $pdata$sf_c4_SpeedgoatCANOpen2Buses100us_updateBuildInfo_args_info 000000018004c9fc     c4_SpeedgoatCANOpen2Buses100us.obj
 0004:00000a08       $pdata$sf_get_sim_state_info_c4_SpeedgoatCANOpen2Buses100us 000000018004ca08     c4_SpeedgoatCANOpen2Buses100us.obj
 0004:00000a14       $pdata$sf_check_dwork_consistency 000000018004ca14     c4_SpeedgoatCANOpen2Buses100us.obj
 0004:00000a20       $pdata$sf_opaque_initialize_c4_SpeedgoatCANOpen2Buses100us 000000018004ca20     c4_SpeedgoatCANOpen2Buses100us.obj
 0004:00000a2c       $pdata$sf_opaque_enable_c4_SpeedgoatCANOpen2Buses100us 000000018004ca2c     c4_SpeedgoatCANOpen2Buses100us.obj
 0004:00000a38       $pdata$sf_opaque_disable_c4_SpeedgoatCANOpen2Buses100us 000000018004ca38     c4_SpeedgoatCANOpen2Buses100us.obj
 0004:00000a44       $pdata$sf_opaque_gateway_c4_SpeedgoatCANOpen2Buses100us 000000018004ca44     c4_SpeedgoatCANOpen2Buses100us.obj
 0004:00000a50       $pdata$sf_opaque_ext_mode_exec_c4_SpeedgoatCANOpen2Buses100us 000000018004ca50     c4_SpeedgoatCANOpen2Buses100us.obj
 0004:00000a5c       $pdata$sf_opaque_get_sim_state_c4_SpeedgoatCANOpen2Buses100us 000000018004ca5c     c4_SpeedgoatCANOpen2Buses100us.obj
 0004:00000a68       $pdata$sf_opaque_set_sim_state_c4_SpeedgoatCANOpen2Buses100us 000000018004ca68     c4_SpeedgoatCANOpen2Buses100us.obj
 0004:00000a74       $pdata$sf_opaque_terminate_c4_SpeedgoatCANOpen2Buses100us 000000018004ca74     c4_SpeedgoatCANOpen2Buses100us.obj
 0004:00000a80       $pdata$mdlProcessParameters_c4_SpeedgoatCANOpen2Buses100us 000000018004ca80     c4_SpeedgoatCANOpen2Buses100us.obj
 0004:00000a8c       $pdata$sf_set_sfun_dwork_info 000000018004ca8c     c4_SpeedgoatCANOpen2Buses100us.obj
 0004:00000a98       $pdata$mdlSetWorkWidths_c4_SpeedgoatCANOpen2Buses100us 000000018004ca98     c4_SpeedgoatCANOpen2Buses100us.obj
 0004:00000aa4       $pdata$mdlRTW_c4_SpeedgoatCANOpen2Buses100us 000000018004caa4     c4_SpeedgoatCANOpen2Buses100us.obj
 0004:00000ab0       $pdata$mdlStart_c4_SpeedgoatCANOpen2Buses100us 000000018004cab0     c4_SpeedgoatCANOpen2Buses100us.obj
 0004:00000abc       $pdata$sf_c5_SpeedgoatCANOpen2Buses100us_get_eml_resolved_functions_info 000000018004cabc     c5_SpeedgoatCANOpen2Buses100us.obj
 0004:00000ac8       $pdata$sf_c5_SpeedgoatCANOpen2Buses100us_get_check_sum 000000018004cac8     c5_SpeedgoatCANOpen2Buses100us.obj
 0004:00000ad4       $pdata$c5_SpeedgoatCANOpen2Buses100us_method_dispatcher 000000018004cad4     c5_SpeedgoatCANOpen2Buses100us.obj
 0004:00000ae0       $pdata$chart_debug_initialization 000000018004cae0     c5_SpeedgoatCANOpen2Buses100us.obj
 0004:00000aec       $pdata$chart_debug_initialize_data_addresses 000000018004caec     c5_SpeedgoatCANOpen2Buses100us.obj
 0004:00000af8       $pdata$sf_opaque_get_hover_data_for_msg 000000018004caf8     c5_SpeedgoatCANOpen2Buses100us.obj
 0004:00000b04       $pdata$initialize_c5_SpeedgoatCANOpen2Buses100us 000000018004cb04     c5_SpeedgoatCANOpen2Buses100us.obj
 0004:00000b10       $pdata$enable_c5_SpeedgoatCANOpen2Buses100us 000000018004cb10     c5_SpeedgoatCANOpen2Buses100us.obj
 0004:00000b1c       $pdata$disable_c5_SpeedgoatCANOpen2Buses100us 000000018004cb1c     c5_SpeedgoatCANOpen2Buses100us.obj
 0004:00000b28       $pdata$c5_update_debugger_state_c5_SpeedgoatCANOpen2Buses100us 000000018004cb28     c5_SpeedgoatCANOpen2Buses100us.obj
 0004:00000b34       $pdata$ext_mode_exec_c5_SpeedgoatCANOpen2Buses100us 000000018004cb34     c5_SpeedgoatCANOpen2Buses100us.obj
 0004:00000b40       $pdata$get_sim_state_c5_SpeedgoatCANOpen2Buses100us 000000018004cb40     c5_SpeedgoatCANOpen2Buses100us.obj
 0004:00000b4c       $pdata$set_sim_state_c5_SpeedgoatCANOpen2Buses100us 000000018004cb4c     c5_SpeedgoatCANOpen2Buses100us.obj
 0004:00000b58       $pdata$c5_set_sim_state_side_effects_c5_SpeedgoatCANOpen2Buses100us 000000018004cb58     c5_SpeedgoatCANOpen2Buses100us.obj
 0004:00000b64       $pdata$finalize_c5_SpeedgoatCANOpen2Buses100us 000000018004cb64     c5_SpeedgoatCANOpen2Buses100us.obj
 0004:00000b70       $pdata$sf_gateway_c5_SpeedgoatCANOpen2Buses100us 000000018004cb70     c5_SpeedgoatCANOpen2Buses100us.obj
 0004:00000b7c       $pdata$mdl_start_c5_SpeedgoatCANOpen2Buses100us 000000018004cb7c     c5_SpeedgoatCANOpen2Buses100us.obj
 0004:00000b88       $pdata$c5_sf_marshallOut   000000018004cb88     c5_SpeedgoatCANOpen2Buses100us.obj
 0004:00000b94       $pdata$c5_emlrt_marshallIn 000000018004cb94     c5_SpeedgoatCANOpen2Buses100us.obj
 0004:00000ba0       $pdata$c5_sf_marshallIn    000000018004cba0     c5_SpeedgoatCANOpen2Buses100us.obj
 0004:00000bac       $pdata$c5_b_sf_marshallOut 000000018004cbac     c5_SpeedgoatCANOpen2Buses100us.obj
 0004:00000bb8       $pdata$c5_b_emlrt_marshallIn 000000018004cbb8     c5_SpeedgoatCANOpen2Buses100us.obj
 0004:00000bc4       $pdata$c5_b_sf_marshallIn  000000018004cbc4     c5_SpeedgoatCANOpen2Buses100us.obj
 0004:00000bd0       $pdata$c5_d_sf_marshallOut 000000018004cbd0     c5_SpeedgoatCANOpen2Buses100us.obj
 0004:00000bdc       $pdata$c5_d_emlrt_marshallIn 000000018004cbdc     c5_SpeedgoatCANOpen2Buses100us.obj
 0004:00000be8       $pdata$c5_e_emlrt_marshallIn 000000018004cbe8     c5_SpeedgoatCANOpen2Buses100us.obj
 0004:00000bf4       $pdata$c5_d_sf_marshallIn  000000018004cbf4     c5_SpeedgoatCANOpen2Buses100us.obj
 0004:00000c00       $pdata$c5_f_emlrt_marshallIn 000000018004cc00     c5_SpeedgoatCANOpen2Buses100us.obj
 0004:00000c0c       $pdata$c5_g_emlrt_marshallIn 000000018004cc0c     c5_SpeedgoatCANOpen2Buses100us.obj
 0004:00000c18       $pdata$c5_h_emlrt_marshallIn 000000018004cc18     c5_SpeedgoatCANOpen2Buses100us.obj
 0004:00000c24       $pdata$c5_i_emlrt_marshallIn 000000018004cc24     c5_SpeedgoatCANOpen2Buses100us.obj
 0004:00000c30       $pdata$c5_j_emlrt_marshallIn 000000018004cc30     c5_SpeedgoatCANOpen2Buses100us.obj
 0004:00000c3c       $pdata$c5_k_emlrt_marshallIn 000000018004cc3c     c5_SpeedgoatCANOpen2Buses100us.obj
 0004:00000c48       $pdata$c5_l_emlrt_marshallIn 000000018004cc48     c5_SpeedgoatCANOpen2Buses100us.obj
 0004:00000c54       $pdata$c5_m_emlrt_marshallIn 000000018004cc54     c5_SpeedgoatCANOpen2Buses100us.obj
 0004:00000c60       $pdata$init_simulink_io_address 000000018004cc60     c5_SpeedgoatCANOpen2Buses100us.obj
 0004:00000c6c       $pdata$sf_c5_SpeedgoatCANOpen2Buses100us_get_post_codegen_info 000000018004cc6c     c5_SpeedgoatCANOpen2Buses100us.obj
 0004:00000c78       $pdata$sf_c5_SpeedgoatCANOpen2Buses100us_get_autoinheritance_info 000000018004cc78     c5_SpeedgoatCANOpen2Buses100us.obj
 0004:00000c84       $pdata$sf_c5_SpeedgoatCANOpen2Buses100us_third_party_uses_info 000000018004cc84     c5_SpeedgoatCANOpen2Buses100us.obj
 0004:00000c90       $pdata$sf_c5_SpeedgoatCANOpen2Buses100us_jit_fallback_info 000000018004cc90     c5_SpeedgoatCANOpen2Buses100us.obj
 0004:00000c9c       $pdata$sf_c5_SpeedgoatCANOpen2Buses100us_updateBuildInfo_args_info 000000018004cc9c     c5_SpeedgoatCANOpen2Buses100us.obj
 0004:00000ca8       $pdata$sf_get_sim_state_info_c5_SpeedgoatCANOpen2Buses100us 000000018004cca8     c5_SpeedgoatCANOpen2Buses100us.obj
 0004:00000cb4       $pdata$sf_check_dwork_consistency 000000018004ccb4     c5_SpeedgoatCANOpen2Buses100us.obj
 0004:00000cc0       $pdata$sf_opaque_initialize_c5_SpeedgoatCANOpen2Buses100us 000000018004ccc0     c5_SpeedgoatCANOpen2Buses100us.obj
 0004:00000ccc       $pdata$sf_opaque_enable_c5_SpeedgoatCANOpen2Buses100us 000000018004cccc     c5_SpeedgoatCANOpen2Buses100us.obj
 0004:00000cd8       $pdata$sf_opaque_disable_c5_SpeedgoatCANOpen2Buses100us 000000018004ccd8     c5_SpeedgoatCANOpen2Buses100us.obj
 0004:00000ce4       $pdata$sf_opaque_gateway_c5_SpeedgoatCANOpen2Buses100us 000000018004cce4     c5_SpeedgoatCANOpen2Buses100us.obj
 0004:00000cf0       $pdata$sf_opaque_ext_mode_exec_c5_SpeedgoatCANOpen2Buses100us 000000018004ccf0     c5_SpeedgoatCANOpen2Buses100us.obj
 0004:00000cfc       $pdata$sf_opaque_get_sim_state_c5_SpeedgoatCANOpen2Buses100us 000000018004ccfc     c5_SpeedgoatCANOpen2Buses100us.obj
 0004:00000d08       $pdata$sf_opaque_set_sim_state_c5_SpeedgoatCANOpen2Buses100us 000000018004cd08     c5_SpeedgoatCANOpen2Buses100us.obj
 0004:00000d14       $pdata$sf_opaque_terminate_c5_SpeedgoatCANOpen2Buses100us 000000018004cd14     c5_SpeedgoatCANOpen2Buses100us.obj
 0004:00000d20       $pdata$mdlProcessParameters_c5_SpeedgoatCANOpen2Buses100us 000000018004cd20     c5_SpeedgoatCANOpen2Buses100us.obj
 0004:00000d2c       $pdata$sf_set_sfun_dwork_info 000000018004cd2c     c5_SpeedgoatCANOpen2Buses100us.obj
 0004:00000d38       $pdata$mdlSetWorkWidths_c5_SpeedgoatCANOpen2Buses100us 000000018004cd38     c5_SpeedgoatCANOpen2Buses100us.obj
 0004:00000d44       $pdata$mdlRTW_c5_SpeedgoatCANOpen2Buses100us 000000018004cd44     c5_SpeedgoatCANOpen2Buses100us.obj
 0004:00000d50       $pdata$mdlStart_c5_SpeedgoatCANOpen2Buses100us 000000018004cd50     c5_SpeedgoatCANOpen2Buses100us.obj
 0004:00000d5c       $pdata$sf_c12_SpeedgoatCANOpen2Buses100us_get_eml_resolved_functions_info 000000018004cd5c     c12_SpeedgoatCANOpen2Buses100us.obj
 0004:00000d68       $pdata$sf_c12_SpeedgoatCANOpen2Buses100us_get_check_sum 000000018004cd68     c12_SpeedgoatCANOpen2Buses100us.obj
 0004:00000d74       $pdata$c12_SpeedgoatCANOpen2Buses100us_method_dispatcher 000000018004cd74     c12_SpeedgoatCANOpen2Buses100us.obj
 0004:00000d80       $pdata$chart_debug_initialization 000000018004cd80     c12_SpeedgoatCANOpen2Buses100us.obj
 0004:00000d8c       $pdata$chart_debug_initialize_data_addresses 000000018004cd8c     c12_SpeedgoatCANOpen2Buses100us.obj
 0004:00000d98       $pdata$sf_opaque_get_hover_data_for_msg 000000018004cd98     c12_SpeedgoatCANOpen2Buses100us.obj
 0004:00000da4       $pdata$initialize_c12_SpeedgoatCANOpen2Buses100us 000000018004cda4     c12_SpeedgoatCANOpen2Buses100us.obj
 0004:00000db0       $pdata$enable_c12_SpeedgoatCANOpen2Buses100us 000000018004cdb0     c12_SpeedgoatCANOpen2Buses100us.obj
 0004:00000dbc       $pdata$disable_c12_SpeedgoatCANOpen2Buses100us 000000018004cdbc     c12_SpeedgoatCANOpen2Buses100us.obj
 0004:00000dc8       $pdata$c12_update_debugger_state_c12_SpeedgoatCANOpen2Buses100us 000000018004cdc8     c12_SpeedgoatCANOpen2Buses100us.obj
 0004:00000dd4       $pdata$ext_mode_exec_c12_SpeedgoatCANOpen2Buses100us 000000018004cdd4     c12_SpeedgoatCANOpen2Buses100us.obj
 0004:00000de0       $pdata$get_sim_state_c12_SpeedgoatCANOpen2Buses100us 000000018004cde0     c12_SpeedgoatCANOpen2Buses100us.obj
 0004:00000dec       $pdata$set_sim_state_c12_SpeedgoatCANOpen2Buses100us 000000018004cdec     c12_SpeedgoatCANOpen2Buses100us.obj
 0004:00000df8       $pdata$finalize_c12_SpeedgoatCANOpen2Buses100us 000000018004cdf8     c12_SpeedgoatCANOpen2Buses100us.obj
 0004:00000e04       $pdata$sf_gateway_c12_SpeedgoatCANOpen2Buses100us 000000018004ce04     c12_SpeedgoatCANOpen2Buses100us.obj
 0004:00000e10       $pdata$mdl_start_c12_SpeedgoatCANOpen2Buses100us 000000018004ce10     c12_SpeedgoatCANOpen2Buses100us.obj
 0004:00000e1c       $pdata$c12_chartstep_c12_SpeedgoatCANOpen2Buses100us 000000018004ce1c     c12_SpeedgoatCANOpen2Buses100us.obj
 0004:00000e28       $pdata$c12_enter_atomic_Init 000000018004ce28     c12_SpeedgoatCANOpen2Buses100us.obj
 0004:00000e34       $pdata$c12_sf_marshallOut  000000018004ce34     c12_SpeedgoatCANOpen2Buses100us.obj
 0004:00000e40       $pdata$c12_emlrt_marshallIn 000000018004ce40     c12_SpeedgoatCANOpen2Buses100us.obj
 0004:00000e4c       $pdata$c12_sf_marshallIn   000000018004ce4c     c12_SpeedgoatCANOpen2Buses100us.obj
 0004:00000e58       $pdata$c12_b_sf_marshallOut 000000018004ce58     c12_SpeedgoatCANOpen2Buses100us.obj
 0004:00000e64       $pdata$c12_b_emlrt_marshallIn 000000018004ce64     c12_SpeedgoatCANOpen2Buses100us.obj
 0004:00000e70       $pdata$c12_b_sf_marshallIn 000000018004ce70     c12_SpeedgoatCANOpen2Buses100us.obj
 0004:00000e7c       $pdata$c12_d_sf_marshallOut 000000018004ce7c     c12_SpeedgoatCANOpen2Buses100us.obj
 0004:00000e88       $pdata$c12_d_emlrt_marshallIn 000000018004ce88     c12_SpeedgoatCANOpen2Buses100us.obj
 0004:00000e94       $pdata$c12_e_emlrt_marshallIn 000000018004ce94     c12_SpeedgoatCANOpen2Buses100us.obj
 0004:00000ea0       $pdata$c12_d_sf_marshallIn 000000018004cea0     c12_SpeedgoatCANOpen2Buses100us.obj
 0004:00000eac       $pdata$c12_f_emlrt_marshallIn 000000018004ceac     c12_SpeedgoatCANOpen2Buses100us.obj
 0004:00000eb8       $pdata$c12_g_emlrt_marshallIn 000000018004ceb8     c12_SpeedgoatCANOpen2Buses100us.obj
 0004:00000ec4       $pdata$c12_h_emlrt_marshallIn 000000018004cec4     c12_SpeedgoatCANOpen2Buses100us.obj
 0004:00000ed0       $pdata$c12_i_emlrt_marshallIn 000000018004ced0     c12_SpeedgoatCANOpen2Buses100us.obj
 0004:00000edc       $pdata$c12_j_emlrt_marshallIn 000000018004cedc     c12_SpeedgoatCANOpen2Buses100us.obj
 0004:00000ee8       $pdata$c12_k_emlrt_marshallIn 000000018004cee8     c12_SpeedgoatCANOpen2Buses100us.obj
 0004:00000ef4       $pdata$init_simulink_io_address 000000018004cef4     c12_SpeedgoatCANOpen2Buses100us.obj
 0004:00000f00       $pdata$sf_c12_SpeedgoatCANOpen2Buses100us_get_post_codegen_info 000000018004cf00     c12_SpeedgoatCANOpen2Buses100us.obj
 0004:00000f0c       $pdata$sf_c12_SpeedgoatCANOpen2Buses100us_get_autoinheritance_info 000000018004cf0c     c12_SpeedgoatCANOpen2Buses100us.obj
 0004:00000f18       $pdata$sf_c12_SpeedgoatCANOpen2Buses100us_third_party_uses_info 000000018004cf18     c12_SpeedgoatCANOpen2Buses100us.obj
 0004:00000f24       $pdata$sf_c12_SpeedgoatCANOpen2Buses100us_jit_fallback_info 000000018004cf24     c12_SpeedgoatCANOpen2Buses100us.obj
 0004:00000f30       $pdata$sf_c12_SpeedgoatCANOpen2Buses100us_updateBuildInfo_args_info 000000018004cf30     c12_SpeedgoatCANOpen2Buses100us.obj
 0004:00000f3c       $pdata$sf_get_sim_state_info_c12_SpeedgoatCANOpen2Buses100us 000000018004cf3c     c12_SpeedgoatCANOpen2Buses100us.obj
 0004:00000f48       $pdata$sf_check_dwork_consistency 000000018004cf48     c12_SpeedgoatCANOpen2Buses100us.obj
 0004:00000f54       $pdata$sf_opaque_initialize_c12_SpeedgoatCANOpen2Buses100us 000000018004cf54     c12_SpeedgoatCANOpen2Buses100us.obj
 0004:00000f60       $pdata$sf_opaque_enable_c12_SpeedgoatCANOpen2Buses100us 000000018004cf60     c12_SpeedgoatCANOpen2Buses100us.obj
 0004:00000f6c       $pdata$sf_opaque_disable_c12_SpeedgoatCANOpen2Buses100us 000000018004cf6c     c12_SpeedgoatCANOpen2Buses100us.obj
 0004:00000f78       $pdata$sf_opaque_gateway_c12_SpeedgoatCANOpen2Buses100us 000000018004cf78     c12_SpeedgoatCANOpen2Buses100us.obj
 0004:00000f84       $pdata$sf_opaque_ext_mode_exec_c12_SpeedgoatCANOpen2Buses100us 000000018004cf84     c12_SpeedgoatCANOpen2Buses100us.obj
 0004:00000f90       $pdata$sf_opaque_get_sim_state_c12_SpeedgoatCANOpen2Buses100us 000000018004cf90     c12_SpeedgoatCANOpen2Buses100us.obj
 0004:00000f9c       $pdata$sf_opaque_set_sim_state_c12_SpeedgoatCANOpen2Buses100us 000000018004cf9c     c12_SpeedgoatCANOpen2Buses100us.obj
 0004:00000fa8       $pdata$sf_opaque_terminate_c12_SpeedgoatCANOpen2Buses100us 000000018004cfa8     c12_SpeedgoatCANOpen2Buses100us.obj
 0004:00000fb4       $pdata$mdlProcessParameters_c12_SpeedgoatCANOpen2Buses100us 000000018004cfb4     c12_SpeedgoatCANOpen2Buses100us.obj
 0004:00000fc0       $pdata$sf_set_sfun_dwork_info 000000018004cfc0     c12_SpeedgoatCANOpen2Buses100us.obj
 0004:00000fcc       $pdata$mdlSetWorkWidths_c12_SpeedgoatCANOpen2Buses100us 000000018004cfcc     c12_SpeedgoatCANOpen2Buses100us.obj
 0004:00000fd8       $pdata$mdlRTW_c12_SpeedgoatCANOpen2Buses100us 000000018004cfd8     c12_SpeedgoatCANOpen2Buses100us.obj
 0004:00000fe4       $pdata$mdlStart_c12_SpeedgoatCANOpen2Buses100us 000000018004cfe4     c12_SpeedgoatCANOpen2Buses100us.obj
 0004:00000ff0       $pdata$mexFunction         000000018004cff0     SpeedgoatCANOpen2Buses100us_sfun_registry.obj
 0004:00000ffc       $pdata$_ssSetInputPortDirectFeedThroughFcn 000000018004cffc     SpeedgoatCANOpen2Buses100us_sfun_registry.obj
 0004:00001008       $pdata$_ssSetRWorkValueFcn 000000018004d008     SpeedgoatCANOpen2Buses100us_sfun_registry.obj
 0004:00001014       $pdata$_ssGetRWorkValueFcn 000000018004d014     SpeedgoatCANOpen2Buses100us_sfun_registry.obj
 0004:00001020       $pdata$_ssSetIWorkValueFcn 000000018004d020     SpeedgoatCANOpen2Buses100us_sfun_registry.obj
 0004:0000102c       $pdata$_ssGetIWorkValueFcn 000000018004d02c     SpeedgoatCANOpen2Buses100us_sfun_registry.obj
 0004:00001038       $pdata$_ssSetPWorkValueFcn 000000018004d038     SpeedgoatCANOpen2Buses100us_sfun_registry.obj
 0004:00001044       $pdata$_ssGetPWorkValueFcn 000000018004d044     SpeedgoatCANOpen2Buses100us_sfun_registry.obj
 0004:00001050       $pdata$_ssGetInputPortSignalFcn 000000018004d050     SpeedgoatCANOpen2Buses100us_sfun_registry.obj
 0004:0000105c       $pdata$_ssGetInputPortBufferDstPortFcn 000000018004d05c     SpeedgoatCANOpen2Buses100us_sfun_registry.obj
 0004:00001068       $pdata$_ssGetInputPortSignalPtrsFcn 000000018004d068     SpeedgoatCANOpen2Buses100us_sfun_registry.obj
 0004:00001074       $pdata$ssGetParameterTuningCompliance 000000018004d074     SpeedgoatCANOpen2Buses100us_sfun_registry.obj
 0004:00001080       $pdata$ssGetDTypeIdFromMxArray 000000018004d080     SpeedgoatCANOpen2Buses100us_sfun_registry.obj
 0004:0000108c       $pdata$ssWriteRTWMx2dMatParam 000000018004d08c     SpeedgoatCANOpen2Buses100us_sfun_registry.obj
 0004:00001098       $pdata$ssWriteRTWMxVectParam 000000018004d098     SpeedgoatCANOpen2Buses100us_sfun_registry.obj
 0004:000010a4       $pdata$ssWriteRTWParameters 000000018004d0a4     SpeedgoatCANOpen2Buses100us_sfun_registry.obj
 0004:000010b0       $pdata$ssWriteRTWParamSettings 000000018004d0b0     SpeedgoatCANOpen2Buses100us_sfun_registry.obj
 0004:000010bc       $pdata$ssWriteRTWStr       000000018004d0bc     SpeedgoatCANOpen2Buses100us_sfun_registry.obj
 0004:000010c8       $pdata$ssWriteRTWWorkVect  000000018004d0c8     SpeedgoatCANOpen2Buses100us_sfun_registry.obj
 0004:000010d4       $pdata$ssWarning           000000018004d0d4     SpeedgoatCANOpen2Buses100us_sfun_registry.obj
 0004:000010e0       $pdata$ssWriteRTWNameValuePair 000000018004d0e0     SpeedgoatCANOpen2Buses100us_sfun_registry.obj
 0004:000010ec       $pdata$_ssSetInputPortMatrixDimensions 000000018004d0ec     SpeedgoatCANOpen2Buses100us_sfun_registry.obj
 0004:000010f8       $pdata$_ssSetOutputPortMatrixDimensions 000000018004d0f8     SpeedgoatCANOpen2Buses100us_sfun_registry.obj
 0004:00001104       $pdata$_ssSetInputPortVectorDimension 000000018004d104     SpeedgoatCANOpen2Buses100us_sfun_registry.obj
 0004:00001110       $pdata$_ssSetOutputPortVectorDimension 000000018004d110     SpeedgoatCANOpen2Buses100us_sfun_registry.obj
 0004:0000111c       $pdata$ssIsRunTimeParamTunable 000000018004d11c     SpeedgoatCANOpen2Buses100us_sfun_registry.obj
 0004:00001128       $pdata$ssGetSFuncBlockHandle 000000018004d128     SpeedgoatCANOpen2Buses100us_sfun_registry.obj
 0004:00001134       $pdata$_ssGetCurrentInputPortWidth 000000018004d134     SpeedgoatCANOpen2Buses100us_sfun_registry.obj
 0004:00001140       $pdata$_ssGetCurrentOutputPortWidth 000000018004d140     SpeedgoatCANOpen2Buses100us_sfun_registry.obj
 0004:0000114c       $pdata$_ssGetCallSystemNumFcnCallDestinations 000000018004d14c     SpeedgoatCANOpen2Buses100us_sfun_registry.obj
 0004:00001158       $pdata$ssGetIsZeroCrossControlDisabled 000000018004d158     SpeedgoatCANOpen2Buses100us_sfun_registry.obj
 0004:00001164       $pdata$ssSetIsInputPortUsedForContZcSignal 000000018004d164     SpeedgoatCANOpen2Buses100us_sfun_registry.obj
 0004:00001170       $pdata$ssSetZcSignalIsZcElementDisc 000000018004d170     SpeedgoatCANOpen2Buses100us_sfun_registry.obj
 0004:0000117c       $pdata$ssSetZcSignalName   000000018004d17c     SpeedgoatCANOpen2Buses100us_sfun_registry.obj
 0004:00001188       $pdata$ssSetZcSignalWidth  000000018004d188     SpeedgoatCANOpen2Buses100us_sfun_registry.obj
 0004:00001194       $pdata$ssSetZcSignalZcEventType 000000018004d194     SpeedgoatCANOpen2Buses100us_sfun_registry.obj
 0004:000011a0       $pdata$ssSetZcSignalType   000000018004d1a0     SpeedgoatCANOpen2Buses100us_sfun_registry.obj
 0004:000011ac       $pdata$ssSetZcSignalZcTol  000000018004d1ac     SpeedgoatCANOpen2Buses100us_sfun_registry.obj
 0004:000011b8       $pdata$ssSetZcSignalNeedsEventNotification 000000018004d1b8     SpeedgoatCANOpen2Buses100us_sfun_registry.obj
 0004:000011c4       $pdata$ssCreateAndAddZcSignalInfo 000000018004d1c4     SpeedgoatCANOpen2Buses100us_sfun_registry.obj
 0004:000011d0       $pdata$ssCloneAndAddZcSignalInfo 000000018004d1d0     SpeedgoatCANOpen2Buses100us_sfun_registry.obj
 0004:000011dc       $pdata$ssGetNumZcSignals   000000018004d1dc     SpeedgoatCANOpen2Buses100us_sfun_registry.obj
 0004:000011e8       $pdata$ssGetZcSignalVector 000000018004d1e8     SpeedgoatCANOpen2Buses100us_sfun_registry.obj
 0004:000011f4       $pdata$ssGetZcSignalName   000000018004d1f4     SpeedgoatCANOpen2Buses100us_sfun_registry.obj
 0004:00001200       $pdata$ssGetZcSignalWidth  000000018004d200     SpeedgoatCANOpen2Buses100us_sfun_registry.obj
 0004:0000120c       $pdata$ssGetZcSignalZcEventType 000000018004d20c     SpeedgoatCANOpen2Buses100us_sfun_registry.obj
 0004:00001218       $pdata$ssGetZcSignalZcEvents 000000018004d218     SpeedgoatCANOpen2Buses100us_sfun_registry.obj
 0004:00001224       $pdata$ssGetZcSignalType   000000018004d224     SpeedgoatCANOpen2Buses100us_sfun_registry.obj
 0004:00001230       $pdata$ssGetZcSignalZcTol  000000018004d230     SpeedgoatCANOpen2Buses100us_sfun_registry.obj
 0004:0000123c       $pdata$ssGetZcSignalNeedsEventNotification 000000018004d23c     SpeedgoatCANOpen2Buses100us_sfun_registry.obj
 0004:00001248       $pdata$ssGetZcSignalIsZcElementDisc 000000018004d248     SpeedgoatCANOpen2Buses100us_sfun_registry.obj
 0004:00001254       $pdata$ssGetIsInputPortElementContinuous 000000018004d254     SpeedgoatCANOpen2Buses100us_sfun_registry.obj
 0004:00001260       $pdata$_ssGetAbsTol        000000018004d260     SpeedgoatCANOpen2Buses100us_sfun_registry.obj
 0004:0000126c       $pdata$_ssSetInputPortReusableFcn 000000018004d26c     SpeedgoatCANOpen2Buses100us_sfun_registry.obj
 0004:00001278       $pdata$_ssSetOutputPortReusableFcn 000000018004d278     SpeedgoatCANOpen2Buses100us_sfun_registry.obj
 0004:00001284       $pdata$_ssSetSymbolicDimsSupport 000000018004d284     SpeedgoatCANOpen2Buses100us_sfun_registry.obj
 0004:00001290       $pdata$_ssRegisterSymbolicDimsExpr 000000018004d290     SpeedgoatCANOpen2Buses100us_sfun_registry.obj
 0004:0000129c       $pdata$_ssRegisterSymbolicDims 000000018004d29c     SpeedgoatCANOpen2Buses100us_sfun_registry.obj
 0004:000012a8       $pdata$_ssRegisterSymbolicDimsString 000000018004d2a8     SpeedgoatCANOpen2Buses100us_sfun_registry.obj
 0004:000012b4       $pdata$_ssRegisterSymbolicDimsIntValue 000000018004d2b4     SpeedgoatCANOpen2Buses100us_sfun_registry.obj
 0004:000012c0       $pdata$_ssRegisterSymbolicDimsPlus 000000018004d2c0     SpeedgoatCANOpen2Buses100us_sfun_registry.obj
 0004:000012cc       $pdata$_ssRegisterSymbolicDimsMinus 000000018004d2cc     SpeedgoatCANOpen2Buses100us_sfun_registry.obj
 0004:000012d8       $pdata$_ssRegisterSymbolicDimsMultiply 000000018004d2d8     SpeedgoatCANOpen2Buses100us_sfun_registry.obj
 0004:000012e4       $pdata$_ssRegisterSymbolicDimsDivide 000000018004d2e4     SpeedgoatCANOpen2Buses100us_sfun_registry.obj
 0004:000012f0       $pdata$_ssGetNumSymbolicDims 000000018004d2f0     SpeedgoatCANOpen2Buses100us_sfun_registry.obj
 0004:000012fc       $pdata$_ssGetSymbolicDim   000000018004d2fc     SpeedgoatCANOpen2Buses100us_sfun_registry.obj
 0004:00001308       $pdata$_ssSetInputPortSymbolicDimsId 000000018004d308     SpeedgoatCANOpen2Buses100us_sfun_registry.obj
 0004:00001314       $pdata$_ssGetCompInputPortSymbolicDimsId 000000018004d314     SpeedgoatCANOpen2Buses100us_sfun_registry.obj
 0004:00001320       $pdata$_ssSetCompInputPortSymbolicDimsId 000000018004d320     SpeedgoatCANOpen2Buses100us_sfun_registry.obj
 0004:0000132c       $pdata$_ssSetOutputPortSymbolicDimsId 000000018004d32c     SpeedgoatCANOpen2Buses100us_sfun_registry.obj
 0004:00001338       $pdata$_ssGetCompOutputPortSymbolicDimsId 000000018004d338     SpeedgoatCANOpen2Buses100us_sfun_registry.obj
 0004:00001344       $pdata$_ssSetCompOutputPortSymbolicDimsId 000000018004d344     SpeedgoatCANOpen2Buses100us_sfun_registry.obj
 0004:00001350       $pdata$_ssSetCompDWorkSymbolicDimsId 000000018004d350     SpeedgoatCANOpen2Buses100us_sfun_registry.obj
 0004:0000135c       $pdata$sf_process_check_sum_call 000000018004d35c     SpeedgoatCANOpen2Buses100us_sfun_registry.obj
 0004:00001368       $pdata$sf_process_testpoint_info_call 000000018004d368     SpeedgoatCANOpen2Buses100us_sfun_registry.obj
 0004:00001374       $pdata$sf_process_autoinheritance_call 000000018004d374     SpeedgoatCANOpen2Buses100us_sfun_registry.obj
 0004:00001380       $pdata$sf_process_get_third_party_uses_info_call 000000018004d380     SpeedgoatCANOpen2Buses100us_sfun_registry.obj
 0004:0000138c       $pdata$sf_process_get_jit_fallback_info_call 000000018004d38c     SpeedgoatCANOpen2Buses100us_sfun_registry.obj
 0004:00001398       $pdata$sf_process_get_updateBuildInfo_args_info_call 000000018004d398     SpeedgoatCANOpen2Buses100us_sfun_registry.obj
 0004:000013a4       $pdata$sf_process_get_eml_resolved_functions_info_call 000000018004d3a4     SpeedgoatCANOpen2Buses100us_sfun_registry.obj
 0004:000013b0       $pdata$sf_mex_unlock_call  000000018004d3b0     SpeedgoatCANOpen2Buses100us_sfun_registry.obj
 0004:000013bc       $pdata$sf_debug_api_wrapper 000000018004d3bc     SpeedgoatCANOpen2Buses100us_sfun_registry.obj
 0004:000013c8       $pdata$ProcessMexSfunctionCmdLineCall 000000018004d3c8     SpeedgoatCANOpen2Buses100us_sfun_registry.obj
 0004:000013d4       $pdata$sf_machine_global_initializer_called 000000018004d3d4     SpeedgoatCANOpen2Buses100us_sfun_registry.obj
 0004:000013e0       $pdata$sf_machine_global_method_dispatcher 000000018004d3e0     SpeedgoatCANOpen2Buses100us_sfun_registry.obj
 0004:000013ec       $pdata$sf_machine_global_terminator 000000018004d3ec     SpeedgoatCANOpen2Buses100us_sfun_registry.obj
 0004:000013f8       $pdata$sf_register_machine_exported_symbols 000000018004d3f8     SpeedgoatCANOpen2Buses100us_sfun_registry.obj
 0004:00001404       $pdata$sf_machine_global_initializer 000000018004d404     SpeedgoatCANOpen2Buses100us_sfun_registry.obj
 0004:00001410       $pdata$mdlGetSimState      000000018004d410     SpeedgoatCANOpen2Buses100us_sfun_registry.obj
 0004:0000141c       $pdata$mdlSetSimState      000000018004d41c     SpeedgoatCANOpen2Buses100us_sfun_registry.obj
 0004:00001428       $pdata$mdlSetWorkWidths    000000018004d428     SpeedgoatCANOpen2Buses100us_sfun_registry.obj
 0004:00001434       $pdata$mdlProcessParameters 000000018004d434     SpeedgoatCANOpen2Buses100us_sfun_registry.obj
 0004:00001440       $pdata$mdl_start_processing 000000018004d440     SpeedgoatCANOpen2Buses100us_sfun_registry.obj
 0004:0000144c       $pdata$mdl_terminate_processing 000000018004d44c     SpeedgoatCANOpen2Buses100us_sfun_registry.obj
 0004:00001458       $pdata$mdlStart            000000018004d458     SpeedgoatCANOpen2Buses100us_sfun_registry.obj
 0004:00001464       $pdata$mdlTerminate        000000018004d464     SpeedgoatCANOpen2Buses100us_sfun_registry.obj
 0004:00001470       $pdata$mdlInitializeSizes  000000018004d470     SpeedgoatCANOpen2Buses100us_sfun_registry.obj
 0004:0000147c       $pdata$mdlInitializeSampleTimes 000000018004d47c     SpeedgoatCANOpen2Buses100us_sfun_registry.obj
 0004:00001488       $pdata$mdl_outputs_continuous_legacy 000000018004d488     SpeedgoatCANOpen2Buses100us_sfun_registry.obj
 0004:00001494       $pdata$mdl_outputs_processing 000000018004d494     SpeedgoatCANOpen2Buses100us_sfun_registry.obj
 0004:000014a0       $pdata$mdl_zeroCrossings_processing 000000018004d4a0     SpeedgoatCANOpen2Buses100us_sfun_registry.obj
 0004:000014ac       $pdata$mdlZeroCrossings    000000018004d4ac     SpeedgoatCANOpen2Buses100us_sfun_registry.obj
 0004:000014b8       $pdata$mdl_derivatives_processing 000000018004d4b8     SpeedgoatCANOpen2Buses100us_sfun_registry.obj
 0004:000014c4       $pdata$mdlDerivatives      000000018004d4c4     SpeedgoatCANOpen2Buses100us_sfun_registry.obj
 0004:000014d0       $pdata$mdl_initialize_conditions_processing 000000018004d4d0     SpeedgoatCANOpen2Buses100us_sfun_registry.obj
 0004:000014dc       $pdata$mdlInitializeConditions 000000018004d4dc     SpeedgoatCANOpen2Buses100us_sfun_registry.obj
 0004:000014e8       $pdata$mdl_ext_mode_exec_processing 000000018004d4e8     SpeedgoatCANOpen2Buses100us_sfun_registry.obj
 0004:000014f4       $pdata$mdlExtModeExec      000000018004d4f4     SpeedgoatCANOpen2Buses100us_sfun_registry.obj
 0004:00001500       $pdata$mdlRTW              000000018004d500     SpeedgoatCANOpen2Buses100us_sfun_registry.obj
 0004:0000150c       $pdata$mdl_enable_processing 000000018004d50c     SpeedgoatCANOpen2Buses100us_sfun_registry.obj
 0004:00001518       $pdata$mdlEnable           000000018004d518     SpeedgoatCANOpen2Buses100us_sfun_registry.obj
 0004:00001524       $pdata$mdl_disable_processing 000000018004d524     SpeedgoatCANOpen2Buses100us_sfun_registry.obj
 0004:00001530       $pdata$mdlDisable          000000018004d530     SpeedgoatCANOpen2Buses100us_sfun_registry.obj
 0004:0000153c       $pdata$mdlOutputs          000000018004d53c     SpeedgoatCANOpen2Buses100us_sfun_registry.obj
 0004:00001548       $pdata$mdl_update_processing 000000018004d548     SpeedgoatCANOpen2Buses100us_sfun_registry.obj
 0004:00001554       $pdata$mdlUpdate           000000018004d554     SpeedgoatCANOpen2Buses100us_sfun_registry.obj
 0004:00001560       $pdata$ProcessMexSfunctionEveryCall 000000018004d560     SpeedgoatCANOpen2Buses100us_sfun_registry.obj
 0004:0000156c       $pdata$_RegNumInputPortsCB 000000018004d56c     SpeedgoatCANOpen2Buses100us_sfun_registry.obj
 0004:00001578       $pdata$_RegNumOutputPortsCB 000000018004d578     SpeedgoatCANOpen2Buses100us_sfun_registry.obj
 0004:00001584       $pdata$_CreateSimStruct    000000018004d584     SpeedgoatCANOpen2Buses100us_sfun_registry.obj
 0004:00001590       $pdata$_ProcessMexSfunctionCmdLineCall 000000018004d590     SpeedgoatCANOpen2Buses100us_sfun_registry.obj
 0004:0000159c       $pdata$ReportIndexOutOfBoundsError 000000018004d59c     SpeedgoatCANOpen2Buses100us_sfun_registry.obj
 0004:000015a8       $pdata$_vsnprintf_l        000000018004d5a8     SpeedgoatCANOpen2Buses100us_sfun_registry.obj
 0004:000015b4       $pdata$_vsprintf_l         000000018004d5b4     SpeedgoatCANOpen2Buses100us_sfun_registry.obj
 0004:000015c0       $pdata$sprintf             000000018004d5c0     SpeedgoatCANOpen2Buses100us_sfun_registry.obj
 0004:000015cc       $pdata$__raise_securityfailure 000000018004d5cc     MSVCRT:gs_report.obj
 0004:000015d8       $pdata$__report_gsfailure  000000018004d5d8     MSVCRT:gs_report.obj
 0004:000015e4       $pdata$__report_rangecheckfailure 000000018004d5e4     MSVCRT:gs_report.obj
 0004:000015f0       $pdata$__report_securityfailure 000000018004d5f0     MSVCRT:gs_report.obj
 0004:000015fc       $pdata$__report_securityfailureEx 000000018004d5fc     MSVCRT:gs_report.obj
 0004:00001608       $pdata$capture_current_context 000000018004d608     MSVCRT:gs_report.obj
 0004:00001614       $pdata$capture_previous_context 000000018004d614     MSVCRT:gs_report.obj
 0004:00001620       $pdata$__GSHandlerCheck    000000018004d620     MSVCRT:gshandler.obj
 0004:0000162c       $pdata$__GSHandlerCheckCommon 000000018004d62c     MSVCRT:gshandler.obj
 0004:00001644       $pdata$?dllmain_crt_dispatch@@YAHQEAUHINSTANCE__@@KQEAX@Z 000000018004d644     MSVCRT:dll_dllmain.obj
 0004:00001650       $pdata$?dllmain_crt_process_attach@@YAHQEAUHINSTANCE__@@QEAX@Z 000000018004d650     MSVCRT:dll_dllmain.obj
 0004:0000165c       $pdata$?dllmain_crt_process_detach@@YAH_N@Z 000000018004d65c     MSVCRT:dll_dllmain.obj
 0004:00001668       $pdata$?dllmain_dispatch@@YAHQEAUHINSTANCE__@@KQEAX@Z 000000018004d668     MSVCRT:dll_dllmain.obj
 0004:00001674       $pdata$_DllMainCRTStartup  000000018004d674     MSVCRT:dll_dllmain.obj
 0004:00001680       $pdata$__get_entropy       000000018004d680     MSVCRT:gs_support.obj
 0004:0000168c       $pdata$__security_init_cookie 000000018004d68c     MSVCRT:gs_support.obj
 0004:00001698       $pdata$DllMain             000000018004d698     MSVCRT:dll_dllmain_stub.obj
 0004:000016a4       $pdata$__scrt_initialize_default_local_stdio_options 000000018004d6a4     MSVCRT:default_local_stdio_options.obj
 0004:000016b0       $pdata$?configure_argv@__scrt_narrow_argv_policy@@SAHXZ 000000018004d6b0     MSVCRT:utility.obj
 0004:000016bc       $pdata$__scrt_acquire_startup_lock 000000018004d6bc     MSVCRT:utility.obj
 0004:000016c8       $pdata$__scrt_dllmain_after_initialize_c 000000018004d6c8     MSVCRT:utility.obj
 0004:000016d4       $pdata$__scrt_dllmain_before_initialize_c 000000018004d6d4     MSVCRT:utility.obj
 0004:000016e0       $pdata$__scrt_dllmain_crt_thread_attach 000000018004d6e0     MSVCRT:utility.obj
 0004:000016ec       $pdata$__scrt_dllmain_crt_thread_detach 000000018004d6ec     MSVCRT:utility.obj
 0004:000016f8       $pdata$__scrt_dllmain_exception_filter 000000018004d6f8     MSVCRT:utility.obj
 0004:00001704       $pdata$__scrt_dllmain_uninitialize_c 000000018004d704     MSVCRT:utility.obj
 0004:00001710       $pdata$__scrt_dllmain_uninitialize_critical 000000018004d710     MSVCRT:utility.obj
 0004:0000171c       $pdata$__scrt_initialize_crt 000000018004d71c     MSVCRT:utility.obj
 0004:00001728       $pdata$__scrt_initialize_onexit_tables 000000018004d728     MSVCRT:utility.obj
 0004:00001734       $pdata$__scrt_is_nonwritable_in_current_image 000000018004d734     MSVCRT:utility.obj
 0004:00001740       $pdata$__scrt_release_startup_lock 000000018004d740     MSVCRT:utility.obj
 0004:0000174c       $pdata$__scrt_uninitialize_crt 000000018004d74c     MSVCRT:utility.obj
 0004:00001758       $pdata$_onexit             000000018004d758     MSVCRT:utility.obj
 0004:00001764       $pdata$atexit              000000018004d764     MSVCRT:utility.obj
 0004:00001770       $pdata$__scrt_fastfail     000000018004d770     MSVCRT:utility_desktop.obj
 0004:0000177c       $pdata$__scrt_get_show_window_mode 000000018004d77c     MSVCRT:utility_desktop.obj
 0004:00001788       $pdata$__scrt_is_managed_app 000000018004d788     MSVCRT:utility_desktop.obj
 0004:00001794       $pdata$__scrt_unhandled_exception_filter 000000018004d794     MSVCRT:utility_desktop.obj
 0004:000017a0       $pdata$_RTC_Initialize     000000018004d7a0     MSVCRT:initsect.obj
 0004:000017ac       $pdata$_RTC_Terminate      000000018004d7ac     MSVCRT:initsect.obj
 0004:000017b8       $pdata$__isa_available_init 000000018004d7b8     MSVCRT:cpu_disp.obj
 0004:000017d0       $pdata$?fin$0@?0??dllmain_crt_process_attach@@YAHQEAUHINSTANCE__@@QEAX@Z@4HA 000000018004d7d0     MSVCRT:dll_dllmain.obj
 0004:000017dc       $pdata$?fin$0@?0??dllmain_crt_process_detach@@YAH_N@Z@4HA 000000018004d7dc     MSVCRT:dll_dllmain.obj
 0004:000017e8       $pdata$?filt$0@?0??dllmain_dispatch@@YAHQEAUHINSTANCE__@@KQEAX@Z@4HA 000000018004d7e8     MSVCRT:dll_dllmain.obj
 0004:000017f4       $pdata$__scrt_is_nonwritable_in_current_image$filt$0 000000018004d7f4     MSVCRT:utility.obj
